ARM GAS  C:\Users\nikod\AppData\Local\Temp\ccxvSPxN.s 			page 1


   1              		.syntax unified
   2              		.cpu cortex-m3
   3              		.fpu softvfp
   4              		.eabi_attribute 20, 1
   5              		.eabi_attribute 21, 1
   6              		.eabi_attribute 23, 3
   7              		.eabi_attribute 24, 1
   8              		.eabi_attribute 25, 1
   9              		.eabi_attribute 26, 1
  10              		.eabi_attribute 30, 1
  11              		.eabi_attribute 34, 1
  12              		.eabi_attribute 18, 4
  13              		.thumb
  14              		.syntax unified
  15              		.file	"RC522.c"
  16              		.text
  17              	.Ltext0:
  18              		.cfi_sections	.debug_frame
  19              		.section	.text.PCD_WriteRegister,"ax",%progbits
  20              		.align	2
  21              		.global	PCD_WriteRegister
  22              		.thumb
  23              		.thumb_func
  24              		.type	PCD_WriteRegister, %function
  25              	PCD_WriteRegister:
  26              	.LFB64:
  27              		.file 1 "RC522.c"
   1:RC522.c       **** #include <project.h>
   2:RC522.c       **** #include "SPI.h"
   3:RC522.c       **** #include "CReset.h"
   4:RC522.c       **** #include <string.h>
   5:RC522.c       **** #include <stdio.h>
   6:RC522.c       **** #include <stdint.h>
   7:RC522.c       **** #include <stdbool.h>
   8:RC522.c       **** #include <stddef.h>
   9:RC522.c       **** #include "RC522.h"
  10:RC522.c       **** 
  11:RC522.c       **** 
  12:RC522.c       **** 
  13:RC522.c       **** unsigned char     readData;
  14:RC522.c       **** unsigned char     readDummy;
  15:RC522.c       **** 
  16:RC522.c       **** void PCD_WriteRegister(unsigned char addr, unsigned char value) {
  28              		.loc 1 16 0
  29              		.cfi_startproc
  30              		@ args = 0, pretend = 0, frame = 0
  31              		@ frame_needed = 0, uses_anonymous_args = 0
  32              	.LVL0:
  33 0000 38B5     		push	{r3, r4, r5, lr}
  34              		.cfi_def_cfa_offset 16
  35              		.cfi_offset 3, -16
  36              		.cfi_offset 4, -12
  37              		.cfi_offset 5, -8
  38              		.cfi_offset 14, -4
  39 0002 0446     		mov	r4, r0
  40 0004 0D46     		mov	r5, r1
  41              	.LVL1:
ARM GAS  C:\Users\nikod\AppData\Local\Temp\ccxvSPxN.s 			page 2


  42              	.L2:
  17:RC522.c       ****         //SS = false;
  18:RC522.c       ****         while ( ! (SPI_ReadTxStatus() & SPI_STS_SPI_IDLE) );//Espera a que el canal este disponible
  43              		.loc 1 18 0 discriminator 1
  44 0006 FFF7FEFF 		bl	SPI_ReadTxStatus
  45              	.LVL2:
  46 000a 10F0100F 		tst	r0, #16
  47 000e FAD0     		beq	.L2
  19:RC522.c       ****         SPI_WriteTxData((addr<<1)&0x7E);//Equivalente a SPI.transfer((addr<<1)&0x7E);
  48              		.loc 1 19 0
  49 0010 6000     		lsls	r0, r4, #1
  50 0012 00F07E00 		and	r0, r0, #126
  51 0016 FFF7FEFF 		bl	SPI_WriteTxData
  52              	.LVL3:
  53              	.L3:
  20:RC522.c       ****         while ( ! (SPI_ReadTxStatus() & SPI_STS_SPI_IDLE) );//Espera a que el canal este disponible
  54              		.loc 1 20 0 discriminator 1
  55 001a FFF7FEFF 		bl	SPI_ReadTxStatus
  56              	.LVL4:
  57 001e 10F0100F 		tst	r0, #16
  58 0022 FAD0     		beq	.L3
  21:RC522.c       ****         SPI_WriteTxData(value);// Equivalente a  SPI.transfer(val);
  59              		.loc 1 21 0
  60 0024 2846     		mov	r0, r5
  61 0026 FFF7FEFF 		bl	SPI_WriteTxData
  62              	.LVL5:
  63 002a 38BD     		pop	{r3, r4, r5, pc}
  64              		.cfi_endproc
  65              	.LFE64:
  66              		.size	PCD_WriteRegister, .-PCD_WriteRegister
  67              		.section	.text.PCD_WriteRegisters,"ax",%progbits
  68              		.align	2
  69              		.global	PCD_WriteRegisters
  70              		.thumb
  71              		.thumb_func
  72              		.type	PCD_WriteRegisters, %function
  73              	PCD_WriteRegisters:
  74              	.LFB65:
  22:RC522.c       ****         //SS = true;
  23:RC522.c       **** }
  24:RC522.c       **** void PCD_WriteRegisters( unsigned char addr,unsigned char count,unsigned char *values){
  75              		.loc 1 24 0
  76              		.cfi_startproc
  77              		@ args = 0, pretend = 0, frame = 0
  78              		@ frame_needed = 0, uses_anonymous_args = 0
  79              	.LVL6:
  80 0000 70B5     		push	{r4, r5, r6, lr}
  81              		.cfi_def_cfa_offset 16
  82              		.cfi_offset 4, -16
  83              		.cfi_offset 5, -12
  84              		.cfi_offset 6, -8
  85              		.cfi_offset 14, -4
  86 0002 0446     		mov	r4, r0
  87 0004 0D46     		mov	r5, r1
  88 0006 1646     		mov	r6, r2
  89              	.LVL7:
  90              	.L6:
ARM GAS  C:\Users\nikod\AppData\Local\Temp\ccxvSPxN.s 			page 3


  25:RC522.c       **** 
  26:RC522.c       ****     //SS = false;
  27:RC522.c       ****     while ( ! (SPI_ReadTxStatus() & SPI_STS_SPI_IDLE) );//Espera a que el canal este disponible
  91              		.loc 1 27 0 discriminator 1
  92 0008 FFF7FEFF 		bl	SPI_ReadTxStatus
  93              	.LVL8:
  94 000c 10F0100F 		tst	r0, #16
  95 0010 FAD0     		beq	.L6
  28:RC522.c       ****     SPI_WriteTxData((addr << 1 ) & 0x7E );//Equivalente a SPI.transfer((addr<<1)&0x7E);
  96              		.loc 1 28 0
  97 0012 6000     		lsls	r0, r4, #1
  98 0014 00F07E00 		and	r0, r0, #126
  99 0018 FFF7FEFF 		bl	SPI_WriteTxData
 100              	.LVL9:
 101              	.LBB2:
  29:RC522.c       **** 	// MSB == 0 is for writing. LSB is not used in address. Datasheet section 8.1.2.3.
  30:RC522.c       **** 	for (unsigned char index = 0; index < count; index++) {
 102              		.loc 1 30 0
 103 001c 0024     		movs	r4, #0
 104 001e 09E0     		b	.L7
 105              	.LVL10:
 106              	.L8:
  31:RC522.c       ****         while ( ! (SPI_ReadTxStatus() & SPI_STS_SPI_IDLE) );//Espera a que el canal este disponible
 107              		.loc 1 31 0 discriminator 1
 108 0020 FFF7FEFF 		bl	SPI_ReadTxStatus
 109              	.LVL11:
 110 0024 10F0100F 		tst	r0, #16
 111 0028 FAD0     		beq	.L8
  32:RC522.c       **** 		SPI_WriteTxData(values[index]);
 112              		.loc 1 32 0 discriminator 2
 113 002a 305D     		ldrb	r0, [r6, r4]	@ zero_extendqisi2
 114 002c FFF7FEFF 		bl	SPI_WriteTxData
 115              	.LVL12:
  30:RC522.c       ****         while ( ! (SPI_ReadTxStatus() & SPI_STS_SPI_IDLE) );//Espera a que el canal este disponible
 116              		.loc 1 30 0 discriminator 2
 117 0030 0134     		adds	r4, r4, #1
 118              	.LVL13:
 119 0032 E4B2     		uxtb	r4, r4
 120              	.LVL14:
 121              	.L7:
  30:RC522.c       ****         while ( ! (SPI_ReadTxStatus() & SPI_STS_SPI_IDLE) );//Espera a que el canal este disponible
 122              		.loc 1 30 0 is_stmt 0 discriminator 1
 123 0034 AC42     		cmp	r4, r5
 124 0036 F3D3     		bcc	.L8
 125              	.LBE2:
  33:RC522.c       **** 	}
  34:RC522.c       **** 	//SS = true;
  35:RC522.c       **** }
 126              		.loc 1 35 0 is_stmt 1
 127 0038 70BD     		pop	{r4, r5, r6, pc}
 128              		.cfi_endproc
 129              	.LFE65:
 130              		.size	PCD_WriteRegisters, .-PCD_WriteRegisters
 131 003a 00BF     		.section	.text.PCD_ReadRegister,"ax",%progbits
 132              		.align	2
 133              		.global	PCD_ReadRegister
 134              		.thumb
ARM GAS  C:\Users\nikod\AppData\Local\Temp\ccxvSPxN.s 			page 4


 135              		.thumb_func
 136              		.type	PCD_ReadRegister, %function
 137              	PCD_ReadRegister:
 138              	.LFB66:
  36:RC522.c       **** 
  37:RC522.c       **** unsigned char PCD_ReadRegister(unsigned char addr) {
 139              		.loc 1 37 0
 140              		.cfi_startproc
 141              		@ args = 0, pretend = 0, frame = 0
 142              		@ frame_needed = 0, uses_anonymous_args = 0
 143              	.LVL15:
 144 0000 10B5     		push	{r4, lr}
 145              		.cfi_def_cfa_offset 8
 146              		.cfi_offset 4, -8
 147              		.cfi_offset 14, -4
 148 0002 0446     		mov	r4, r0
 149              	.LVL16:
 150              	.L11:
  38:RC522.c       ****         unsigned char value;
  39:RC522.c       ****         //SS = false;
  40:RC522.c       ****         while ( ! (SPI_ReadTxStatus() & SPI_STS_SPI_IDLE) );//Espera a que el canal este disponible
 151              		.loc 1 40 0 discriminator 1
 152 0004 FFF7FEFF 		bl	SPI_ReadTxStatus
 153              	.LVL17:
 154 0008 10F0100F 		tst	r0, #16
 155 000c FAD0     		beq	.L11
  41:RC522.c       ****         SPI_WriteTxData(((addr<<1)&0x7E)|0x80);// Equivalente a SPI.transfer(((addr<<1)&0x7E) | 0x8
 156              		.loc 1 41 0
 157 000e 6000     		lsls	r0, r4, #1
 158 0010 00F07E00 		and	r0, r0, #126
 159 0014 40F08000 		orr	r0, r0, #128
 160 0018 FFF7FEFF 		bl	SPI_WriteTxData
 161              	.LVL18:
 162              	.L12:
  42:RC522.c       ****         while ( ! (SPI_ReadTxStatus() & SPI_STS_SPI_IDLE) );
 163              		.loc 1 42 0 discriminator 1
 164 001c FFF7FEFF 		bl	SPI_ReadTxStatus
 165              	.LVL19:
 166 0020 10F0100F 		tst	r0, #16
 167 0024 FAD0     		beq	.L12
  43:RC522.c       ****         SPI_WriteTxData(0x00); // Equivalente a val = SPI.transfer(0x00);
 168              		.loc 1 43 0
 169 0026 0020     		movs	r0, #0
 170 0028 FFF7FEFF 		bl	SPI_WriteTxData
 171              	.LVL20:
  44:RC522.c       ****         value = SPI_ReadRxData();
 172              		.loc 1 44 0
 173 002c FFF7FEFF 		bl	SPI_ReadRxData
 174              	.LVL21:
  45:RC522.c       ****         //SS = true;
  46:RC522.c       **** 	return value;
  47:RC522.c       **** } // End PCD_ReadRegister()
 175              		.loc 1 47 0
 176 0030 10BD     		pop	{r4, pc}
 177              		.cfi_endproc
 178              	.LFE66:
 179              		.size	PCD_ReadRegister, .-PCD_ReadRegister
ARM GAS  C:\Users\nikod\AppData\Local\Temp\ccxvSPxN.s 			page 5


 180              		.section	.text.PCD_ReadRegisters,"ax",%progbits
 181              		.align	2
 182              		.global	PCD_ReadRegisters
 183              		.thumb
 184              		.thumb_func
 185              		.type	PCD_ReadRegisters, %function
 186              	PCD_ReadRegisters:
 187              	.LFB67:
  48:RC522.c       **** 
  49:RC522.c       **** void PCD_ReadRegisters(	unsigned char addr,	///< The register to read from. One of the PCD_Register
  50:RC522.c       ****                         unsigned char count,			///< The number of bytes to read
  51:RC522.c       **** 						unsigned char *values,		///< Byte array to store the values in.
  52:RC522.c       ****                         unsigned char rxAlign		///< Only bit positions rxAlign..7 in values[0] are 
  53:RC522.c       **** 								) {
 188              		.loc 1 53 0
 189              		.cfi_startproc
 190              		@ args = 0, pretend = 0, frame = 0
 191              		@ frame_needed = 0, uses_anonymous_args = 0
 192              	.LVL22:
  54:RC522.c       **** 	if (count == 0) {
 193              		.loc 1 54 0
 194 0000 0029     		cmp	r1, #0
 195 0002 47D0     		beq	.L23
  53:RC522.c       **** 	if (count == 0) {
 196              		.loc 1 53 0
 197 0004 2DE9F041 		push	{r4, r5, r6, r7, r8, lr}
 198              		.cfi_def_cfa_offset 24
 199              		.cfi_offset 4, -24
 200              		.cfi_offset 5, -20
 201              		.cfi_offset 6, -16
 202              		.cfi_offset 7, -12
 203              		.cfi_offset 8, -8
 204              		.cfi_offset 14, -4
 205 0008 9846     		mov	r8, r3
 206 000a 1646     		mov	r6, r2
 207 000c 0446     		mov	r4, r0
 208              	.LVL23:
  55:RC522.c       **** 		return;
  56:RC522.c       **** 	}
  57:RC522.c       ****     //SSPCON1bits.SSPEN=1;   // Enable SPI port
  58:RC522.c       ****     unsigned char index = 0;							// Index in values array.
  59:RC522.c       ****     //Activa con c0
  60:RC522.c       ****     //SS = false;
  61:RC522.c       **** 	count--;								// One read is performed outside of the loop
 209              		.loc 1 61 0
 210 000e 4F1E     		subs	r7, r1, #1
 211 0010 FFB2     		uxtb	r7, r7
 212              	.LVL24:
 213              	.L16:
  62:RC522.c       ****     while ( ! (SPI_ReadTxStatus() & SPI_STS_SPI_IDLE) );
 214              		.loc 1 62 0 discriminator 1
 215 0012 FFF7FEFF 		bl	SPI_ReadTxStatus
 216              	.LVL25:
 217 0016 10F0100F 		tst	r0, #16
 218 001a FAD0     		beq	.L16
  63:RC522.c       **** 	SPI_WriteTxData(((addr<<1)&0x7E)|0x80);// Equivalente a SPI.transfer(((addr<<1)&0x7E) | 0x80);
 219              		.loc 1 63 0
ARM GAS  C:\Users\nikod\AppData\Local\Temp\ccxvSPxN.s 			page 6


 220 001c 6500     		lsls	r5, r4, #1
 221 001e 05F07E05 		and	r5, r5, #126
 222 0022 45F08005 		orr	r5, r5, #128
 223 0026 2846     		mov	r0, r5
 224 0028 FFF7FEFF 		bl	SPI_WriteTxData
 225              	.LVL26:
  64:RC522.c       **** 	if (rxAlign) {		// Only update bit positions rxAlign..7 in values[0]
 226              		.loc 1 64 0
 227 002c B8F1000F 		cmp	r8, #0
 228 0030 17D0     		beq	.L21
 229              	.LBB3:
  65:RC522.c       **** 		// Create bit mask for bit positions rxAlign..7
  66:RC522.c       **** 		unsigned char mask = (0xFF << rxAlign) & 0xFF;
 230              		.loc 1 66 0
 231 0032 FF23     		movs	r3, #255
 232 0034 03FA08F8 		lsl	r8, r3, r8
 233 0038 5FFA88F4 		uxtb	r4, r8
 234              	.LVL27:
 235              	.L18:
  67:RC522.c       **** 		// Read value and tell that we want to read the same address again.
  68:RC522.c       ****         while ( ! (SPI_ReadTxStatus() & SPI_STS_SPI_IDLE) );
 236              		.loc 1 68 0 discriminator 1
 237 003c FFF7FEFF 		bl	SPI_ReadTxStatus
 238              	.LVL28:
 239 0040 10F0100F 		tst	r0, #16
 240 0044 FAD0     		beq	.L18
  69:RC522.c       ****         SPI_WriteTxData(((addr<<1)&0x7E)|0x80);// Equivalente a SPI.transfer(((addr<<1)&0x7E) | 0x8
 241              		.loc 1 69 0
 242 0046 2846     		mov	r0, r5
 243 0048 FFF7FEFF 		bl	SPI_WriteTxData
 244              	.LVL29:
  70:RC522.c       **** 		unsigned char value =  SPI_ReadRxData();
 245              		.loc 1 70 0
 246 004c FFF7FEFF 		bl	SPI_ReadRxData
 247              	.LVL30:
  71:RC522.c       **** 		// Apply mask to both current value of values[0] and the new data in value.
  72:RC522.c       **** 		values[0] = (values[0] & ~mask) | (value & mask);
 248              		.loc 1 72 0
 249 0050 3378     		ldrb	r3, [r6]	@ zero_extendqisi2
 250 0052 23EA0808 		bic	r8, r3, r8
 251 0056 2040     		ands	r0, r0, r4
 252              	.LVL31:
 253 0058 48EA0003 		orr	r3, r8, r0
 254 005c 3370     		strb	r3, [r6]
 255              	.LVL32:
  73:RC522.c       **** 		index++;
 256              		.loc 1 73 0
 257 005e 0124     		movs	r4, #1
 258              	.LVL33:
 259 0060 0EE0     		b	.L19
 260              	.LVL34:
 261              	.L21:
 262              	.LBE3:
  58:RC522.c       ****     //Activa con c0
 263              		.loc 1 58 0
 264 0062 0024     		movs	r4, #0
 265 0064 0CE0     		b	.L19
ARM GAS  C:\Users\nikod\AppData\Local\Temp\ccxvSPxN.s 			page 7


 266              	.LVL35:
 267              	.L20:
  74:RC522.c       **** 	}
  75:RC522.c       **** 	while (index < count) {
  76:RC522.c       ****         while ( ! (SPI_ReadTxStatus() & SPI_STS_SPI_IDLE) );
 268              		.loc 1 76 0 discriminator 1
 269 0066 FFF7FEFF 		bl	SPI_ReadTxStatus
 270              	.LVL36:
 271 006a 10F0100F 		tst	r0, #16
 272 006e FAD0     		beq	.L20
  77:RC522.c       **** 		SPI_WriteTxData(((addr<<1)&0x7E)|0x80);// Equivalente a SPI.transfer(((addr<<1)&0x7E) | 0x80);
 273              		.loc 1 77 0
 274 0070 2846     		mov	r0, r5
 275 0072 FFF7FEFF 		bl	SPI_WriteTxData
 276              	.LVL37:
  78:RC522.c       **** 		values[index] = SPI_ReadRxData();
 277              		.loc 1 78 0
 278 0076 FFF7FEFF 		bl	SPI_ReadRxData
 279              	.LVL38:
 280 007a 3055     		strb	r0, [r6, r4]
  79:RC522.c       ****         index++;
 281              		.loc 1 79 0
 282 007c 0134     		adds	r4, r4, #1
 283              	.LVL39:
 284 007e E4B2     		uxtb	r4, r4
 285              	.LVL40:
 286              	.L19:
  75:RC522.c       ****         while ( ! (SPI_ReadTxStatus() & SPI_STS_SPI_IDLE) );
 287              		.loc 1 75 0
 288 0080 BC42     		cmp	r4, r7
 289 0082 F0D3     		bcc	.L20
  80:RC522.c       **** 	}
  81:RC522.c       ****     SPI_WriteTxData(0x00);
 290              		.loc 1 81 0
 291 0084 0020     		movs	r0, #0
 292 0086 FFF7FEFF 		bl	SPI_WriteTxData
 293              	.LVL41:
  82:RC522.c       **** 	values[index] = SPI_ReadRxData(); // Equivalente a val = SPI.transfer(0x00);
 294              		.loc 1 82 0
 295 008a FFF7FEFF 		bl	SPI_ReadRxData
 296              	.LVL42:
 297 008e 3055     		strb	r0, [r6, r4]
 298 0090 BDE8F081 		pop	{r4, r5, r6, r7, r8, pc}
 299              	.LVL43:
 300              	.L23:
 301              		.cfi_def_cfa_offset 0
 302              		.cfi_restore 4
 303              		.cfi_restore 5
 304              		.cfi_restore 6
 305              		.cfi_restore 7
 306              		.cfi_restore 8
 307              		.cfi_restore 14
 308 0094 7047     		bx	lr
 309              		.cfi_endproc
 310              	.LFE67:
 311              		.size	PCD_ReadRegisters, .-PCD_ReadRegisters
 312 0096 00BF     		.section	.text.PCD_SetRegisterBitMask,"ax",%progbits
ARM GAS  C:\Users\nikod\AppData\Local\Temp\ccxvSPxN.s 			page 8


 313              		.align	2
 314              		.global	PCD_SetRegisterBitMask
 315              		.thumb
 316              		.thumb_func
 317              		.type	PCD_SetRegisterBitMask, %function
 318              	PCD_SetRegisterBitMask:
 319              	.LFB68:
  83:RC522.c       **** 	//SSPCON1bits.SSPEN=0;   // Enable SPI port
  84:RC522.c       ****     //SS = true;
  85:RC522.c       **** } // End PCD_ReadRegisters()
  86:RC522.c       **** 
  87:RC522.c       **** void PCD_SetRegisterBitMask(	unsigned char reg,	///< The register to update. One of the PCD_Registe
  88:RC522.c       **** 										unsigned char mask			///< The bits to set.
  89:RC522.c       **** 									) { 
 320              		.loc 1 89 0
 321              		.cfi_startproc
 322              		@ args = 0, pretend = 0, frame = 0
 323              		@ frame_needed = 0, uses_anonymous_args = 0
 324              	.LVL44:
 325 0000 38B5     		push	{r3, r4, r5, lr}
 326              		.cfi_def_cfa_offset 16
 327              		.cfi_offset 3, -16
 328              		.cfi_offset 4, -12
 329              		.cfi_offset 5, -8
 330              		.cfi_offset 14, -4
 331 0002 0546     		mov	r5, r0
 332 0004 0C46     		mov	r4, r1
  90:RC522.c       **** 	unsigned char tmp;
  91:RC522.c       **** 	tmp = PCD_ReadRegister(reg);
 333              		.loc 1 91 0
 334 0006 FFF7FEFF 		bl	PCD_ReadRegister
 335              	.LVL45:
  92:RC522.c       **** 	PCD_WriteRegister(reg, tmp | mask);			// set bit mask
 336              		.loc 1 92 0
 337 000a 40EA0401 		orr	r1, r0, r4
 338 000e C9B2     		uxtb	r1, r1
 339 0010 2846     		mov	r0, r5
 340              	.LVL46:
 341 0012 FFF7FEFF 		bl	PCD_WriteRegister
 342              	.LVL47:
 343 0016 38BD     		pop	{r3, r4, r5, pc}
 344              		.cfi_endproc
 345              	.LFE68:
 346              		.size	PCD_SetRegisterBitMask, .-PCD_SetRegisterBitMask
 347              		.section	.text.PCD_ClearRegisterBitMask,"ax",%progbits
 348              		.align	2
 349              		.global	PCD_ClearRegisterBitMask
 350              		.thumb
 351              		.thumb_func
 352              		.type	PCD_ClearRegisterBitMask, %function
 353              	PCD_ClearRegisterBitMask:
 354              	.LFB69:
  93:RC522.c       **** } // End PCD_SetRegisterBitMask()
  94:RC522.c       **** 
  95:RC522.c       **** 
  96:RC522.c       **** void PCD_ClearRegisterBitMask(	unsigned char reg,	///< The register to update. One of the PCD_Regis
  97:RC522.c       **** 								unsigned char mask			///< The bits to clear.
ARM GAS  C:\Users\nikod\AppData\Local\Temp\ccxvSPxN.s 			page 9


  98:RC522.c       **** 									  ) {
 355              		.loc 1 98 0
 356              		.cfi_startproc
 357              		@ args = 0, pretend = 0, frame = 0
 358              		@ frame_needed = 0, uses_anonymous_args = 0
 359              	.LVL48:
 360 0000 38B5     		push	{r3, r4, r5, lr}
 361              		.cfi_def_cfa_offset 16
 362              		.cfi_offset 3, -16
 363              		.cfi_offset 4, -12
 364              		.cfi_offset 5, -8
 365              		.cfi_offset 14, -4
 366 0002 0546     		mov	r5, r0
 367 0004 0C46     		mov	r4, r1
  99:RC522.c       **** 	unsigned char tmp;
 100:RC522.c       **** 	tmp = PCD_ReadRegister(reg);
 368              		.loc 1 100 0
 369 0006 FFF7FEFF 		bl	PCD_ReadRegister
 370              	.LVL49:
 101:RC522.c       **** 	PCD_WriteRegister(reg,(tmp&(~mask)));		// clear bit mask
 371              		.loc 1 101 0
 372 000a 20EA0401 		bic	r1, r0, r4
 373 000e C9B2     		uxtb	r1, r1
 374 0010 2846     		mov	r0, r5
 375              	.LVL50:
 376 0012 FFF7FEFF 		bl	PCD_WriteRegister
 377              	.LVL51:
 378 0016 38BD     		pop	{r3, r4, r5, pc}
 379              		.cfi_endproc
 380              	.LFE69:
 381              		.size	PCD_ClearRegisterBitMask, .-PCD_ClearRegisterBitMask
 382              		.section	.text.PCD_CalculateCRC,"ax",%progbits
 383              		.align	2
 384              		.global	PCD_CalculateCRC
 385              		.thumb
 386              		.thumb_func
 387              		.type	PCD_CalculateCRC, %function
 388              	PCD_CalculateCRC:
 389              	.LFB70:
 102:RC522.c       **** } // End PCD_ClearRegisterBitMask()
 103:RC522.c       **** 
 104:RC522.c       **** unsigned char  PCD_CalculateCRC(	unsigned char *data,		///< In: Pointer to the data to transfer to 
 105:RC522.c       **** 						unsigned char length,	///< In: The number of bytes to transfer.
 106:RC522.c       **** 						unsigned char *result	///< Out: Pointer to result buffer. Result is written to result[0..1], 
 107:RC522.c       **** 					 ) {
 390              		.loc 1 107 0
 391              		.cfi_startproc
 392              		@ args = 0, pretend = 0, frame = 0
 393              		@ frame_needed = 0, uses_anonymous_args = 0
 394              	.LVL52:
 395 0000 70B5     		push	{r4, r5, r6, lr}
 396              		.cfi_def_cfa_offset 16
 397              		.cfi_offset 4, -16
 398              		.cfi_offset 5, -12
 399              		.cfi_offset 6, -8
 400              		.cfi_offset 14, -4
 401 0002 0646     		mov	r6, r0
ARM GAS  C:\Users\nikod\AppData\Local\Temp\ccxvSPxN.s 			page 10


 402 0004 0C46     		mov	r4, r1
 403 0006 1546     		mov	r5, r2
 108:RC522.c       **** 	PCD_WriteRegister(CommandReg, PCD_Idle);		// Stop any active command.
 404              		.loc 1 108 0
 405 0008 0021     		movs	r1, #0
 406              	.LVL53:
 407 000a 0120     		movs	r0, #1
 408              	.LVL54:
 409 000c FFF7FEFF 		bl	PCD_WriteRegister
 410              	.LVL55:
 109:RC522.c       **** 	PCD_WriteRegister(DivIrqReg, 0x04);				// Clear the CRCIRq interrupt request bit
 411              		.loc 1 109 0
 412 0010 0421     		movs	r1, #4
 413 0012 0520     		movs	r0, #5
 414 0014 FFF7FEFF 		bl	PCD_WriteRegister
 415              	.LVL56:
 110:RC522.c       **** 	PCD_WriteRegister(FIFOLevelReg, 0x80);			// FlushBuffer = 1, FIFO initialization
 416              		.loc 1 110 0
 417 0018 8021     		movs	r1, #128
 418 001a 0A20     		movs	r0, #10
 419 001c FFF7FEFF 		bl	PCD_WriteRegister
 420              	.LVL57:
 111:RC522.c       **** 	PCD_WriteRegisters(FIFODataReg, length, data);	// Write data to the FIFO
 421              		.loc 1 111 0
 422 0020 3246     		mov	r2, r6
 423 0022 2146     		mov	r1, r4
 424 0024 0920     		movs	r0, #9
 425 0026 FFF7FEFF 		bl	PCD_WriteRegisters
 426              	.LVL58:
 112:RC522.c       **** 	PCD_WriteRegister(CommandReg, PCD_CalcCRC);		// Start the calculation
 427              		.loc 1 112 0
 428 002a 0321     		movs	r1, #3
 429 002c 0120     		movs	r0, #1
 430 002e FFF7FEFF 		bl	PCD_WriteRegister
 431              	.LVL59:
 432              	.LBB4:
 113:RC522.c       **** 	
 114:RC522.c       **** 	// Wait for the CRC calculation to complete. Each iteration of the while-loop takes 17.73?s.
 115:RC522.c       **** 	// TODO check/modify for other architectures than Arduino Uno 16bit
 116:RC522.c       **** 
 117:RC522.c       **** 	// Wait for the CRC calculation to complete. Each iteration of the while-loop takes 17.73us.
 118:RC522.c       **** 	for (uint16_t i = 5000; i > 0; i--) {
 433              		.loc 1 118 0
 434 0032 41F28834 		movw	r4, #5000
 435 0036 15E0     		b	.L29
 436              	.LVL60:
 437              	.L32:
 438              	.LBB5:
 119:RC522.c       **** 		// DivIrqReg[7..0] bits are: Set2 reserved reserved MfinActIRq reserved CRCIRq reserved reserved
 120:RC522.c       **** 		unsigned char n = PCD_ReadRegister(DivIrqReg);
 439              		.loc 1 120 0
 440 0038 0520     		movs	r0, #5
 441 003a FFF7FEFF 		bl	PCD_ReadRegister
 442              	.LVL61:
 121:RC522.c       **** 		if (n & 0x04) {									// CRCIRq bit set - calculation done
 443              		.loc 1 121 0
 444 003e 10F0040F 		tst	r0, #4
ARM GAS  C:\Users\nikod\AppData\Local\Temp\ccxvSPxN.s 			page 11


 445 0042 0DD0     		beq	.L30
 122:RC522.c       **** 			PCD_WriteRegister(CommandReg, PCD_Idle);	// Stop calculating CRC for new content in the FIFO.
 446              		.loc 1 122 0
 447 0044 0021     		movs	r1, #0
 448 0046 0120     		movs	r0, #1
 449              	.LVL62:
 450 0048 FFF7FEFF 		bl	PCD_WriteRegister
 451              	.LVL63:
 123:RC522.c       **** 			// Transfer the result from the registers to the result buffer
 124:RC522.c       **** 			result[0] = PCD_ReadRegister(CRCResultRegL);
 452              		.loc 1 124 0
 453 004c 2220     		movs	r0, #34
 454 004e FFF7FEFF 		bl	PCD_ReadRegister
 455              	.LVL64:
 456 0052 2870     		strb	r0, [r5]
 125:RC522.c       **** 			result[1] = PCD_ReadRegister(CRCResultRegH);
 457              		.loc 1 125 0
 458 0054 2120     		movs	r0, #33
 459 0056 FFF7FEFF 		bl	PCD_ReadRegister
 460              	.LVL65:
 461 005a 6870     		strb	r0, [r5, #1]
 126:RC522.c       **** 			return STATUS_OK;
 462              		.loc 1 126 0
 463 005c 0020     		movs	r0, #0
 464 005e 70BD     		pop	{r4, r5, r6, pc}
 465              	.LVL66:
 466              	.L30:
 467              	.LBE5:
 118:RC522.c       **** 		// DivIrqReg[7..0] bits are: Set2 reserved reserved MfinActIRq reserved CRCIRq reserved reserved
 468              		.loc 1 118 0 discriminator 2
 469 0060 013C     		subs	r4, r4, #1
 470              	.LVL67:
 471 0062 A4B2     		uxth	r4, r4
 472              	.LVL68:
 473              	.L29:
 118:RC522.c       **** 		// DivIrqReg[7..0] bits are: Set2 reserved reserved MfinActIRq reserved CRCIRq reserved reserved
 474              		.loc 1 118 0 is_stmt 0 discriminator 1
 475 0064 002C     		cmp	r4, #0
 476 0066 E7D1     		bne	.L32
 477              	.LBE4:
 127:RC522.c       **** 		}
 128:RC522.c       **** 	}
 129:RC522.c       **** 	// 89ms passed and nothing happend. Communication with the MFRC522 might be down.
 130:RC522.c       **** 	return STATUS_TIMEOUT;
 478              		.loc 1 130 0 is_stmt 1
 479 0068 0320     		movs	r0, #3
 131:RC522.c       **** }
 480              		.loc 1 131 0
 481 006a 70BD     		pop	{r4, r5, r6, pc}
 482              		.cfi_endproc
 483              	.LFE70:
 484              		.size	PCD_CalculateCRC, .-PCD_CalculateCRC
 485              		.section	.text.PCD_Reset,"ax",%progbits
 486              		.align	2
 487              		.global	PCD_Reset
 488              		.thumb
 489              		.thumb_func
ARM GAS  C:\Users\nikod\AppData\Local\Temp\ccxvSPxN.s 			page 12


 490              		.type	PCD_Reset, %function
 491              	PCD_Reset:
 492              	.LFB72:
 132:RC522.c       **** 
 133:RC522.c       **** 
 134:RC522.c       **** 
 135:RC522.c       **** 
 136:RC522.c       **** 
 137:RC522.c       **** void PCD_Init(void) {
 138:RC522.c       **** 	// Set the chipSelectPin as digital output, do not select the slave yet
 139:RC522.c       ****     bool hardReset;
 140:RC522.c       ****     //SS = true;
 141:RC522.c       ****     //rst entrada
 142:RC522.c       ****     if (RESET_Read() == 0) {      
 143:RC522.c       ****     
 144:RC522.c       ****     RESET_Write(0);		// Make shure we have a clean LOW state.
 145:RC522.c       ****     CyDelayUs(20);				// 8.8.1 Reset timing requirements says about 100ns. Let us be generous: 2?sl
 146:RC522.c       ****     RESET_Write(1); // Exit power down mode. This triggers a hard reset.
 147:RC522.c       ****     CyDelay(50);//Delay 50 ms
 148:RC522.c       **** 	hardReset = true;   
 149:RC522.c       ****     }
 150:RC522.c       ****     if(!hardReset){
 151:RC522.c       **** 	PCD_Reset();
 152:RC522.c       ****     }
 153:RC522.c       **** 	// Reset baud rates
 154:RC522.c       **** 	PCD_WriteRegister(TxModeReg, 0x00);
 155:RC522.c       **** 	PCD_WriteRegister(RxModeReg, 0x00);
 156:RC522.c       **** 	// Reset ModWidthReg
 157:RC522.c       **** 	PCD_WriteRegister(ModWidthReg, 0x26);
 158:RC522.c       **** 	// When communicating with a PICC we need a timeout if something goes wrong.
 159:RC522.c       **** 	// f_timer = 13.56 MHz / (2*TPreScaler+1) where TPreScaler = [TPrescaler_Hi:TPrescaler_Lo].
 160:RC522.c       **** 	// TPrescaler_Hi are the four low bits in TModeReg. TPrescaler_Lo is TPrescalerReg.
 161:RC522.c       **** 	PCD_WriteRegister(TModeReg, 0x80);			// TAuto=1; timer starts automatically at the end of the tran
 162:RC522.c       **** 	PCD_WriteRegister(TPrescalerReg, 0xA9);		// TPreScaler = TModeReg[3..0]:TPrescalerReg, ie 0x0A9 = 
 163:RC522.c       **** 	PCD_WriteRegister(TReloadRegH, 0x03);		// Reload timer with 0x3E8 = 1000, ie 25ms before timeout.
 164:RC522.c       **** 	PCD_WriteRegister(TReloadRegL, 0xE8);
 165:RC522.c       **** 	
 166:RC522.c       **** 	PCD_WriteRegister(TxASKReg, 0x40);		// Default 0x00. Force a 100 % ASK modulation independent of t
 167:RC522.c       **** 	PCD_WriteRegister(ModeReg, 0x3D);		// Default 0x3F. Set the preset value for the CRC coprocessor f
 168:RC522.c       **** 	PCD_AntennaOn();						// Enable the antenna driver pins TX1 and TX2 (they were disabled by the res
 169:RC522.c       **** } // End PCD_Init()
 170:RC522.c       **** 
 171:RC522.c       **** void PCD_Reset(void){
 493              		.loc 1 171 0
 494              		.cfi_startproc
 495              		@ args = 0, pretend = 0, frame = 0
 496              		@ frame_needed = 0, uses_anonymous_args = 0
 497 0000 10B5     		push	{r4, lr}
 498              		.cfi_def_cfa_offset 8
 499              		.cfi_offset 4, -8
 500              		.cfi_offset 14, -4
 172:RC522.c       **** 	PCD_WriteRegister(CommandReg, PCD_SoftReset);	// Issue the SoftReset command.
 501              		.loc 1 172 0
 502 0002 0F21     		movs	r1, #15
 503 0004 0120     		movs	r0, #1
 504 0006 FFF7FEFF 		bl	PCD_WriteRegister
 505              	.LVL69:
ARM GAS  C:\Users\nikod\AppData\Local\Temp\ccxvSPxN.s 			page 13


 173:RC522.c       **** 	// The datasheet does not mention how unsigned long the SoftRest command takes to complete.
 174:RC522.c       **** 	// But the MFRC522 might have been in soft power-down mode (triggered by bit 4 of CommandReg) 
 175:RC522.c       **** 	// Section 8.8.2 in the datasheet says the oscillator start-up time is the start up time of the cr
 176:RC522.c       **** 	unsigned char count = 0;
 506              		.loc 1 176 0
 507 000a 0024     		movs	r4, #0
 508              	.LVL70:
 509              	.L36:
 177:RC522.c       **** 	do {
 178:RC522.c       **** 		// Wait for the PowerDown bit in CommandReg to be cleared (max 3x50ms)
 179:RC522.c       **** 	    CyDelay(50);
 510              		.loc 1 179 0 discriminator 2
 511 000c 3220     		movs	r0, #50
 512 000e FFF7FEFF 		bl	CyDelay
 513              	.LVL71:
 180:RC522.c       **** 	} while ((PCD_ReadRegister(CommandReg) & (1 << 4)) && (++count) < 3);
 514              		.loc 1 180 0 discriminator 2
 515 0012 0120     		movs	r0, #1
 516 0014 FFF7FEFF 		bl	PCD_ReadRegister
 517              	.LVL72:
 518 0018 10F0100F 		tst	r0, #16
 519 001c 03D0     		beq	.L34
 520              		.loc 1 180 0 is_stmt 0 discriminator 1
 521 001e 0134     		adds	r4, r4, #1
 522              	.LVL73:
 523 0020 E4B2     		uxtb	r4, r4
 524              	.LVL74:
 525 0022 022C     		cmp	r4, #2
 526 0024 F2D9     		bls	.L36
 527              	.L34:
 528 0026 10BD     		pop	{r4, pc}
 529              		.cfi_endproc
 530              	.LFE72:
 531              		.size	PCD_Reset, .-PCD_Reset
 532              		.section	.text.PCD_AntennaOn,"ax",%progbits
 533              		.align	2
 534              		.global	PCD_AntennaOn
 535              		.thumb
 536              		.thumb_func
 537              		.type	PCD_AntennaOn, %function
 538              	PCD_AntennaOn:
 539              	.LFB73:
 181:RC522.c       **** } // End PCD_Reset()
 182:RC522.c       **** 
 183:RC522.c       **** void PCD_AntennaOn(void) {
 540              		.loc 1 183 0 is_stmt 1
 541              		.cfi_startproc
 542              		@ args = 0, pretend = 0, frame = 0
 543              		@ frame_needed = 0, uses_anonymous_args = 0
 544 0000 08B5     		push	{r3, lr}
 545              		.cfi_def_cfa_offset 8
 546              		.cfi_offset 3, -8
 547              		.cfi_offset 14, -4
 184:RC522.c       **** 	unsigned char value = PCD_ReadRegister(TxControlReg);
 548              		.loc 1 184 0
 549 0002 1420     		movs	r0, #20
 550 0004 FFF7FEFF 		bl	PCD_ReadRegister
ARM GAS  C:\Users\nikod\AppData\Local\Temp\ccxvSPxN.s 			page 14


 551              	.LVL75:
 185:RC522.c       **** 	if ((value & 0x03) != 0x03) {
 552              		.loc 1 185 0
 553 0008 00F00303 		and	r3, r0, #3
 554 000c 032B     		cmp	r3, #3
 555 000e 05D0     		beq	.L38
 186:RC522.c       **** 		PCD_WriteRegister(TxControlReg, value | 0x03);
 556              		.loc 1 186 0
 557 0010 40F00301 		orr	r1, r0, #3
 558 0014 C9B2     		uxtb	r1, r1
 559 0016 1420     		movs	r0, #20
 560              	.LVL76:
 561 0018 FFF7FEFF 		bl	PCD_WriteRegister
 562              	.LVL77:
 563              	.L38:
 564 001c 08BD     		pop	{r3, pc}
 565              		.cfi_endproc
 566              	.LFE73:
 567              		.size	PCD_AntennaOn, .-PCD_AntennaOn
 568 001e 00BF     		.section	.text.PCD_Init,"ax",%progbits
 569              		.align	2
 570              		.global	PCD_Init
 571              		.thumb
 572              		.thumb_func
 573              		.type	PCD_Init, %function
 574              	PCD_Init:
 575              	.LFB71:
 137:RC522.c       **** 	// Set the chipSelectPin as digital output, do not select the slave yet
 576              		.loc 1 137 0
 577              		.cfi_startproc
 578              		@ args = 0, pretend = 0, frame = 0
 579              		@ frame_needed = 0, uses_anonymous_args = 0
 580 0000 08B5     		push	{r3, lr}
 581              		.cfi_def_cfa_offset 8
 582              		.cfi_offset 3, -8
 583              		.cfi_offset 14, -4
 142:RC522.c       ****     
 584              		.loc 1 142 0
 585 0002 FFF7FEFF 		bl	RESET_Read
 586              	.LVL78:
 587 0006 50B9     		cbnz	r0, .L42
 144:RC522.c       ****     CyDelayUs(20);				// 8.8.1 Reset timing requirements says about 100ns. Let us be generous: 2?sl
 588              		.loc 1 144 0
 589 0008 FFF7FEFF 		bl	RESET_Write
 590              	.LVL79:
 145:RC522.c       ****     RESET_Write(1); // Exit power down mode. This triggers a hard reset.
 591              		.loc 1 145 0
 592 000c 1420     		movs	r0, #20
 593 000e FFF7FEFF 		bl	CyDelayUs
 594              	.LVL80:
 146:RC522.c       ****     CyDelay(50);//Delay 50 ms
 595              		.loc 1 146 0
 596 0012 0120     		movs	r0, #1
 597 0014 FFF7FEFF 		bl	RESET_Write
 598              	.LVL81:
 147:RC522.c       **** 	hardReset = true;   
 599              		.loc 1 147 0
ARM GAS  C:\Users\nikod\AppData\Local\Temp\ccxvSPxN.s 			page 15


 600 0018 3220     		movs	r0, #50
 601 001a FFF7FEFF 		bl	CyDelay
 602              	.LVL82:
 603              	.L42:
 154:RC522.c       **** 	PCD_WriteRegister(RxModeReg, 0x00);
 604              		.loc 1 154 0
 605 001e 0021     		movs	r1, #0
 606 0020 1220     		movs	r0, #18
 607 0022 FFF7FEFF 		bl	PCD_WriteRegister
 608              	.LVL83:
 155:RC522.c       **** 	// Reset ModWidthReg
 609              		.loc 1 155 0
 610 0026 0021     		movs	r1, #0
 611 0028 1320     		movs	r0, #19
 612 002a FFF7FEFF 		bl	PCD_WriteRegister
 613              	.LVL84:
 157:RC522.c       **** 	// When communicating with a PICC we need a timeout if something goes wrong.
 614              		.loc 1 157 0
 615 002e 2621     		movs	r1, #38
 616 0030 2420     		movs	r0, #36
 617 0032 FFF7FEFF 		bl	PCD_WriteRegister
 618              	.LVL85:
 161:RC522.c       **** 	PCD_WriteRegister(TPrescalerReg, 0xA9);		// TPreScaler = TModeReg[3..0]:TPrescalerReg, ie 0x0A9 = 
 619              		.loc 1 161 0
 620 0036 8021     		movs	r1, #128
 621 0038 2A20     		movs	r0, #42
 622 003a FFF7FEFF 		bl	PCD_WriteRegister
 623              	.LVL86:
 162:RC522.c       **** 	PCD_WriteRegister(TReloadRegH, 0x03);		// Reload timer with 0x3E8 = 1000, ie 25ms before timeout.
 624              		.loc 1 162 0
 625 003e A921     		movs	r1, #169
 626 0040 2B20     		movs	r0, #43
 627 0042 FFF7FEFF 		bl	PCD_WriteRegister
 628              	.LVL87:
 163:RC522.c       **** 	PCD_WriteRegister(TReloadRegL, 0xE8);
 629              		.loc 1 163 0
 630 0046 0321     		movs	r1, #3
 631 0048 2C20     		movs	r0, #44
 632 004a FFF7FEFF 		bl	PCD_WriteRegister
 633              	.LVL88:
 164:RC522.c       **** 	
 634              		.loc 1 164 0
 635 004e E821     		movs	r1, #232
 636 0050 2D20     		movs	r0, #45
 637 0052 FFF7FEFF 		bl	PCD_WriteRegister
 638              	.LVL89:
 166:RC522.c       **** 	PCD_WriteRegister(ModeReg, 0x3D);		// Default 0x3F. Set the preset value for the CRC coprocessor f
 639              		.loc 1 166 0
 640 0056 4021     		movs	r1, #64
 641 0058 1520     		movs	r0, #21
 642 005a FFF7FEFF 		bl	PCD_WriteRegister
 643              	.LVL90:
 167:RC522.c       **** 	PCD_AntennaOn();						// Enable the antenna driver pins TX1 and TX2 (they were disabled by the res
 644              		.loc 1 167 0
 645 005e 3D21     		movs	r1, #61
 646 0060 1120     		movs	r0, #17
 647 0062 FFF7FEFF 		bl	PCD_WriteRegister
ARM GAS  C:\Users\nikod\AppData\Local\Temp\ccxvSPxN.s 			page 16


 648              	.LVL91:
 168:RC522.c       **** } // End PCD_Init()
 649              		.loc 1 168 0
 650 0066 FFF7FEFF 		bl	PCD_AntennaOn
 651              	.LVL92:
 652 006a 08BD     		pop	{r3, pc}
 653              		.cfi_endproc
 654              	.LFE71:
 655              		.size	PCD_Init, .-PCD_Init
 656              		.section	.text.PCD_AntennaOff,"ax",%progbits
 657              		.align	2
 658              		.global	PCD_AntennaOff
 659              		.thumb
 660              		.thumb_func
 661              		.type	PCD_AntennaOff, %function
 662              	PCD_AntennaOff:
 663              	.LFB74:
 187:RC522.c       **** 	}
 188:RC522.c       **** } // End PCD_AntennaOn()
 189:RC522.c       **** 
 190:RC522.c       **** void PCD_AntennaOff(void) {
 664              		.loc 1 190 0
 665              		.cfi_startproc
 666              		@ args = 0, pretend = 0, frame = 0
 667              		@ frame_needed = 0, uses_anonymous_args = 0
 668 0000 08B5     		push	{r3, lr}
 669              		.cfi_def_cfa_offset 8
 670              		.cfi_offset 3, -8
 671              		.cfi_offset 14, -4
 191:RC522.c       **** 	PCD_ClearRegisterBitMask(TxControlReg, 0x03);
 672              		.loc 1 191 0
 673 0002 0321     		movs	r1, #3
 674 0004 1420     		movs	r0, #20
 675 0006 FFF7FEFF 		bl	PCD_ClearRegisterBitMask
 676              	.LVL93:
 677 000a 08BD     		pop	{r3, pc}
 678              		.cfi_endproc
 679              	.LFE74:
 680              		.size	PCD_AntennaOff, .-PCD_AntennaOff
 681              		.section	.text.PCD_GetAntennaGain,"ax",%progbits
 682              		.align	2
 683              		.global	PCD_GetAntennaGain
 684              		.thumb
 685              		.thumb_func
 686              		.type	PCD_GetAntennaGain, %function
 687              	PCD_GetAntennaGain:
 688              	.LFB75:
 192:RC522.c       **** } // End PCD_AntennaOff()
 193:RC522.c       **** 
 194:RC522.c       **** unsigned char PCD_GetAntennaGain() {
 689              		.loc 1 194 0
 690              		.cfi_startproc
 691              		@ args = 0, pretend = 0, frame = 0
 692              		@ frame_needed = 0, uses_anonymous_args = 0
 693 0000 08B5     		push	{r3, lr}
 694              		.cfi_def_cfa_offset 8
 695              		.cfi_offset 3, -8
ARM GAS  C:\Users\nikod\AppData\Local\Temp\ccxvSPxN.s 			page 17


 696              		.cfi_offset 14, -4
 195:RC522.c       **** 	return PCD_ReadRegister(RFCfgReg) & (0x07<<4);
 697              		.loc 1 195 0
 698 0002 2620     		movs	r0, #38
 699 0004 FFF7FEFF 		bl	PCD_ReadRegister
 700              	.LVL94:
 196:RC522.c       **** } // End PCD_GetAntennaGain()
 701              		.loc 1 196 0
 702 0008 00F07000 		and	r0, r0, #112
 703 000c 08BD     		pop	{r3, pc}
 704              		.cfi_endproc
 705              	.LFE75:
 706              		.size	PCD_GetAntennaGain, .-PCD_GetAntennaGain
 707 000e 00BF     		.section	.text.PCD_SetAntennaGain,"ax",%progbits
 708              		.align	2
 709              		.global	PCD_SetAntennaGain
 710              		.thumb
 711              		.thumb_func
 712              		.type	PCD_SetAntennaGain, %function
 713              	PCD_SetAntennaGain:
 714              	.LFB76:
 197:RC522.c       **** 
 198:RC522.c       **** void PCD_SetAntennaGain(unsigned char mask) {
 715              		.loc 1 198 0
 716              		.cfi_startproc
 717              		@ args = 0, pretend = 0, frame = 0
 718              		@ frame_needed = 0, uses_anonymous_args = 0
 719              	.LVL95:
 720 0000 10B5     		push	{r4, lr}
 721              		.cfi_def_cfa_offset 8
 722              		.cfi_offset 4, -8
 723              		.cfi_offset 14, -4
 724 0002 0446     		mov	r4, r0
 199:RC522.c       **** 	if (PCD_GetAntennaGain() != mask) {						// only bother if there is a change
 725              		.loc 1 199 0
 726 0004 FFF7FEFF 		bl	PCD_GetAntennaGain
 727              	.LVL96:
 728 0008 A042     		cmp	r0, r4
 729 000a 08D0     		beq	.L48
 200:RC522.c       **** 		PCD_ClearRegisterBitMask(RFCfgReg, (0x07<<4));		// clear needed to allow 000 pattern
 730              		.loc 1 200 0
 731 000c 7021     		movs	r1, #112
 732 000e 2620     		movs	r0, #38
 733 0010 FFF7FEFF 		bl	PCD_ClearRegisterBitMask
 734              	.LVL97:
 201:RC522.c       **** 		PCD_SetRegisterBitMask(RFCfgReg, mask & (0x07<<4));	// only set RxGain[2:0] bits
 735              		.loc 1 201 0
 736 0014 04F07001 		and	r1, r4, #112
 737 0018 2620     		movs	r0, #38
 738 001a FFF7FEFF 		bl	PCD_SetRegisterBitMask
 739              	.LVL98:
 740              	.L48:
 741 001e 10BD     		pop	{r4, pc}
 742              		.cfi_endproc
 743              	.LFE76:
 744              		.size	PCD_SetAntennaGain, .-PCD_SetAntennaGain
 745              		.section	.text.PCD_PerformSelfTest,"ax",%progbits
ARM GAS  C:\Users\nikod\AppData\Local\Temp\ccxvSPxN.s 			page 18


 746              		.align	2
 747              		.global	PCD_PerformSelfTest
 748              		.thumb
 749              		.thumb_func
 750              		.type	PCD_PerformSelfTest, %function
 751              	PCD_PerformSelfTest:
 752              	.LFB77:
 202:RC522.c       **** 	}
 203:RC522.c       **** } // End PCD_SetAntennaGain()
 204:RC522.c       **** 
 205:RC522.c       **** bool PCD_PerformSelfTest(void) {
 753              		.loc 1 205 0
 754              		.cfi_startproc
 755              		@ args = 0, pretend = 0, frame = 96
 756              		@ frame_needed = 0, uses_anonymous_args = 0
 757 0000 10B5     		push	{r4, lr}
 758              		.cfi_def_cfa_offset 8
 759              		.cfi_offset 4, -8
 760              		.cfi_offset 14, -4
 761 0002 98B0     		sub	sp, sp, #96
 762              		.cfi_def_cfa_offset 104
 206:RC522.c       **** 	// This follows directly the steps outlined in 16.1.1
 207:RC522.c       **** 	// 1. Perform a soft reset.
 208:RC522.c       **** 	PCD_Reset();
 763              		.loc 1 208 0
 764 0004 FFF7FEFF 		bl	PCD_Reset
 765              	.LVL99:
 209:RC522.c       **** 	// 2. Clear the internal buffer by writing 25 bytes of 00h
 210:RC522.c       **** 	unsigned char ZEROES[25] = {0x00};
 766              		.loc 1 210 0
 767 0008 0024     		movs	r4, #0
 768 000a 1194     		str	r4, [sp, #68]
 769 000c 1294     		str	r4, [sp, #72]
 770 000e 1394     		str	r4, [sp, #76]
 771 0010 1494     		str	r4, [sp, #80]
 772 0012 1594     		str	r4, [sp, #84]
 773 0014 1694     		str	r4, [sp, #88]
 774 0016 8DF85C40 		strb	r4, [sp, #92]
 211:RC522.c       **** 	PCD_WriteRegister(FIFOLevelReg, 0x80);		// flush the FIFO buffer
 775              		.loc 1 211 0
 776 001a 8021     		movs	r1, #128
 777 001c 0A20     		movs	r0, #10
 778 001e FFF7FEFF 		bl	PCD_WriteRegister
 779              	.LVL100:
 212:RC522.c       **** 	PCD_WriteRegisters(FIFODataReg, 25, ZEROES);	// write 25 bytes of 00h to FIFO
 780              		.loc 1 212 0
 781 0022 11AA     		add	r2, sp, #68
 782 0024 1921     		movs	r1, #25
 783 0026 0920     		movs	r0, #9
 784 0028 FFF7FEFF 		bl	PCD_WriteRegisters
 785              	.LVL101:
 213:RC522.c       **** 	PCD_WriteRegister(CommandReg, PCD_Mem);		// transfer to internal buffer
 786              		.loc 1 213 0
 787 002c 0121     		movs	r1, #1
 788 002e 0846     		mov	r0, r1
 789 0030 FFF7FEFF 		bl	PCD_WriteRegister
 790              	.LVL102:
ARM GAS  C:\Users\nikod\AppData\Local\Temp\ccxvSPxN.s 			page 19


 214:RC522.c       **** 	
 215:RC522.c       **** 	// 3. Enable self-test
 216:RC522.c       **** 	PCD_WriteRegister(AutoTestReg, 0x09);
 791              		.loc 1 216 0
 792 0034 0921     		movs	r1, #9
 793 0036 3620     		movs	r0, #54
 794 0038 FFF7FEFF 		bl	PCD_WriteRegister
 795              	.LVL103:
 217:RC522.c       **** 	
 218:RC522.c       **** 	// 4. Write 00h to FIFO buffer
 219:RC522.c       **** 	PCD_WriteRegister(FIFODataReg, 0x00);
 796              		.loc 1 219 0
 797 003c 2146     		mov	r1, r4
 798 003e 0920     		movs	r0, #9
 799 0040 FFF7FEFF 		bl	PCD_WriteRegister
 800              	.LVL104:
 220:RC522.c       **** 	
 221:RC522.c       **** 	// 5. Start self-test by issuing the CalcCRC command
 222:RC522.c       **** 	PCD_WriteRegister(CommandReg, PCD_CalcCRC);
 801              		.loc 1 222 0
 802 0044 0321     		movs	r1, #3
 803 0046 0120     		movs	r0, #1
 804 0048 FFF7FEFF 		bl	PCD_WriteRegister
 805              	.LVL105:
 806              	.LBB6:
 223:RC522.c       **** 	
 224:RC522.c       **** 	// 6. Wait for self-test to complete
 225:RC522.c       **** 	unsigned char n;
 226:RC522.c       **** 	for (uint8_t i = 0; i < 0xFF; i++) {
 807              		.loc 1 226 0
 808 004c 06E0     		b	.L52
 809              	.LVL106:
 810              	.L54:
 227:RC522.c       **** 		// The datasheet does not specify exact completion condition except
 228:RC522.c       **** 		// that FIFO buffer should contain 64 bytes.
 229:RC522.c       **** 		// While selftest is initiated by CalcCRC command
 230:RC522.c       **** 		// it behaves differently from normal CRC computation,
 231:RC522.c       **** 		// so one can't reliably use DivIrqReg to check for completion.
 232:RC522.c       **** 		// It is reported that some devices does not trigger CRCIRq flag
 233:RC522.c       **** 		// during selftest.
 234:RC522.c       **** 		n = PCD_ReadRegister(FIFOLevelReg);
 811              		.loc 1 234 0
 812 004e 0A20     		movs	r0, #10
 813 0050 FFF7FEFF 		bl	PCD_ReadRegister
 814              	.LVL107:
 235:RC522.c       **** 		if (n >= 64) {
 815              		.loc 1 235 0
 816 0054 3F28     		cmp	r0, #63
 817 0056 03D8     		bhi	.L53
 226:RC522.c       **** 		// The datasheet does not specify exact completion condition except
 818              		.loc 1 226 0 discriminator 2
 819 0058 0134     		adds	r4, r4, #1
 820              	.LVL108:
 821 005a E4B2     		uxtb	r4, r4
 822              	.LVL109:
 823              	.L52:
 226:RC522.c       **** 		// The datasheet does not specify exact completion condition except
ARM GAS  C:\Users\nikod\AppData\Local\Temp\ccxvSPxN.s 			page 20


 824              		.loc 1 226 0 is_stmt 0 discriminator 1
 825 005c FF2C     		cmp	r4, #255
 826 005e F6D1     		bne	.L54
 827              	.L53:
 828              	.LBE6:
 236:RC522.c       **** 			break;
 237:RC522.c       **** 		}
 238:RC522.c       **** 	}
 239:RC522.c       **** 	PCD_WriteRegister(CommandReg, PCD_Idle);		// Stop calculating CRC for new content in the FIFO.
 829              		.loc 1 239 0 is_stmt 1
 830 0060 0021     		movs	r1, #0
 831 0062 0120     		movs	r0, #1
 832 0064 FFF7FEFF 		bl	PCD_WriteRegister
 833              	.LVL110:
 240:RC522.c       **** 	
 241:RC522.c       **** 	// 7. Read out resulting 64 bytes from the FIFO buffer.
 242:RC522.c       **** 	unsigned char result[64];
 243:RC522.c       **** 	PCD_ReadRegisters(FIFODataReg, 64, result, 0);
 834              		.loc 1 243 0
 835 0068 0023     		movs	r3, #0
 836 006a 01AA     		add	r2, sp, #4
 837 006c 4021     		movs	r1, #64
 838 006e 0920     		movs	r0, #9
 839 0070 FFF7FEFF 		bl	PCD_ReadRegisters
 840              	.LVL111:
 244:RC522.c       **** 	
 245:RC522.c       **** 	// Auto self-test done
 246:RC522.c       **** 	// Reset AutoTestReg register to be 0 again. Required for normal operation.
 247:RC522.c       **** 	PCD_WriteRegister(AutoTestReg, 0x00);
 841              		.loc 1 247 0
 842 0074 0021     		movs	r1, #0
 843 0076 3620     		movs	r0, #54
 844 0078 FFF7FEFF 		bl	PCD_WriteRegister
 845              	.LVL112:
 248:RC522.c       **** 	
 249:RC522.c       **** 	// Determine firmware version (see section 9.3.4.8 in spec)
 250:RC522.c       **** 	unsigned char version = PCD_ReadRegister(VersionReg);
 846              		.loc 1 250 0
 847 007c 3720     		movs	r0, #55
 848 007e FFF7FEFF 		bl	PCD_ReadRegister
 849              	.LVL113:
 251:RC522.c       **** 	
 252:RC522.c       **** 	// Pick the appropriate reference values
 253:RC522.c       **** 	const unsigned char *reference;
 254:RC522.c       **** 	switch (version) {
 850              		.loc 1 254 0
 851 0082 8828     		cmp	r0, #136
 852 0084 05D0     		beq	.L57
 853 0086 02D3     		bcc	.L55
 854 0088 9038     		subs	r0, r0, #144
 855              	.LVL114:
 856 008a 0228     		cmp	r0, #2
 857 008c 01D9     		bls	.L57
 858              	.L55:
 255:RC522.c       **** 		case 0x88:	// Fudan Semiconductor FM17522 clone
 256:RC522.c       **** 			reference = FM17522_firmware_reference;
 257:RC522.c       **** 			break;
ARM GAS  C:\Users\nikod\AppData\Local\Temp\ccxvSPxN.s 			page 21


 258:RC522.c       **** 		case 0x90:	// Version 0.0
 259:RC522.c       **** 			reference = MFRC522_firmware_referenceV0_0;
 260:RC522.c       **** 			break;
 261:RC522.c       **** 		case 0x91:	// Version 1.0
 262:RC522.c       **** 			reference = MFRC522_firmware_referenceV1_0;
 263:RC522.c       **** 			break;
 264:RC522.c       **** 		case 0x92:	// Version 2.0
 265:RC522.c       **** 			reference = MFRC522_firmware_referenceV2_0;
 266:RC522.c       **** 			break;
 267:RC522.c       **** 		default:	// Unknown version
 268:RC522.c       **** 			return false; // abort test
 859              		.loc 1 268 0
 860 008e 0020     		movs	r0, #0
 861 0090 00E0     		b	.L56
 862              	.L57:
 269:RC522.c       **** 	}
 270:RC522.c       **** 	
 271:RC522.c       **** 	// Test passed; all is good.
 272:RC522.c       **** 	return true;
 863              		.loc 1 272 0
 864 0092 0120     		movs	r0, #1
 865              	.L56:
 273:RC522.c       **** } // End PCD_PerformSelfTest()
 866              		.loc 1 273 0
 867 0094 18B0     		add	sp, sp, #96
 868              		.cfi_def_cfa_offset 8
 869              		@ sp needed
 870 0096 10BD     		pop	{r4, pc}
 871              		.cfi_endproc
 872              	.LFE77:
 873              		.size	PCD_PerformSelfTest, .-PCD_PerformSelfTest
 874              		.section	.text.PCD_SoftPowerDown,"ax",%progbits
 875              		.align	2
 876              		.global	PCD_SoftPowerDown
 877              		.thumb
 878              		.thumb_func
 879              		.type	PCD_SoftPowerDown, %function
 880              	PCD_SoftPowerDown:
 881              	.LFB78:
 274:RC522.c       **** 
 275:RC522.c       **** 
 276:RC522.c       **** void PCD_SoftPowerDown(void){//Note : Only soft power down mode is available throught software
 882              		.loc 1 276 0
 883              		.cfi_startproc
 884              		@ args = 0, pretend = 0, frame = 0
 885              		@ frame_needed = 0, uses_anonymous_args = 0
 886 0000 08B5     		push	{r3, lr}
 887              		.cfi_def_cfa_offset 8
 888              		.cfi_offset 3, -8
 889              		.cfi_offset 14, -4
 277:RC522.c       **** 	unsigned char val = PCD_ReadRegister(CommandReg); // Read state of the command register 
 890              		.loc 1 277 0
 891 0002 0120     		movs	r0, #1
 892 0004 FFF7FEFF 		bl	PCD_ReadRegister
 893              	.LVL115:
 278:RC522.c       **** 	val |= (1<<4);// set PowerDown bit ( bit 4 ) to 1 
 894              		.loc 1 278 0
ARM GAS  C:\Users\nikod\AppData\Local\Temp\ccxvSPxN.s 			page 22


 895 0008 40F01001 		orr	r1, r0, #16
 896              	.LVL116:
 279:RC522.c       **** 	PCD_WriteRegister(CommandReg, val);//write new value to the command register
 897              		.loc 1 279 0
 898 000c C9B2     		uxtb	r1, r1
 899 000e 0120     		movs	r0, #1
 900 0010 FFF7FEFF 		bl	PCD_WriteRegister
 901              	.LVL117:
 902 0014 08BD     		pop	{r3, pc}
 903              		.cfi_endproc
 904              	.LFE78:
 905              		.size	PCD_SoftPowerDown, .-PCD_SoftPowerDown
 906 0016 00BF     		.section	.text.PCD_SoftPowerUp,"ax",%progbits
 907              		.align	2
 908              		.global	PCD_SoftPowerUp
 909              		.thumb
 910              		.thumb_func
 911              		.type	PCD_SoftPowerUp, %function
 912              	PCD_SoftPowerUp:
 913              	.LFB79:
 280:RC522.c       **** }
 281:RC522.c       **** 
 282:RC522.c       **** void PCD_SoftPowerUp(void){
 914              		.loc 1 282 0
 915              		.cfi_startproc
 916              		@ args = 0, pretend = 0, frame = 0
 917              		@ frame_needed = 0, uses_anonymous_args = 0
 918 0000 10B5     		push	{r4, lr}
 919              		.cfi_def_cfa_offset 8
 920              		.cfi_offset 4, -8
 921              		.cfi_offset 14, -4
 283:RC522.c       **** 	unsigned char val = PCD_ReadRegister(CommandReg); // Read state of the command register 
 922              		.loc 1 283 0
 923 0002 0120     		movs	r0, #1
 924 0004 FFF7FEFF 		bl	PCD_ReadRegister
 925              	.LVL118:
 284:RC522.c       **** 	val &= ~(1<<4);// set PowerDown bit ( bit 4 ) to 0 
 285:RC522.c       **** 	PCD_WriteRegister(CommandReg, val);//write new value to the command register
 926              		.loc 1 285 0
 927 0008 00F0EF01 		and	r1, r0, #239
 928 000c 0120     		movs	r0, #1
 929              	.LVL119:
 930 000e FFF7FEFF 		bl	PCD_WriteRegister
 931              	.LVL120:
 286:RC522.c       **** 	// wait until PowerDown bit is cleared (this indicates end of wake up procedure) 
 287:RC522.c       **** 	uint16_t i=0;
 932              		.loc 1 287 0
 933 0012 0024     		movs	r4, #0
 288:RC522.c       **** 	while(i<=500){ // set timeout to 500 ms 
 934              		.loc 1 288 0
 935 0014 0AE0     		b	.L62
 936              	.LVL121:
 937              	.L64:
 289:RC522.c       **** 		val = PCD_ReadRegister(CommandReg);// Read state of the command register
 938              		.loc 1 289 0
 939 0016 0120     		movs	r0, #1
 940 0018 FFF7FEFF 		bl	PCD_ReadRegister
ARM GAS  C:\Users\nikod\AppData\Local\Temp\ccxvSPxN.s 			page 23


 941              	.LVL122:
 290:RC522.c       **** 		if(!(val & (1<<4))){ // if powerdown bit is 0 
 942              		.loc 1 290 0
 943 001c 10F0100F 		tst	r0, #16
 944 0020 07D0     		beq	.L61
 291:RC522.c       **** 			break;// wake up procedure is finished 
 292:RC522.c       **** 		}
 293:RC522.c       ****         i=i+1;
 945              		.loc 1 293 0
 946 0022 0134     		adds	r4, r4, #1
 947              	.LVL123:
 948 0024 A4B2     		uxth	r4, r4
 949              	.LVL124:
 294:RC522.c       ****         CyDelay(1);
 950              		.loc 1 294 0
 951 0026 0120     		movs	r0, #1
 952              	.LVL125:
 953 0028 FFF7FEFF 		bl	CyDelay
 954              	.LVL126:
 955              	.L62:
 288:RC522.c       **** 		val = PCD_ReadRegister(CommandReg);// Read state of the command register
 956              		.loc 1 288 0
 957 002c B4F5FA7F 		cmp	r4, #500
 958 0030 F1D9     		bls	.L64
 959              	.L61:
 960 0032 10BD     		pop	{r4, pc}
 961              		.cfi_endproc
 962              	.LFE79:
 963              		.size	PCD_SoftPowerUp, .-PCD_SoftPowerUp
 964              		.section	.text.PCD_CommunicateWithPICC,"ax",%progbits
 965              		.align	2
 966              		.global	PCD_CommunicateWithPICC
 967              		.thumb
 968              		.thumb_func
 969              		.type	PCD_CommunicateWithPICC, %function
 970              	PCD_CommunicateWithPICC:
 971              	.LFB81:
 295:RC522.c       **** 	}
 296:RC522.c       **** }
 297:RC522.c       **** 
 298:RC522.c       **** unsigned char PCD_TransceiveData(unsigned char *sendData,		///< Pointer to the data to transfer to 
 299:RC522.c       ****                                 unsigned char sendLen,		///< Number of bytes to transfer to the FIF
 300:RC522.c       **** 								unsigned char *backData,		///< nullptr or pointer to buffer if data should be read back aft
 301:RC522.c       **** 								unsigned char *backLen,		///< In: Max number of unsigned chars to write to *backData. Out: 
 302:RC522.c       **** 								unsigned char *validBits,	///< In/Out: The number of valid bits in the last byte. 0 for 8 v
 303:RC522.c       **** 								unsigned char rxAlign,		///< In: Defines the bit position in backData[0] for the first bit 
 304:RC522.c       **** 								bool checkCRC		///< In: True => The last two bytes of the response is assumed to be a CRC_A
 305:RC522.c       **** 								 ) {
 306:RC522.c       **** 	unsigned char waitIRq = 0x30;		// RxIRq and IdleIRq
 307:RC522.c       **** 	return PCD_CommunicateWithPICC(PCD_Transceive, waitIRq, sendData, sendLen, backData, backLen, vali
 308:RC522.c       **** } // End PCD_TransceiveData()
 309:RC522.c       **** 
 310:RC522.c       **** unsigned char PCD_CommunicateWithPICC(	unsigned char command,		///< The command to execute. One of 
 311:RC522.c       **** 														unsigned char waitIRq,		///< The bits in the ComIrqReg register that signals successf
 312:RC522.c       **** 														unsigned char *sendData,		///< Pointer to the data to transfer to the FIFO.
 313:RC522.c       **** 														unsigned char sendLen,		///< Number of unsigned chars to transfer to the FIFO.
 314:RC522.c       **** 														unsigned char *backData,		///< nullptr or pointer to buffer if data should be read ba
ARM GAS  C:\Users\nikod\AppData\Local\Temp\ccxvSPxN.s 			page 24


 315:RC522.c       **** 														unsigned char *backLen,		///< In: Max number of bytes to write to *backData. Out: The
 316:RC522.c       **** 														unsigned char *validBits,	///< In/Out: The number of valid bits in the last byte. 0 f
 317:RC522.c       **** 														unsigned char rxAlign,		///< In: Defines the bit position in backData[0] for the firs
 318:RC522.c       **** 														bool checkCRC		///< In: True => The last two bytes of the response is assumed to be a
 319:RC522.c       **** 									 ) {
 972              		.loc 1 319 0
 973              		.cfi_startproc
 974              		@ args = 20, pretend = 0, frame = 8
 975              		@ frame_needed = 0, uses_anonymous_args = 0
 976              	.LVL127:
 977 0000 2DE9F047 		push	{r4, r5, r6, r7, r8, r9, r10, lr}
 978              		.cfi_def_cfa_offset 32
 979              		.cfi_offset 4, -32
 980              		.cfi_offset 5, -28
 981              		.cfi_offset 6, -24
 982              		.cfi_offset 7, -20
 983              		.cfi_offset 8, -16
 984              		.cfi_offset 9, -12
 985              		.cfi_offset 10, -8
 986              		.cfi_offset 14, -4
 987 0004 82B0     		sub	sp, sp, #8
 988              		.cfi_def_cfa_offset 40
 989 0006 8046     		mov	r8, r0
 990 0008 9246     		mov	r10, r2
 991 000a 9946     		mov	r9, r3
 992 000c 0C9D     		ldr	r5, [sp, #48]
 993 000e 9DF83460 		ldrb	r6, [sp, #52]	@ zero_extendqisi2
 994 0012 9DF83870 		ldrb	r7, [sp, #56]	@ zero_extendqisi2
 320:RC522.c       **** 	// Prepare values for BitFramingReg
 321:RC522.c       **** 	unsigned char txLastBits = validBits ? *validBits : 0;
 995              		.loc 1 321 0
 996 0016 0DB1     		cbz	r5, .L76
 997              		.loc 1 321 0 is_stmt 0 discriminator 1
 998 0018 2C78     		ldrb	r4, [r5]	@ zero_extendqisi2
 999 001a 00E0     		b	.L67
 1000              	.L76:
 1001              		.loc 1 321 0
 1002 001c 0024     		movs	r4, #0
 1003              	.L67:
 1004              	.LVL128:
 322:RC522.c       **** 	unsigned char bitFraming = (rxAlign << 4) + txLastBits;		// RxAlign = BitFramingReg[6..4]. TxLastB
 1005              		.loc 1 322 0 is_stmt 1 discriminator 4
 1006 001e 04EB0614 		add	r4, r4, r6, lsl #4
 1007              	.LVL129:
 1008 0022 E4B2     		uxtb	r4, r4
 1009              	.LVL130:
 323:RC522.c       **** 	
 324:RC522.c       **** 	PCD_WriteRegister(CommandReg, PCD_Idle);			// Stop any active command.
 1010              		.loc 1 324 0 discriminator 4
 1011 0024 0021     		movs	r1, #0
 1012              	.LVL131:
 1013 0026 0120     		movs	r0, #1
 1014              	.LVL132:
 1015 0028 FFF7FEFF 		bl	PCD_WriteRegister
 1016              	.LVL133:
 325:RC522.c       **** 	PCD_WriteRegister(ComIrqReg, 0x7F);					// Clear all seven interrupt request bits
 1017              		.loc 1 325 0 discriminator 4
ARM GAS  C:\Users\nikod\AppData\Local\Temp\ccxvSPxN.s 			page 25


 1018 002c 7F21     		movs	r1, #127
 1019 002e 0420     		movs	r0, #4
 1020 0030 FFF7FEFF 		bl	PCD_WriteRegister
 1021              	.LVL134:
 326:RC522.c       **** 	PCD_WriteRegister(FIFOLevelReg, 0x80);				// FlushBuffer = 1, FIFO initialization
 1022              		.loc 1 326 0 discriminator 4
 1023 0034 8021     		movs	r1, #128
 1024 0036 0A20     		movs	r0, #10
 1025 0038 FFF7FEFF 		bl	PCD_WriteRegister
 1026              	.LVL135:
 327:RC522.c       **** 	PCD_WriteRegisters(FIFODataReg, sendLen, sendData);	// Write sendData to the FIFO
 1027              		.loc 1 327 0 discriminator 4
 1028 003c 5246     		mov	r2, r10
 1029 003e 4946     		mov	r1, r9
 1030 0040 0920     		movs	r0, #9
 1031 0042 FFF7FEFF 		bl	PCD_WriteRegisters
 1032              	.LVL136:
 328:RC522.c       **** 	PCD_WriteRegister(BitFramingReg, bitFraming);		// Bit adjustments
 1033              		.loc 1 328 0 discriminator 4
 1034 0046 2146     		mov	r1, r4
 1035 0048 0D20     		movs	r0, #13
 1036 004a FFF7FEFF 		bl	PCD_WriteRegister
 1037              	.LVL137:
 329:RC522.c       **** 	PCD_WriteRegister(CommandReg, command);				// Execute the command
 1038              		.loc 1 329 0 discriminator 4
 1039 004e 4146     		mov	r1, r8
 1040 0050 0120     		movs	r0, #1
 1041 0052 FFF7FEFF 		bl	PCD_WriteRegister
 1042              	.LVL138:
 330:RC522.c       **** 	if (command == PCD_Transceive) {
 1043              		.loc 1 330 0 discriminator 4
 1044 0056 B8F10C0F 		cmp	r8, #12
 1045 005a 03D1     		bne	.L68
 331:RC522.c       **** 		PCD_SetRegisterBitMask(BitFramingReg, 0x80);	// StartSend=1, transmission of data starts
 1046              		.loc 1 331 0
 1047 005c 8021     		movs	r1, #128
 1048 005e 0D20     		movs	r0, #13
 1049 0060 FFF7FEFF 		bl	PCD_SetRegisterBitMask
 1050              	.LVL139:
 1051              	.L68:
 321:RC522.c       **** 	unsigned char bitFraming = (rxAlign << 4) + txLastBits;		// RxAlign = BitFramingReg[6..4]. TxLastB
 1052              		.loc 1 321 0 discriminator 1
 1053 0064 4FF4FA64 		mov	r4, #2000
 1054              	.LVL140:
 1055 0068 09E0     		b	.L69
 1056              	.LVL141:
 1057              	.L72:
 332:RC522.c       **** 	}
 333:RC522.c       **** 	
 334:RC522.c       **** 	// Wait for the command to complete.
 335:RC522.c       **** 	// In PCD_Init() we set the TAuto flag in TModeReg. This means the timer automatically starts when
 336:RC522.c       **** 	// Each iteration of the do-while-loop takes 17.86?s.
 337:RC522.c       **** 	// TODO check/modify for other architectures than Arduino Uno 16bit
 338:RC522.c       **** 	uint16_t i;
 339:RC522.c       ****     unsigned char n;
 340:RC522.c       **** 	for (i = 2000; i > 0; i--) {
 341:RC522.c       **** 		n = PCD_ReadRegister(ComIrqReg);	// ComIrqReg[7..0] bits are: Set1 TxIRq RxIRq IdleIRq HiAlertIRq
ARM GAS  C:\Users\nikod\AppData\Local\Temp\ccxvSPxN.s 			page 26


 1058              		.loc 1 341 0
 1059 006a 0420     		movs	r0, #4
 1060 006c FFF7FEFF 		bl	PCD_ReadRegister
 1061              	.LVL142:
 342:RC522.c       **** 		if (n == 0x64) {					// One of the interrupts that signal success has been set.
 1062              		.loc 1 342 0
 1063 0070 6428     		cmp	r0, #100
 1064 0072 06D0     		beq	.L70
 343:RC522.c       ****             break;
 344:RC522.c       **** 		}
 345:RC522.c       **** 		if (n & 0x01) {						// Timer interrupt - nothing received in 25ms
 1065              		.loc 1 345 0
 1066 0074 10F0010F 		tst	r0, #1
 1067 0078 64D1     		bne	.L77
 340:RC522.c       **** 		n = PCD_ReadRegister(ComIrqReg);	// ComIrqReg[7..0] bits are: Set1 TxIRq RxIRq IdleIRq HiAlertIRq
 1068              		.loc 1 340 0 discriminator 2
 1069 007a 013C     		subs	r4, r4, #1
 1070              	.LVL143:
 1071 007c A4B2     		uxth	r4, r4
 1072              	.LVL144:
 1073              	.L69:
 340:RC522.c       **** 		n = PCD_ReadRegister(ComIrqReg);	// ComIrqReg[7..0] bits are: Set1 TxIRq RxIRq IdleIRq HiAlertIRq
 1074              		.loc 1 340 0 is_stmt 0 discriminator 1
 1075 007e 002C     		cmp	r4, #0
 1076 0080 F3D1     		bne	.L72
 1077              	.L70:
 346:RC522.c       **** 			return STATUS_TIMEOUT;
 347:RC522.c       **** 		}
 348:RC522.c       **** 	}
 349:RC522.c       **** 	// 35.7ms and nothing happend. Communication with the MFRC522 might be down.
 350:RC522.c       **** 	if (i == 0) {
 1078              		.loc 1 350 0 is_stmt 1
 1079 0082 002C     		cmp	r4, #0
 1080 0084 60D0     		beq	.L78
 351:RC522.c       **** 		return STATUS_TIMEOUT;
 352:RC522.c       **** 	}
 353:RC522.c       **** 	
 354:RC522.c       **** 	// Stop now if any errors except collisions were detected.
 355:RC522.c       **** 	unsigned char errorRegValue = PCD_ReadRegister(ErrorReg); // ErrorReg[7..0] bits are: WrErr TempEr
 1081              		.loc 1 355 0
 1082 0086 0620     		movs	r0, #6
 1083 0088 FFF7FEFF 		bl	PCD_ReadRegister
 1084              	.LVL145:
 1085 008c 0446     		mov	r4, r0
 1086              	.LVL146:
 356:RC522.c       **** 	if (errorRegValue & 0x13) {	 // BufferOvfl ParityErr ProtocolErr
 1087              		.loc 1 356 0
 1088 008e 10F0130F 		tst	r0, #19
 1089 0092 5BD1     		bne	.L79
 1090              	.LVL147:
 357:RC522.c       **** 		return STATUS_ERROR;
 358:RC522.c       **** 	}
 359:RC522.c       ****   
 360:RC522.c       **** 	unsigned char _validBits = 0;
 361:RC522.c       **** 	
 362:RC522.c       **** 	// If the caller wants data back, get it from the MFRC522.
 363:RC522.c       **** 	if (backData && backLen) {
ARM GAS  C:\Users\nikod\AppData\Local\Temp\ccxvSPxN.s 			page 27


 1091              		.loc 1 363 0
 1092 0094 0A9B     		ldr	r3, [sp, #40]
 1093 0096 C3B1     		cbz	r3, .L80
 1094              		.loc 1 363 0 is_stmt 0 discriminator 1
 1095 0098 0B9B     		ldr	r3, [sp, #44]
 1096 009a C3B1     		cbz	r3, .L81
 1097              	.LBB7:
 364:RC522.c       **** 		unsigned char n = PCD_ReadRegister(FIFOLevelReg);	// Number of bytes in the FIFO
 1098              		.loc 1 364 0 is_stmt 1
 1099 009c 0A20     		movs	r0, #10
 1100              	.LVL148:
 1101 009e FFF7FEFF 		bl	PCD_ReadRegister
 1102              	.LVL149:
 365:RC522.c       **** 		if (n > *backLen) {
 1103              		.loc 1 365 0
 1104 00a2 0B9B     		ldr	r3, [sp, #44]
 1105 00a4 1B78     		ldrb	r3, [r3]	@ zero_extendqisi2
 1106 00a6 9842     		cmp	r0, r3
 1107 00a8 52D8     		bhi	.L82
 366:RC522.c       **** 			return STATUS_NO_ROOM;
 367:RC522.c       **** 		}
 368:RC522.c       **** 		*backLen = n;											// Number of bytes returned
 1108              		.loc 1 368 0
 1109 00aa 0B9B     		ldr	r3, [sp, #44]
 1110 00ac 1870     		strb	r0, [r3]
 369:RC522.c       **** 		PCD_ReadRegisters(FIFODataReg, n, backData, rxAlign);	// Get received data from FIFO
 1111              		.loc 1 369 0
 1112 00ae 3346     		mov	r3, r6
 1113 00b0 0A9A     		ldr	r2, [sp, #40]
 1114 00b2 0146     		mov	r1, r0
 1115 00b4 0920     		movs	r0, #9
 1116              	.LVL150:
 1117 00b6 FFF7FEFF 		bl	PCD_ReadRegisters
 1118              	.LVL151:
 370:RC522.c       **** 		_validBits = PCD_ReadRegister(ControlReg) & 0x07;		// RxLastBits[2:0] indicates the number of val
 1119              		.loc 1 370 0
 1120 00ba 0C20     		movs	r0, #12
 1121 00bc FFF7FEFF 		bl	PCD_ReadRegister
 1122              	.LVL152:
 1123 00c0 00F00700 		and	r0, r0, #7
 1124              	.LVL153:
 371:RC522.c       **** 		if (validBits) {
 1125              		.loc 1 371 0
 1126 00c4 25B1     		cbz	r5, .L73
 372:RC522.c       **** 			*validBits = _validBits;
 1127              		.loc 1 372 0
 1128 00c6 2870     		strb	r0, [r5]
 1129 00c8 02E0     		b	.L73
 1130              	.LVL154:
 1131              	.L80:
 1132              	.LBE7:
 360:RC522.c       **** 	
 1133              		.loc 1 360 0
 1134 00ca 0020     		movs	r0, #0
 1135              	.LVL155:
 1136 00cc 00E0     		b	.L73
 1137              	.LVL156:
ARM GAS  C:\Users\nikod\AppData\Local\Temp\ccxvSPxN.s 			page 28


 1138              	.L81:
 1139 00ce 0020     		movs	r0, #0
 1140              	.LVL157:
 1141              	.L73:
 1142 00d0 04F00803 		and	r3, r4, #8
 373:RC522.c       **** 		}
 374:RC522.c       **** 	}
 375:RC522.c       **** 	
 376:RC522.c       **** 	// Tell about collisions
 377:RC522.c       **** 	if (errorRegValue & 0x08) {		// CollErr
 1143              		.loc 1 377 0
 1144 00d4 03F0FF04 		and	r4, r3, #255
 1145 00d8 002B     		cmp	r3, #0
 1146 00da 3BD1     		bne	.L83
 378:RC522.c       **** 		return STATUS_COLLISION;
 379:RC522.c       **** 	}
 380:RC522.c       **** 	
 381:RC522.c       **** 	// Perform CRC_A validation if requested.
 382:RC522.c       **** 	if (backData && backLen && checkCRC) {
 1147              		.loc 1 382 0
 1148 00dc 0A9B     		ldr	r3, [sp, #40]
 1149 00de 002B     		cmp	r3, #0
 1150 00e0 39D0     		beq	.L71
 1151              		.loc 1 382 0 is_stmt 0 discriminator 1
 1152 00e2 0B9B     		ldr	r3, [sp, #44]
 1153 00e4 BBB3     		cbz	r3, .L71
 1154              		.loc 1 382 0 discriminator 2
 1155 00e6 B7B3     		cbz	r7, .L71
 1156              	.LBB8:
 383:RC522.c       **** 		// In this case a MIFARE Classic NAK is not OK.
 384:RC522.c       **** 		if (*backLen == 1 && _validBits == 4) {
 1157              		.loc 1 384 0 is_stmt 1
 1158 00e8 1B78     		ldrb	r3, [r3]	@ zero_extendqisi2
 1159 00ea 012B     		cmp	r3, #1
 1160 00ec 01D1     		bne	.L74
 1161              		.loc 1 384 0 is_stmt 0 discriminator 1
 1162 00ee 0428     		cmp	r0, #4
 1163 00f0 1CD0     		beq	.L84
 1164              	.L74:
 385:RC522.c       **** 			return STATUS_MIFARE_NACK;
 386:RC522.c       **** 		}
 387:RC522.c       **** 		// We need at least the CRC_A value and all 8 bits of the last byte must be received.
 388:RC522.c       **** 		if (*backLen < 2 || _validBits != 0) {
 1165              		.loc 1 388 0 is_stmt 1
 1166 00f2 012B     		cmp	r3, #1
 1167 00f4 1CD9     		bls	.L85
 1168              		.loc 1 388 0 is_stmt 0 discriminator 1
 1169 00f6 E8B9     		cbnz	r0, .L86
 389:RC522.c       **** 			return STATUS_CRC_WRONG;
 390:RC522.c       **** 		}
 391:RC522.c       **** 		// Verify CRC_A - do our own calculation and store the control in controlBuffer.
 392:RC522.c       **** 		unsigned char controlBuffer[2];
 393:RC522.c       **** 		unsigned char status = PCD_CalculateCRC(&backData[0], *backLen - 2, &controlBuffer[0]);
 1170              		.loc 1 393 0 is_stmt 1
 1171 00f8 991E     		subs	r1, r3, #2
 1172 00fa 01AA     		add	r2, sp, #4
 1173 00fc C9B2     		uxtb	r1, r1
ARM GAS  C:\Users\nikod\AppData\Local\Temp\ccxvSPxN.s 			page 29


 1174 00fe 0A98     		ldr	r0, [sp, #40]
 1175              	.LVL158:
 1176 0100 FFF7FEFF 		bl	PCD_CalculateCRC
 1177              	.LVL159:
 394:RC522.c       **** 		if (status != STATUS_OK) {
 1178              		.loc 1 394 0
 1179 0104 C0B9     		cbnz	r0, .L87
 395:RC522.c       **** 			return status;
 396:RC522.c       **** 		}
 397:RC522.c       **** 		if ((backData[*backLen - 2] != controlBuffer[0]) || (backData[*backLen - 1] != controlBuffer[1]))
 1180              		.loc 1 397 0
 1181 0106 0B9B     		ldr	r3, [sp, #44]
 1182 0108 1B78     		ldrb	r3, [r3]	@ zero_extendqisi2
 1183 010a 0A9A     		ldr	r2, [sp, #40]
 1184 010c 1A44     		add	r2, r2, r3
 1185 010e 12F8021C 		ldrb	r1, [r2, #-2]	@ zero_extendqisi2
 1186 0112 9DF80420 		ldrb	r2, [sp, #4]	@ zero_extendqisi2
 1187 0116 9142     		cmp	r1, r2
 1188 0118 10D1     		bne	.L88
 1189              		.loc 1 397 0 is_stmt 0 discriminator 1
 1190 011a 0A9A     		ldr	r2, [sp, #40]
 1191 011c 1344     		add	r3, r3, r2
 1192 011e 13F8012C 		ldrb	r2, [r3, #-1]	@ zero_extendqisi2
 1193 0122 9DF80530 		ldrb	r3, [sp, #5]	@ zero_extendqisi2
 1194 0126 9A42     		cmp	r2, r3
 1195 0128 0AD1     		bne	.L89
 1196 012a 14E0     		b	.L71
 1197              	.LVL160:
 1198              	.L84:
 385:RC522.c       **** 		}
 1199              		.loc 1 385 0 is_stmt 1
 1200 012c FF24     		movs	r4, #255
 1201 012e 12E0     		b	.L71
 1202              	.L85:
 389:RC522.c       **** 		}
 1203              		.loc 1 389 0
 1204 0130 0724     		movs	r4, #7
 1205 0132 10E0     		b	.L71
 1206              	.L86:
 1207 0134 0724     		movs	r4, #7
 1208 0136 0EE0     		b	.L71
 1209              	.LVL161:
 1210              	.L87:
 395:RC522.c       **** 			return status;
 1211              		.loc 1 395 0
 1212 0138 0446     		mov	r4, r0
 1213 013a 0CE0     		b	.L71
 1214              	.L88:
 398:RC522.c       **** 			return STATUS_CRC_WRONG;
 1215              		.loc 1 398 0
 1216 013c 0724     		movs	r4, #7
 1217 013e 0AE0     		b	.L71
 1218              	.L89:
 1219 0140 0724     		movs	r4, #7
 1220 0142 08E0     		b	.L71
 1221              	.LVL162:
 1222              	.L77:
ARM GAS  C:\Users\nikod\AppData\Local\Temp\ccxvSPxN.s 			page 30


 1223              	.LBE8:
 346:RC522.c       **** 		}
 1224              		.loc 1 346 0
 1225 0144 0324     		movs	r4, #3
 1226              	.LVL163:
 1227 0146 06E0     		b	.L71
 1228              	.LVL164:
 1229              	.L78:
 351:RC522.c       **** 	}
 1230              		.loc 1 351 0
 1231 0148 0324     		movs	r4, #3
 1232              	.LVL165:
 1233 014a 04E0     		b	.L71
 1234              	.LVL166:
 1235              	.L79:
 357:RC522.c       **** 	}
 1236              		.loc 1 357 0
 1237 014c 0124     		movs	r4, #1
 1238 014e 02E0     		b	.L71
 1239              	.LVL167:
 1240              	.L82:
 1241              	.LBB9:
 366:RC522.c       **** 		}
 1242              		.loc 1 366 0
 1243 0150 0424     		movs	r4, #4
 1244 0152 00E0     		b	.L71
 1245              	.LVL168:
 1246              	.L83:
 1247              	.LBE9:
 378:RC522.c       **** 	}
 1248              		.loc 1 378 0
 1249 0154 0224     		movs	r4, #2
 1250              	.LVL169:
 1251              	.L71:
 399:RC522.c       **** 		}
 400:RC522.c       **** 	}
 401:RC522.c       **** 	
 402:RC522.c       **** 	return STATUS_OK;
 403:RC522.c       **** } // End PCD_CommunicateWithPICC()
 1252              		.loc 1 403 0
 1253 0156 2046     		mov	r0, r4
 1254 0158 02B0     		add	sp, sp, #8
 1255              		.cfi_def_cfa_offset 32
 1256              		@ sp needed
 1257 015a BDE8F087 		pop	{r4, r5, r6, r7, r8, r9, r10, pc}
 1258              		.cfi_endproc
 1259              	.LFE81:
 1260              		.size	PCD_CommunicateWithPICC, .-PCD_CommunicateWithPICC
 1261 015e 00BF     		.section	.text.PCD_TransceiveData,"ax",%progbits
 1262              		.align	2
 1263              		.global	PCD_TransceiveData
 1264              		.thumb
 1265              		.thumb_func
 1266              		.type	PCD_TransceiveData, %function
 1267              	PCD_TransceiveData:
 1268              	.LFB80:
 305:RC522.c       **** 	unsigned char waitIRq = 0x30;		// RxIRq and IdleIRq
ARM GAS  C:\Users\nikod\AppData\Local\Temp\ccxvSPxN.s 			page 31


 1269              		.loc 1 305 0
 1270              		.cfi_startproc
 1271              		@ args = 12, pretend = 0, frame = 0
 1272              		@ frame_needed = 0, uses_anonymous_args = 0
 1273              	.LVL170:
 1274 0000 10B5     		push	{r4, lr}
 1275              		.cfi_def_cfa_offset 8
 1276              		.cfi_offset 4, -8
 1277              		.cfi_offset 14, -4
 1278 0002 86B0     		sub	sp, sp, #24
 1279              		.cfi_def_cfa_offset 32
 1280              	.LVL171:
 307:RC522.c       **** } // End PCD_TransceiveData()
 1281              		.loc 1 307 0
 1282 0004 9DF82840 		ldrb	r4, [sp, #40]	@ zero_extendqisi2
 1283 0008 0494     		str	r4, [sp, #16]
 1284 000a 9DF82440 		ldrb	r4, [sp, #36]	@ zero_extendqisi2
 1285 000e 0394     		str	r4, [sp, #12]
 1286 0010 089C     		ldr	r4, [sp, #32]
 1287 0012 0294     		str	r4, [sp, #8]
 1288 0014 0193     		str	r3, [sp, #4]
 1289 0016 0092     		str	r2, [sp]
 1290 0018 0B46     		mov	r3, r1
 1291              	.LVL172:
 1292 001a 0246     		mov	r2, r0
 1293              	.LVL173:
 1294 001c 3021     		movs	r1, #48
 1295              	.LVL174:
 1296 001e 0C20     		movs	r0, #12
 1297              	.LVL175:
 1298 0020 FFF7FEFF 		bl	PCD_CommunicateWithPICC
 1299              	.LVL176:
 308:RC522.c       **** 
 1300              		.loc 1 308 0
 1301 0024 06B0     		add	sp, sp, #24
 1302              		.cfi_def_cfa_offset 8
 1303              		@ sp needed
 1304 0026 10BD     		pop	{r4, pc}
 1305              		.cfi_endproc
 1306              	.LFE80:
 1307              		.size	PCD_TransceiveData, .-PCD_TransceiveData
 1308              		.section	.text.PICC_REQA_or_WUPA,"ax",%progbits
 1309              		.align	2
 1310              		.global	PICC_REQA_or_WUPA
 1311              		.thumb
 1312              		.thumb_func
 1313              		.type	PICC_REQA_or_WUPA, %function
 1314              	PICC_REQA_or_WUPA:
 1315              	.LFB84:
 404:RC522.c       **** 
 405:RC522.c       **** 
 406:RC522.c       **** unsigned char PICC_RequestA(	unsigned char *bufferATQA,	///< The buffer to store the ATQA (Answer t
 407:RC522.c       **** 								unsigned char *bufferSize	///< Buffer size, at least two bytes. Also number of bytes return
 408:RC522.c       **** 										) {
 409:RC522.c       **** 	return PICC_REQA_or_WUPA(PICC_CMD_REQA, bufferATQA, bufferSize);
 410:RC522.c       **** } // End PICC_RequestA()
 411:RC522.c       **** 
ARM GAS  C:\Users\nikod\AppData\Local\Temp\ccxvSPxN.s 			page 32


 412:RC522.c       **** unsigned char PICC_WakeupA(	unsigned char *bufferATQA,	///< The buffer to store the ATQA (Answer to
 413:RC522.c       **** 							unsigned char *bufferSize	///< Buffer size, at least two bytes. Also number of bytes returne
 414:RC522.c       **** 										) {
 415:RC522.c       **** 	return PICC_REQA_or_WUPA(PICC_CMD_WUPA, bufferATQA, bufferSize);
 416:RC522.c       **** } // End PICC_WakeupA()
 417:RC522.c       **** 
 418:RC522.c       **** unsigned char PICC_REQA_or_WUPA(	unsigned char command, 		///< The command to send - PICC_CMD_REQA 
 419:RC522.c       **** 									unsigned char *bufferATQA,	///< The buffer to store the ATQA (Answer to request) in
 420:RC522.c       **** 									unsigned char *bufferSize	///< Buffer size, at least two bytes. Also number of bytes retur
 421:RC522.c       **** 											) {
 1316              		.loc 1 421 0
 1317              		.cfi_startproc
 1318              		@ args = 0, pretend = 0, frame = 16
 1319              		@ frame_needed = 0, uses_anonymous_args = 0
 1320              	.LVL177:
 1321 0000 30B5     		push	{r4, r5, lr}
 1322              		.cfi_def_cfa_offset 12
 1323              		.cfi_offset 4, -12
 1324              		.cfi_offset 5, -8
 1325              		.cfi_offset 14, -4
 1326 0002 89B0     		sub	sp, sp, #36
 1327              		.cfi_def_cfa_offset 48
 1328 0004 8DF81700 		strb	r0, [sp, #23]
 422:RC522.c       **** 	unsigned char validBits;
 423:RC522.c       **** 	unsigned char status;
 424:RC522.c       **** 	
 425:RC522.c       **** 	if (bufferATQA == NULL || (*bufferSize < 2)) {	// The ATQA response is 2 bytes unsigned long.
 1329              		.loc 1 425 0
 1330 0008 11B3     		cbz	r1, .L95
 1331 000a 0B46     		mov	r3, r1
 1332              		.loc 1 425 0 is_stmt 0 discriminator 1
 1333 000c 1178     		ldrb	r1, [r2]	@ zero_extendqisi2
 1334              	.LVL178:
 1335 000e 0129     		cmp	r1, #1
 1336 0010 20D9     		bls	.L96
 1337 0012 1D46     		mov	r5, r3
 1338 0014 1446     		mov	r4, r2
 426:RC522.c       **** 		return STATUS_NO_ROOM;
 427:RC522.c       **** 	}
 428:RC522.c       **** 	PCD_ClearRegisterBitMask(CollReg, 0x80);		// ValuesAfterColl=1 => Bits received after collision ar
 1339              		.loc 1 428 0 is_stmt 1
 1340 0016 8021     		movs	r1, #128
 1341 0018 0E20     		movs	r0, #14
 1342              	.LVL179:
 1343 001a FFF7FEFF 		bl	PCD_ClearRegisterBitMask
 1344              	.LVL180:
 429:RC522.c       **** 	validBits = 7;									// For REQA and WUPA we need the short frame format - transmit only 7 bits 
 1345              		.loc 1 429 0
 1346 001e 0723     		movs	r3, #7
 1347 0020 8DF81F30 		strb	r3, [sp, #31]
 430:RC522.c       **** 	status = PCD_TransceiveData(&command, 1, bufferATQA, bufferSize, &validBits, 0x0 ,false);
 1348              		.loc 1 430 0
 1349 0024 0023     		movs	r3, #0
 1350 0026 0293     		str	r3, [sp, #8]
 1351 0028 0193     		str	r3, [sp, #4]
 1352 002a 0DF11F03 		add	r3, sp, #31
 1353 002e 0093     		str	r3, [sp]
ARM GAS  C:\Users\nikod\AppData\Local\Temp\ccxvSPxN.s 			page 33


 1354 0030 2346     		mov	r3, r4
 1355 0032 2A46     		mov	r2, r5
 1356 0034 0121     		movs	r1, #1
 1357 0036 0DF11700 		add	r0, sp, #23
 1358              	.LVL181:
 1359 003a FFF7FEFF 		bl	PCD_TransceiveData
 1360              	.LVL182:
 431:RC522.c       **** 	if (status != STATUS_OK) {
 1361              		.loc 1 431 0
 1362 003e 58B9     		cbnz	r0, .L97
 432:RC522.c       **** 		return status;
 433:RC522.c       **** 	}
 434:RC522.c       **** 	if (*bufferSize != 2 || validBits != 0) {		// ATQA must be exactly 16 bits.
 1363              		.loc 1 434 0
 1364 0040 2378     		ldrb	r3, [r4]	@ zero_extendqisi2
 1365 0042 022B     		cmp	r3, #2
 1366 0044 09D1     		bne	.L98
 1367              		.loc 1 434 0 is_stmt 0 discriminator 1
 1368 0046 9DF81F00 		ldrb	r0, [sp, #31]	@ zero_extendqisi2
 1369              	.LVL183:
 1370 004a 38B1     		cbz	r0, .L94
 435:RC522.c       **** 		return STATUS_ERROR;
 1371              		.loc 1 435 0 is_stmt 1
 1372 004c 0120     		movs	r0, #1
 1373 004e 05E0     		b	.L94
 1374              	.LVL184:
 1375              	.L95:
 426:RC522.c       **** 	}
 1376              		.loc 1 426 0
 1377 0050 0420     		movs	r0, #4
 1378              	.LVL185:
 1379 0052 03E0     		b	.L94
 1380              	.LVL186:
 1381              	.L96:
 1382 0054 0420     		movs	r0, #4
 1383              	.LVL187:
 1384 0056 01E0     		b	.L94
 1385              	.LVL188:
 1386              	.L97:
 1387 0058 00E0     		b	.L94
 1388              	.L98:
 1389              		.loc 1 435 0
 1390 005a 0120     		movs	r0, #1
 1391              	.LVL189:
 1392              	.L94:
 436:RC522.c       **** 	}
 437:RC522.c       **** 	return STATUS_OK;
 438:RC522.c       **** } // End PICC_REQA_or_WUPA()
 1393              		.loc 1 438 0
 1394 005c 09B0     		add	sp, sp, #36
 1395              		.cfi_def_cfa_offset 12
 1396              		@ sp needed
 1397 005e 30BD     		pop	{r4, r5, pc}
 1398              		.cfi_endproc
 1399              	.LFE84:
 1400              		.size	PICC_REQA_or_WUPA, .-PICC_REQA_or_WUPA
 1401              		.section	.text.PICC_RequestA,"ax",%progbits
ARM GAS  C:\Users\nikod\AppData\Local\Temp\ccxvSPxN.s 			page 34


 1402              		.align	2
 1403              		.global	PICC_RequestA
 1404              		.thumb
 1405              		.thumb_func
 1406              		.type	PICC_RequestA, %function
 1407              	PICC_RequestA:
 1408              	.LFB82:
 408:RC522.c       **** 	return PICC_REQA_or_WUPA(PICC_CMD_REQA, bufferATQA, bufferSize);
 1409              		.loc 1 408 0
 1410              		.cfi_startproc
 1411              		@ args = 0, pretend = 0, frame = 0
 1412              		@ frame_needed = 0, uses_anonymous_args = 0
 1413              	.LVL190:
 1414 0000 08B5     		push	{r3, lr}
 1415              		.cfi_def_cfa_offset 8
 1416              		.cfi_offset 3, -8
 1417              		.cfi_offset 14, -4
 409:RC522.c       **** } // End PICC_RequestA()
 1418              		.loc 1 409 0
 1419 0002 0A46     		mov	r2, r1
 1420 0004 0146     		mov	r1, r0
 1421              	.LVL191:
 1422 0006 2620     		movs	r0, #38
 1423              	.LVL192:
 1424 0008 FFF7FEFF 		bl	PICC_REQA_or_WUPA
 1425              	.LVL193:
 410:RC522.c       **** 
 1426              		.loc 1 410 0
 1427 000c 08BD     		pop	{r3, pc}
 1428              		.cfi_endproc
 1429              	.LFE82:
 1430              		.size	PICC_RequestA, .-PICC_RequestA
 1431 000e 00BF     		.section	.text.PICC_WakeupA,"ax",%progbits
 1432              		.align	2
 1433              		.global	PICC_WakeupA
 1434              		.thumb
 1435              		.thumb_func
 1436              		.type	PICC_WakeupA, %function
 1437              	PICC_WakeupA:
 1438              	.LFB83:
 414:RC522.c       **** 	return PICC_REQA_or_WUPA(PICC_CMD_WUPA, bufferATQA, bufferSize);
 1439              		.loc 1 414 0
 1440              		.cfi_startproc
 1441              		@ args = 0, pretend = 0, frame = 0
 1442              		@ frame_needed = 0, uses_anonymous_args = 0
 1443              	.LVL194:
 1444 0000 08B5     		push	{r3, lr}
 1445              		.cfi_def_cfa_offset 8
 1446              		.cfi_offset 3, -8
 1447              		.cfi_offset 14, -4
 415:RC522.c       **** } // End PICC_WakeupA()
 1448              		.loc 1 415 0
 1449 0002 0A46     		mov	r2, r1
 1450 0004 0146     		mov	r1, r0
 1451              	.LVL195:
 1452 0006 5220     		movs	r0, #82
 1453              	.LVL196:
ARM GAS  C:\Users\nikod\AppData\Local\Temp\ccxvSPxN.s 			page 35


 1454 0008 FFF7FEFF 		bl	PICC_REQA_or_WUPA
 1455              	.LVL197:
 416:RC522.c       **** 
 1456              		.loc 1 416 0
 1457 000c 08BD     		pop	{r3, pc}
 1458              		.cfi_endproc
 1459              	.LFE83:
 1460              		.size	PICC_WakeupA, .-PICC_WakeupA
 1461 000e 00BF     		.section	.text.PICC_Select,"ax",%progbits
 1462              		.align	2
 1463              		.global	PICC_Select
 1464              		.thumb
 1465              		.thumb_func
 1466              		.type	PICC_Select, %function
 1467              	PICC_Select:
 1468              	.LFB85:
 439:RC522.c       **** 
 440:RC522.c       **** 
 441:RC522.c       **** 
 442:RC522.c       **** unsigned char PICC_Select(	Uid *uid,			///< Pointer to Uid struct. Normally output, but can also be
 443:RC522.c       **** 											unsigned char validBits		///< The number of known UID bits supplied in *uid. Normally 0.
 444:RC522.c       **** 										 ) {
 1469              		.loc 1 444 0
 1470              		.cfi_startproc
 1471              		@ args = 0, pretend = 0, frame = 24
 1472              		@ frame_needed = 0, uses_anonymous_args = 0
 1473              	.LVL198:
 445:RC522.c       **** 	bool uidComplete;
 446:RC522.c       **** 	bool selectDone;
 447:RC522.c       **** 	bool useCascadeTag;
 448:RC522.c       **** 	unsigned char cascadeLevel = 1;
 449:RC522.c       **** 	unsigned char result;
 450:RC522.c       **** 	unsigned char count;
 451:RC522.c       **** 	unsigned char checkBit;
 452:RC522.c       **** 	unsigned char index;
 453:RC522.c       ****     unsigned char uidIndex;					// The first index in uid->uidByte[] that is used in the current Ca
 454:RC522.c       **** 	int8_t currentLevelKnownBits;		// The number of known UID bits in the current Cascade Level.
 455:RC522.c       **** 	unsigned char buffer[9];					// The SELECT/ANTICOLLISION commands uses a 7 byte standard frame + 2
 456:RC522.c       **** 	unsigned char bufferUsed;				// The number of bytes used in the buffer, ie the number of bytes to 
 457:RC522.c       **** 	unsigned char rxAlign;					// Used in BitFramingReg. Defines the bit position for the first bit re
 458:RC522.c       **** 	unsigned char txLastBits;				// Used in BitFramingReg. The number of valid bits in the last transm
 459:RC522.c       **** 	unsigned char *responseBuffer;
 460:RC522.c       **** 	unsigned char responseLength;
 461:RC522.c       **** 	
 462:RC522.c       **** 	// Description of buffer structure:
 463:RC522.c       **** 	//		Byte 0: SEL 				Indicates the Cascade Level: PICC_CMD_SEL_CL1, PICC_CMD_SEL_CL2 or PICC_CMD_SE
 464:RC522.c       **** 	//		Byte 1: NVB					Number of Valid Bits (in complete command, not just the UID): High nibble: com
 465:RC522.c       **** 	//		Byte 2: UID-data or CT		See explanation below. CT means Cascade Tag.
 466:RC522.c       **** 	//		Byte 3: UID-data
 467:RC522.c       **** 	//		Byte 4: UID-data
 468:RC522.c       **** 	//		Byte 5: UID-data
 469:RC522.c       **** 	//		Byte 6: BCC					Block Check Character - XOR of bytes 2-5
 470:RC522.c       **** 	//		Byte 7: CRC_A
 471:RC522.c       **** 	//		Byte 8: CRC_A
 472:RC522.c       **** 	// The BCC and CRC_A are only transmitted if we know all the UID bits of the current Cascade Level
 473:RC522.c       **** 	//
 474:RC522.c       **** 	// Description of bytes 2-5: (Section 6.5.4 of the ISO/IEC 14443-3 draft: UID contents and cascade
ARM GAS  C:\Users\nikod\AppData\Local\Temp\ccxvSPxN.s 			page 36


 475:RC522.c       **** 	//		UID size	Cascade level	Byte2	Byte3	Byte4	Byte5
 476:RC522.c       **** 	//		========	=============	=====	=====	=====	=====
 477:RC522.c       **** 	//		 4 bytes		1			uid0	uid1	uid2	uid3
 478:RC522.c       **** 	//		 7 bytes		1			CT		uid0	uid1	uid2
 479:RC522.c       **** 	//						2			uid3	uid4	uid5	uid6
 480:RC522.c       **** 	//		10 bytes		1			CT		uid0	uid1	uid2
 481:RC522.c       **** 	//						2			CT		uid3	uid4	uid5
 482:RC522.c       **** 	//						3			uid6	uid7	uid8	uid9
 483:RC522.c       **** 	
 484:RC522.c       **** 	// Sanity checks
 485:RC522.c       **** 	if (validBits > 80) {
 1474              		.loc 1 485 0
 1475 0000 5029     		cmp	r1, #80
 1476 0002 00F26481 		bhi	.L141
 444:RC522.c       **** 	bool uidComplete;
 1477              		.loc 1 444 0
 1478 0006 2DE9F04F 		push	{r4, r5, r6, r7, r8, r9, r10, fp, lr}
 1479              		.cfi_def_cfa_offset 36
 1480              		.cfi_offset 4, -36
 1481              		.cfi_offset 5, -32
 1482              		.cfi_offset 6, -28
 1483              		.cfi_offset 7, -24
 1484              		.cfi_offset 8, -20
 1485              		.cfi_offset 9, -16
 1486              		.cfi_offset 10, -12
 1487              		.cfi_offset 11, -8
 1488              		.cfi_offset 14, -4
 1489 000a 8BB0     		sub	sp, sp, #44
 1490              		.cfi_def_cfa_offset 80
 1491 000c 0491     		str	r1, [sp, #16]
 1492 000e 8146     		mov	r9, r0
 486:RC522.c       **** 		return STATUS_INVALID;
 487:RC522.c       **** 	}
 488:RC522.c       **** 	
 489:RC522.c       **** 	// Prepare MFRC522
 490:RC522.c       **** 	PCD_ClearRegisterBitMask(CollReg, 0x80);		// ValuesAfterColl=1 => Bits received after collision ar
 1493              		.loc 1 490 0
 1494 0010 8021     		movs	r1, #128
 1495              	.LVL199:
 1496 0012 0E20     		movs	r0, #14
 1497              	.LVL200:
 1498 0014 FFF7FEFF 		bl	PCD_ClearRegisterBitMask
 1499              	.LVL201:
 448:RC522.c       **** 	unsigned char result;
 1500              		.loc 1 448 0
 1501 0018 4FF0010B 		mov	fp, #1
 491:RC522.c       **** 	
 492:RC522.c       **** 	// Repeat Cascade Level loop until we have a complete UID.
 493:RC522.c       **** 	uidComplete = false;
 1502              		.loc 1 493 0
 1503 001c 0023     		movs	r3, #0
 1504 001e 0593     		str	r3, [sp, #20]
 494:RC522.c       **** 	while (!uidComplete) {
 1505              		.loc 1 494 0
 1506 0020 49E1     		b	.L106
 1507              	.LVL202:
 1508              	.L140:
ARM GAS  C:\Users\nikod\AppData\Local\Temp\ccxvSPxN.s 			page 37


 1509              	.LBB10:
 495:RC522.c       **** 		// Set the Cascade Level in the SEL byte, find out if we need to use the Cascade Tag in byte 2.
 496:RC522.c       **** 		switch (cascadeLevel) {
 1510              		.loc 1 496 0
 1511 0022 BBF1020F 		cmp	fp, #2
 1512 0026 17D0     		beq	.L107
 1513 0028 BBF1030F 		cmp	fp, #3
 1514 002c 25D0     		beq	.L108
 1515 002e BBF1010F 		cmp	fp, #1
 1516 0032 40F04E81 		bne	.L163
 497:RC522.c       **** 			case 1:
 498:RC522.c       **** 				buffer[0] = PICC_CMD_SEL_CL1;
 1517              		.loc 1 498 0
 1518 0036 9323     		movs	r3, #147
 1519 0038 8DF81C30 		strb	r3, [sp, #28]
 1520              	.LVL203:
 499:RC522.c       **** 				uidIndex = 0;
 500:RC522.c       **** 				useCascadeTag = validBits && uid->size > 4;	// When we know that the UID has more than 4 bytes
 1521              		.loc 1 500 0
 1522 003c 049B     		ldr	r3, [sp, #16]
 1523 003e 2BB1     		cbz	r3, .L143
 1524              		.loc 1 500 0 is_stmt 0 discriminator 1
 1525 0040 99F80030 		ldrb	r3, [r9]	@ zero_extendqisi2
 1526 0044 042B     		cmp	r3, #4
 1527 0046 03D8     		bhi	.L144
 1528              		.loc 1 500 0
 1529 0048 0026     		movs	r6, #0
 1530 004a 02E0     		b	.L110
 1531              	.L143:
 1532 004c 0026     		movs	r6, #0
 1533 004e 00E0     		b	.L110
 1534              	.L144:
 1535 0050 0126     		movs	r6, #1
 1536              	.L110:
 1537              	.LVL204:
 499:RC522.c       **** 				uidIndex = 0;
 1538              		.loc 1 499 0 is_stmt 1 discriminator 6
 1539 0052 4FF0000A 		mov	r10, #0
 501:RC522.c       **** 				break;
 1540              		.loc 1 501 0 discriminator 6
 1541 0056 16E0     		b	.L111
 1542              	.LVL205:
 1543              	.L107:
 502:RC522.c       **** 			
 503:RC522.c       **** 			case 2:
 504:RC522.c       **** 				buffer[0] = PICC_CMD_SEL_CL2;
 1544              		.loc 1 504 0
 1545 0058 9523     		movs	r3, #149
 1546 005a 8DF81C30 		strb	r3, [sp, #28]
 1547              	.LVL206:
 505:RC522.c       **** 				uidIndex = 3;
 506:RC522.c       **** 				useCascadeTag = validBits && uid->size > 7;	// When we know that the UID has more than 7 bytes
 1548              		.loc 1 506 0
 1549 005e 049B     		ldr	r3, [sp, #16]
 1550 0060 2BB1     		cbz	r3, .L145
 1551              		.loc 1 506 0 is_stmt 0 discriminator 1
 1552 0062 99F80030 		ldrb	r3, [r9]	@ zero_extendqisi2
ARM GAS  C:\Users\nikod\AppData\Local\Temp\ccxvSPxN.s 			page 38


 1553 0066 072B     		cmp	r3, #7
 1554 0068 03D8     		bhi	.L146
 1555              		.loc 1 506 0
 1556 006a 0026     		movs	r6, #0
 1557 006c 02E0     		b	.L112
 1558              	.L145:
 1559 006e 0026     		movs	r6, #0
 1560 0070 00E0     		b	.L112
 1561              	.L146:
 1562 0072 0126     		movs	r6, #1
 1563              	.L112:
 1564              	.LVL207:
 505:RC522.c       **** 				uidIndex = 3;
 1565              		.loc 1 505 0 is_stmt 1 discriminator 6
 1566 0074 4FF0030A 		mov	r10, #3
 507:RC522.c       **** 				break;
 1567              		.loc 1 507 0 discriminator 6
 1568 0078 05E0     		b	.L111
 1569              	.LVL208:
 1570              	.L108:
 508:RC522.c       **** 			
 509:RC522.c       **** 			case 3:
 510:RC522.c       **** 				buffer[0] = PICC_CMD_SEL_CL3;
 1571              		.loc 1 510 0
 1572 007a 9723     		movs	r3, #151
 1573 007c 8DF81C30 		strb	r3, [sp, #28]
 1574              	.LVL209:
 511:RC522.c       **** 				uidIndex = 6;
 1575              		.loc 1 511 0
 1576 0080 4FF0060A 		mov	r10, #6
 512:RC522.c       **** 				useCascadeTag = false;						// Never used in CL3.
 1577              		.loc 1 512 0
 1578 0084 0026     		movs	r6, #0
 1579              	.LVL210:
 1580              	.L111:
 513:RC522.c       **** 				break;
 514:RC522.c       **** 			
 515:RC522.c       **** 			default:
 516:RC522.c       **** 				return STATUS_INTERNAL_ERROR;
 517:RC522.c       **** 				break;
 518:RC522.c       **** 		}
 519:RC522.c       **** 		
 520:RC522.c       **** 		// How many UID bits are known in this Cascade Level?
 521:RC522.c       **** 		currentLevelKnownBits = validBits - (8 * uidIndex);
 1581              		.loc 1 521 0
 1582 0086 049B     		ldr	r3, [sp, #16]
 1583 0088 A3EBCA05 		sub	r5, r3, r10, lsl #3
 1584 008c 6DB2     		sxtb	r5, r5
 1585              	.LVL211:
 522:RC522.c       **** 		if (currentLevelKnownBits < 0) {
 1586              		.loc 1 522 0
 1587 008e 002D     		cmp	r5, #0
 1588 0090 00DA     		bge	.L113
 523:RC522.c       **** 			currentLevelKnownBits = 0;
 1589              		.loc 1 523 0
 1590 0092 0025     		movs	r5, #0
 1591              	.LVL212:
ARM GAS  C:\Users\nikod\AppData\Local\Temp\ccxvSPxN.s 			page 39


 1592              	.L113:
 524:RC522.c       **** 		}
 525:RC522.c       **** 		// Copy the known bits from uid->uidByte[] to buffer[]
 526:RC522.c       **** 		index = 2; // destination index in buffer[]
 527:RC522.c       **** 		if (useCascadeTag) {
 1593              		.loc 1 527 0
 1594 0094 26B1     		cbz	r6, .L148
 1595              	.LVL213:
 528:RC522.c       **** 			buffer[index++] = PICC_CMD_CT;
 1596              		.loc 1 528 0
 1597 0096 8823     		movs	r3, #136
 1598 0098 8DF81E30 		strb	r3, [sp, #30]
 1599 009c 0322     		movs	r2, #3
 1600 009e 00E0     		b	.L114
 1601              	.LVL214:
 1602              	.L148:
 526:RC522.c       **** 		if (useCascadeTag) {
 1603              		.loc 1 526 0
 1604 00a0 0222     		movs	r2, #2
 1605              	.LVL215:
 1606              	.L114:
 529:RC522.c       **** 		}
 530:RC522.c       **** 		unsigned char bytesToCopy = currentLevelKnownBits / 8 + (currentLevelKnownBits % 8 ? 1 : 0); // T
 1607              		.loc 1 530 0
 1608 00a2 5FFA85FE 		uxtb	lr, r5
 1609 00a6 1EF00703 		ands	r3, lr, #7
 1610 00aa 18BF     		it	ne
 1611 00ac 0123     		movne	r3, #1
 1612 00ae 2946     		mov	r1, r5
 1613 00b0 002D     		cmp	r5, #0
 1614 00b2 00DA     		bge	.L115
 1615 00b4 E91D     		adds	r1, r5, #7
 1616              	.L115:
 1617 00b6 03EBE103 		add	r3, r3, r1, asr #3
 1618              	.LVL216:
 531:RC522.c       **** 		if (bytesToCopy) {
 1619              		.loc 1 531 0
 1620 00ba 13F0FF03 		ands	r3, r3, #255
 1621              	.LVL217:
 1622 00be 17D0     		beq	.L116
 1623              	.LBB11:
 532:RC522.c       **** 			unsigned char maxBytes = useCascadeTag ? 3 : 4; // Max 4 bytes in each Cascade Level. Only 3 lef
 1624              		.loc 1 532 0
 1625 00c0 0EB1     		cbz	r6, .L149
 1626 00c2 0324     		movs	r4, #3
 1627 00c4 00E0     		b	.L117
 1628              	.L149:
 1629 00c6 0424     		movs	r4, #4
 1630              	.L117:
 1631              	.LVL218:
 533:RC522.c       **** 			if (bytesToCopy > maxBytes) {
 1632              		.loc 1 533 0 discriminator 4
 1633 00c8 9C42     		cmp	r4, r3
 1634 00ca 00D3     		bcc	.L118
 1635              	.LBE11:
 530:RC522.c       **** 		if (bytesToCopy) {
 1636              		.loc 1 530 0
ARM GAS  C:\Users\nikod\AppData\Local\Temp\ccxvSPxN.s 			page 40


 1637 00cc 1C46     		mov	r4, r3
 1638              	.LVL219:
 1639              	.L118:
 1640              	.LBB12:
 534:RC522.c       **** 				bytesToCopy = maxBytes;
 535:RC522.c       **** 			}
 536:RC522.c       **** 			for (count = 0; count < bytesToCopy; count++) {
 1641              		.loc 1 536 0
 1642 00ce 0023     		movs	r3, #0
 1643 00d0 0CE0     		b	.L119
 1644              	.LVL220:
 1645              	.L120:
 537:RC522.c       **** 				buffer[index++] = uid->uidByte[uidIndex + count];
 1646              		.loc 1 537 0 discriminator 3
 1647 00d2 501C     		adds	r0, r2, #1
 1648              	.LVL221:
 1649 00d4 0AEB0301 		add	r1, r10, r3
 1650 00d8 4944     		add	r1, r1, r9
 1651 00da 4978     		ldrb	r1, [r1, #1]	@ zero_extendqisi2
 1652 00dc 0DF1280C 		add	ip, sp, #40
 1653 00e0 6244     		add	r2, r2, ip
 1654 00e2 02F80C1C 		strb	r1, [r2, #-12]
 536:RC522.c       **** 				buffer[index++] = uid->uidByte[uidIndex + count];
 1655              		.loc 1 536 0 discriminator 3
 1656 00e6 0133     		adds	r3, r3, #1
 1657              	.LVL222:
 1658 00e8 DBB2     		uxtb	r3, r3
 1659              	.LVL223:
 1660              		.loc 1 537 0 discriminator 3
 1661 00ea C2B2     		uxtb	r2, r0
 1662              	.LVL224:
 1663              	.L119:
 536:RC522.c       **** 				buffer[index++] = uid->uidByte[uidIndex + count];
 1664              		.loc 1 536 0 discriminator 1
 1665 00ec A342     		cmp	r3, r4
 1666 00ee F0D3     		bcc	.L120
 1667              	.LVL225:
 1668              	.L116:
 1669              	.LBE12:
 538:RC522.c       **** 			}
 539:RC522.c       **** 		}
 540:RC522.c       **** 		// Now that the data has been copied we need to include the 8 bits in CT in currentLevelKnownBits
 541:RC522.c       **** 		if (useCascadeTag) {
 1670              		.loc 1 541 0
 1671 00f0 16B1     		cbz	r6, .L121
 542:RC522.c       **** 			currentLevelKnownBits += 8;
 1672              		.loc 1 542 0
 1673 00f2 0EF10805 		add	r5, lr, #8
 1674              	.LVL226:
 1675 00f6 6DB2     		sxtb	r5, r5
 1676              	.LVL227:
 1677              	.L121:
 543:RC522.c       **** 		}
 544:RC522.c       **** 		
 545:RC522.c       **** 		// Repeat anti collision loop until we can transmit all UID bits + BCC and receive a SAK - max 32
 546:RC522.c       **** 		selectDone = false;
 547:RC522.c       **** 		while (!selectDone) {
ARM GAS  C:\Users\nikod\AppData\Local\Temp\ccxvSPxN.s 			page 41


 548:RC522.c       **** 			// Find out how many bits and bytes to send and receive.
 549:RC522.c       **** 			if (currentLevelKnownBits >= 32) { // All UID bits in this Cascade Level are known. This is a SE
 550:RC522.c       **** 				//Serial.print(F("SELECT: currentLevelKnownBits=")); Serial.println(currentLevelKnownBits, DEC)
 551:RC522.c       **** 				buffer[1] = 0x70; // NVB - Number of Valid Bits: Seven whole bytes
 552:RC522.c       **** 				// Calculate BCC - Block Check Character
 553:RC522.c       **** 				buffer[6] = buffer[2] ^ buffer[3] ^ buffer[4] ^ buffer[5];
 554:RC522.c       **** 				// Calculate CRC_A
 555:RC522.c       **** 				result = PCD_CalculateCRC(buffer, 7, &buffer[7]);
 556:RC522.c       **** 				if (result != STATUS_OK) {
 557:RC522.c       **** 					return result;
 558:RC522.c       **** 				}
 559:RC522.c       **** 				txLastBits		= 0; // 0 => All 8 bits are valid.
 560:RC522.c       **** 				bufferUsed		= 9;
 561:RC522.c       **** 				// Store response in the last 3 bytes of buffer (BCC and CRC_A - not needed after tx)
 562:RC522.c       **** 				responseBuffer	= &buffer[6];
 563:RC522.c       **** 				responseLength	= 3;
 564:RC522.c       **** 			}
 565:RC522.c       **** 			else { // This is an ANTICOLLISION.
 566:RC522.c       **** 				//Serial.print(F("ANTICOLLISION: currentLevelKnownBits=")); Serial.println(currentLevelKnownBit
 567:RC522.c       **** 				txLastBits		= currentLevelKnownBits % 8;
 568:RC522.c       **** 				count			= currentLevelKnownBits / 8;	// Number of whole bytes in the UID part.
 569:RC522.c       **** 				index			= 2 + count;					// Number of whole bytes: SEL + NVB + UIDs
 570:RC522.c       **** 				buffer[1]		= (index << 4) + txLastBits;	// NVB - Number of Valid Bits
 571:RC522.c       **** 				bufferUsed		= index + (txLastBits ? 1 : 0);
 572:RC522.c       **** 				// Store response in the unused part of buffer
 573:RC522.c       **** 				responseBuffer	= &buffer[index];
 574:RC522.c       **** 				responseLength	= sizeof(buffer) - index;
 575:RC522.c       **** 			}
 576:RC522.c       **** 			
 577:RC522.c       **** 			// Set bit adjustments
 578:RC522.c       **** 			rxAlign = txLastBits;											// Having a separate variable is overkill. But it makes the next
 579:RC522.c       **** 			PCD_WriteRegister(BitFramingReg, (rxAlign << 4) + txLastBits);	// RxAlign = BitFramingReg[6..4].
 580:RC522.c       **** 			
 581:RC522.c       **** 			// Transmit the buffer and receive the response.
 582:RC522.c       **** 			result = PCD_TransceiveData(buffer, bufferUsed, responseBuffer, &responseLength, &txLastBits, rx
 583:RC522.c       **** 			if (result == STATUS_COLLISION) { // More than one PICC in the field => collision.
 584:RC522.c       **** 				unsigned char valueOfCollReg = PCD_ReadRegister(CollReg); // CollReg[7..0] bits are: ValuesAfte
 585:RC522.c       **** 				if (valueOfCollReg & 0x20) { // CollPosNotValid
 586:RC522.c       **** 					return STATUS_COLLISION; // Without a valid collision position we cannot continue
 587:RC522.c       **** 				}
 588:RC522.c       **** 				unsigned char collisionPos = valueOfCollReg & 0x1F; // Values 0-31, 0 means bit 32.
 589:RC522.c       **** 				if (collisionPos == 0) {
 590:RC522.c       **** 					collisionPos = 32;
 591:RC522.c       **** 				}
 592:RC522.c       **** 				if (collisionPos <= currentLevelKnownBits) { // No progress - should not happen 
 593:RC522.c       **** 					return STATUS_INTERNAL_ERROR;
 594:RC522.c       **** 				}
 595:RC522.c       **** 				// Choose the PICC with the bit set.
 596:RC522.c       **** 				currentLevelKnownBits	= collisionPos;
 597:RC522.c       **** 				count			= currentLevelKnownBits % 8; // The bit to modify
 598:RC522.c       **** 				checkBit		= (currentLevelKnownBits - 1) % 8;
 599:RC522.c       **** 				index			= 1 + (currentLevelKnownBits / 8) + (count ? 1 : 0); // First byte is index 0.
 600:RC522.c       **** 				buffer[index]	|= (1 << checkBit);
 601:RC522.c       **** 			}
 602:RC522.c       **** 			else if (result != STATUS_OK) {
 603:RC522.c       **** 				return result;
 604:RC522.c       **** 			}
ARM GAS  C:\Users\nikod\AppData\Local\Temp\ccxvSPxN.s 			page 42


 605:RC522.c       **** 			else { // STATUS_OK
 606:RC522.c       **** 				if (currentLevelKnownBits >= 32) { // This was a SELECT.
 607:RC522.c       **** 					selectDone = true; // No more anticollision 
 1678              		.loc 1 607 0
 1679 00f8 4FF00008 		mov	r8, #0
 1680 00fc 95E0     		b	.L122
 1681              	.LVL228:
 1682              	.L133:
 549:RC522.c       **** 				//Serial.print(F("SELECT: currentLevelKnownBits=")); Serial.println(currentLevelKnownBits, DEC)
 1683              		.loc 1 549 0
 1684 00fe 1F2D     		cmp	r5, #31
 1685 0100 22DD     		ble	.L123
 551:RC522.c       **** 				// Calculate BCC - Block Check Character
 1686              		.loc 1 551 0
 1687 0102 7023     		movs	r3, #112
 1688 0104 8DF81D30 		strb	r3, [sp, #29]
 553:RC522.c       **** 				// Calculate CRC_A
 1689              		.loc 1 553 0
 1690 0108 9DF81E00 		ldrb	r0, [sp, #30]	@ zero_extendqisi2
 1691 010c 9DF81F20 		ldrb	r2, [sp, #31]	@ zero_extendqisi2
 1692 0110 9DF82030 		ldrb	r3, [sp, #32]	@ zero_extendqisi2
 1693 0114 9DF82110 		ldrb	r1, [sp, #33]	@ zero_extendqisi2
 1694 0118 4240     		eors	r2, r2, r0
 1695 011a 5340     		eors	r3, r3, r2
 1696 011c 4B40     		eors	r3, r3, r1
 1697 011e 8DF82230 		strb	r3, [sp, #34]
 555:RC522.c       **** 				if (result != STATUS_OK) {
 1698              		.loc 1 555 0
 1699 0122 0DF12302 		add	r2, sp, #35
 1700 0126 0721     		movs	r1, #7
 1701 0128 07A8     		add	r0, sp, #28
 1702 012a FFF7FEFF 		bl	PCD_CalculateCRC
 1703              	.LVL229:
 556:RC522.c       **** 					return result;
 1704              		.loc 1 556 0
 1705 012e 0028     		cmp	r0, #0
 1706 0130 40F0D180 		bne	.L150
 559:RC522.c       **** 				bufferUsed		= 9;
 1707              		.loc 1 559 0
 1708 0134 0023     		movs	r3, #0
 1709 0136 8DF81B30 		strb	r3, [sp, #27]
 1710              	.LVL230:
 563:RC522.c       **** 			}
 1711              		.loc 1 563 0
 1712 013a 0323     		movs	r3, #3
 1713 013c 8DF81A30 		strb	r3, [sp, #26]
 562:RC522.c       **** 				responseLength	= 3;
 1714              		.loc 1 562 0
 1715 0140 0DF12207 		add	r7, sp, #34
 1716              	.LVL231:
 560:RC522.c       **** 				// Store response in the last 3 bytes of buffer (BCC and CRC_A - not needed after tx)
 1717              		.loc 1 560 0
 1718 0144 0924     		movs	r4, #9
 1719 0146 20E0     		b	.L124
 1720              	.LVL232:
 1721              	.L123:
 567:RC522.c       **** 				count			= currentLevelKnownBits / 8;	// Number of whole bytes in the UID part.
ARM GAS  C:\Users\nikod\AppData\Local\Temp\ccxvSPxN.s 			page 43


 1722              		.loc 1 567 0
 1723 0148 6B4C     		ldr	r4, .L165
 1724 014a 2C40     		ands	r4, r5, r4
 1725 014c 03D5     		bpl	.L125
 1726 014e 013C     		subs	r4, r4, #1
 1727 0150 64F00704 		orn	r4, r4, #7
 1728 0154 0134     		adds	r4, r4, #1
 1729              	.L125:
 1730 0156 E4B2     		uxtb	r4, r4
 1731 0158 8DF81B40 		strb	r4, [sp, #27]
 568:RC522.c       **** 				index			= 2 + count;					// Number of whole bytes: SEL + NVB + UIDs
 1732              		.loc 1 568 0
 1733 015c 2B46     		mov	r3, r5
 1734 015e 002D     		cmp	r5, #0
 1735 0160 00DA     		bge	.L126
 1736 0162 EB1D     		adds	r3, r5, #7
 1737              	.L126:
 1738 0164 C3F3C703 		ubfx	r3, r3, #3, #8
 1739              	.LVL233:
 569:RC522.c       **** 				buffer[1]		= (index << 4) + txLastBits;	// NVB - Number of Valid Bits
 1740              		.loc 1 569 0
 1741 0168 0233     		adds	r3, r3, #2
 1742              	.LVL234:
 1743 016a DBB2     		uxtb	r3, r3
 1744              	.LVL235:
 570:RC522.c       **** 				bufferUsed		= index + (txLastBits ? 1 : 0);
 1745              		.loc 1 570 0
 1746 016c 04EB0312 		add	r2, r4, r3, lsl #4
 1747 0170 8DF81D20 		strb	r2, [sp, #29]
 571:RC522.c       **** 				// Store response in the unused part of buffer
 1748              		.loc 1 571 0
 1749 0174 002C     		cmp	r4, #0
 1750 0176 0CBF     		ite	eq
 1751 0178 1C46     		moveq	r4, r3
 1752 017a 5C1C     		addne	r4, r3, #1
 1753 017c E4B2     		uxtb	r4, r4
 1754              	.LVL236:
 573:RC522.c       **** 				responseLength	= sizeof(buffer) - index;
 1755              		.loc 1 573 0
 1756 017e 07AA     		add	r2, sp, #28
 1757 0180 D718     		adds	r7, r2, r3
 1758              	.LVL237:
 574:RC522.c       **** 			}
 1759              		.loc 1 574 0
 1760 0182 C3F10903 		rsb	r3, r3, #9
 1761              	.LVL238:
 1762 0186 8DF81A30 		strb	r3, [sp, #26]
 1763              	.LVL239:
 1764              	.L124:
 578:RC522.c       **** 			PCD_WriteRegister(BitFramingReg, (rxAlign << 4) + txLastBits);	// RxAlign = BitFramingReg[6..4].
 1765              		.loc 1 578 0
 1766 018a 9DF81B60 		ldrb	r6, [sp, #27]	@ zero_extendqisi2
 1767              	.LVL240:
 579:RC522.c       **** 			
 1768              		.loc 1 579 0
 1769 018e 06EB0611 		add	r1, r6, r6, lsl #4
 1770 0192 C9B2     		uxtb	r1, r1
ARM GAS  C:\Users\nikod\AppData\Local\Temp\ccxvSPxN.s 			page 44


 1771 0194 0D20     		movs	r0, #13
 1772 0196 FFF7FEFF 		bl	PCD_WriteRegister
 1773              	.LVL241:
 582:RC522.c       **** 			if (result == STATUS_COLLISION) { // More than one PICC in the field => collision.
 1774              		.loc 1 582 0
 1775 019a 0023     		movs	r3, #0
 1776 019c 0293     		str	r3, [sp, #8]
 1777 019e 0196     		str	r6, [sp, #4]
 1778 01a0 0DF11B03 		add	r3, sp, #27
 1779 01a4 0093     		str	r3, [sp]
 1780 01a6 0DF11A03 		add	r3, sp, #26
 1781 01aa 3A46     		mov	r2, r7
 1782 01ac 2146     		mov	r1, r4
 1783 01ae 07A8     		add	r0, sp, #28
 1784 01b0 FFF7FEFF 		bl	PCD_TransceiveData
 1785              	.LVL242:
 583:RC522.c       **** 				unsigned char valueOfCollReg = PCD_ReadRegister(CollReg); // CollReg[7..0] bits are: ValuesAfte
 1786              		.loc 1 583 0
 1787 01b4 0228     		cmp	r0, #2
 1788 01b6 30D1     		bne	.L127
 1789              	.LBB13:
 584:RC522.c       **** 				if (valueOfCollReg & 0x20) { // CollPosNotValid
 1790              		.loc 1 584 0
 1791 01b8 0E20     		movs	r0, #14
 1792              	.LVL243:
 1793 01ba FFF7FEFF 		bl	PCD_ReadRegister
 1794              	.LVL244:
 585:RC522.c       **** 					return STATUS_COLLISION; // Without a valid collision position we cannot continue
 1795              		.loc 1 585 0
 1796 01be 10F0200F 		tst	r0, #32
 1797 01c2 40F08980 		bne	.L151
 1798              	.LVL245:
 589:RC522.c       **** 					collisionPos = 32;
 1799              		.loc 1 589 0
 1800 01c6 10F01F00 		ands	r0, r0, #31
 1801              	.LVL246:
 1802 01ca 00D1     		bne	.L128
 590:RC522.c       **** 				}
 1803              		.loc 1 590 0
 1804 01cc 2020     		movs	r0, #32
 1805              	.L128:
 1806              	.LVL247:
 592:RC522.c       **** 					return STATUS_INTERNAL_ERROR;
 1807              		.loc 1 592 0
 1808 01ce A842     		cmp	r0, r5
 1809 01d0 40F38480 		ble	.L153
 596:RC522.c       **** 				count			= currentLevelKnownBits % 8; // The bit to modify
 1810              		.loc 1 596 0
 1811 01d4 45B2     		sxtb	r5, r0
 1812              	.LVL248:
 597:RC522.c       **** 				checkBit		= (currentLevelKnownBits - 1) % 8;
 1813              		.loc 1 597 0
 1814 01d6 05F00703 		and	r3, r5, #7
 1815 01da 5BB2     		sxtb	r3, r3
 1816              	.LVL249:
 598:RC522.c       **** 				index			= 1 + (currentLevelKnownBits / 8) + (count ? 1 : 0); // First byte is index 0.
 1817              		.loc 1 598 0
ARM GAS  C:\Users\nikod\AppData\Local\Temp\ccxvSPxN.s 			page 45


 1818 01dc 6A1E     		subs	r2, r5, #1
 1819 01de 4649     		ldr	r1, .L165
 1820 01e0 0A40     		ands	r2, r2, r1
 1821 01e2 03D5     		bpl	.L130
 1822 01e4 013A     		subs	r2, r2, #1
 1823 01e6 62F00702 		orn	r2, r2, #7
 1824 01ea 0132     		adds	r2, r2, #1
 1825              	.L130:
 1826              	.LVL250:
 599:RC522.c       **** 				buffer[index]	|= (1 << checkBit);
 1827              		.loc 1 599 0
 1828 01ec 0033     		adds	r3, r3, #0
 1829 01ee 18BF     		it	ne
 1830 01f0 0123     		movne	r3, #1
 1831              	.LVL251:
 1832 01f2 2946     		mov	r1, r5
 1833 01f4 002D     		cmp	r5, #0
 1834 01f6 00DA     		bge	.L131
 1835              	.LVL252:
 1836 01f8 E91D     		adds	r1, r5, #7
 1837              	.LVL253:
 1838              	.L131:
 1839 01fa 03EBE103 		add	r3, r3, r1, asr #3
 1840 01fe 0133     		adds	r3, r3, #1
 1841 0200 DBB2     		uxtb	r3, r3
 1842              	.LVL254:
 600:RC522.c       **** 			}
 1843              		.loc 1 600 0
 1844 0202 D2B2     		uxtb	r2, r2
 1845              	.LVL255:
 1846 0204 0121     		movs	r1, #1
 1847 0206 01FA02F2 		lsl	r2, r1, r2
 1848 020a 0AA9     		add	r1, sp, #40
 1849 020c 0B44     		add	r3, r3, r1
 1850              	.LVL256:
 1851 020e 13F80C1C 		ldrb	r1, [r3, #-12]	@ zero_extendqisi2
 1852 0212 0A43     		orrs	r2, r2, r1
 1853 0214 03F80C2C 		strb	r2, [r3, #-12]
 1854              	.LBE13:
 1855 0218 07E0     		b	.L122
 1856              	.LVL257:
 1857              	.L127:
 602:RC522.c       **** 				return result;
 1858              		.loc 1 602 0
 1859 021a 0028     		cmp	r0, #0
 1860 021c 68D1     		bne	.L105
 606:RC522.c       **** 					selectDone = true; // No more anticollision 
 1861              		.loc 1 606 0
 1862 021e 1F2D     		cmp	r5, #31
 1863 0220 02DD     		ble	.L155
 1864              		.loc 1 607 0
 1865 0222 4FF00108 		mov	r8, #1
 1866              	.LVL258:
 1867 0226 00E0     		b	.L122
 1868              	.LVL259:
 1869              	.L155:
 608:RC522.c       **** 					// We continue below outside the while.
ARM GAS  C:\Users\nikod\AppData\Local\Temp\ccxvSPxN.s 			page 46


 609:RC522.c       **** 				}
 610:RC522.c       **** 				else { // This was an ANTICOLLISION.
 611:RC522.c       **** 					// We now have all 32 bits of the UID in this Cascade Level
 612:RC522.c       **** 					currentLevelKnownBits = 32;
 1870              		.loc 1 612 0
 1871 0228 2025     		movs	r5, #32
 1872              	.LVL260:
 1873              	.L122:
 547:RC522.c       **** 			// Find out how many bits and bytes to send and receive.
 1874              		.loc 1 547 0
 1875 022a B8F1000F 		cmp	r8, #0
 1876 022e 3FF466AF 		beq	.L133
 613:RC522.c       **** 					// Run loop again to do the SELECT.
 614:RC522.c       **** 				}
 615:RC522.c       **** 			}
 616:RC522.c       **** 		} // End of while (!selectDone)
 617:RC522.c       **** 		
 618:RC522.c       **** 		// We do not check the CBB - it was constructed by us above.
 619:RC522.c       **** 		
 620:RC522.c       **** 		// Copy the found UID bytes from buffer[] to uid->uidByte[]
 621:RC522.c       **** 		index			= (buffer[2] == PICC_CMD_CT) ? 3 : 2; // source index in buffer[]
 1877              		.loc 1 621 0
 1878 0232 9DF81E30 		ldrb	r3, [sp, #30]	@ zero_extendqisi2
 1879 0236 882B     		cmp	r3, #136
 1880 0238 01D1     		bne	.L156
 1881 023a 0322     		movs	r2, #3
 1882 023c 00E0     		b	.L134
 1883              	.L156:
 1884 023e 0222     		movs	r2, #2
 1885              	.L134:
 1886              	.LVL261:
 622:RC522.c       **** 		bytesToCopy		= (buffer[2] == PICC_CMD_CT) ? 3 : 4;
 1887              		.loc 1 622 0 discriminator 4
 1888 0240 882B     		cmp	r3, #136
 1889 0242 01D1     		bne	.L157
 1890              		.loc 1 622 0 is_stmt 0
 1891 0244 0324     		movs	r4, #3
 1892 0246 00E0     		b	.L135
 1893              	.L157:
 1894 0248 0424     		movs	r4, #4
 1895              	.L135:
 1896              	.LVL262:
 623:RC522.c       **** 		for (count = 0; count < bytesToCopy; count++) {
 1897              		.loc 1 623 0 is_stmt 1 discriminator 4
 1898 024a 0023     		movs	r3, #0
 1899 024c 0CE0     		b	.L136
 1900              	.LVL263:
 1901              	.L137:
 624:RC522.c       **** 			uid->uidByte[uidIndex + count] = buffer[index++];
 1902              		.loc 1 624 0 discriminator 3
 1903 024e 0AEB0301 		add	r1, r10, r3
 1904 0252 501C     		adds	r0, r2, #1
 1905              	.LVL264:
 1906 0254 0AAD     		add	r5, sp, #40
 1907 0256 2A44     		add	r2, r2, r5
 1908 0258 12F80C5C 		ldrb	r5, [r2, #-12]	@ zero_extendqisi2
 1909 025c 09EB0102 		add	r2, r9, r1
ARM GAS  C:\Users\nikod\AppData\Local\Temp\ccxvSPxN.s 			page 47


 1910 0260 5570     		strb	r5, [r2, #1]
 623:RC522.c       **** 		for (count = 0; count < bytesToCopy; count++) {
 1911              		.loc 1 623 0 discriminator 3
 1912 0262 0133     		adds	r3, r3, #1
 1913              	.LVL265:
 1914 0264 DBB2     		uxtb	r3, r3
 1915              	.LVL266:
 1916              		.loc 1 624 0 discriminator 3
 1917 0266 C2B2     		uxtb	r2, r0
 1918              	.LVL267:
 1919              	.L136:
 623:RC522.c       **** 		for (count = 0; count < bytesToCopy; count++) {
 1920              		.loc 1 623 0 discriminator 1
 1921 0268 A342     		cmp	r3, r4
 1922 026a F0D3     		bcc	.L137
 625:RC522.c       **** 		}
 626:RC522.c       **** 		
 627:RC522.c       **** 		// Check response SAK (Select Acknowledge)
 628:RC522.c       **** 		if (responseLength != 3 || txLastBits != 0) { // SAK must be exactly 24 bits (1 byte + CRC_A).
 1923              		.loc 1 628 0
 1924 026c 9DF81A30 		ldrb	r3, [sp, #26]	@ zero_extendqisi2
 1925              	.LVL268:
 1926 0270 032B     		cmp	r3, #3
 1927 0272 35D1     		bne	.L158
 1928              		.loc 1 628 0 is_stmt 0 discriminator 1
 1929 0274 9DF81B30 		ldrb	r3, [sp, #27]	@ zero_extendqisi2
 1930 0278 A3BB     		cbnz	r3, .L159
 629:RC522.c       **** 			return STATUS_ERROR;
 630:RC522.c       **** 		}
 631:RC522.c       **** 		// Verify CRC_A - do our own calculation and store the control in buffer[2..3] - those bytes are 
 632:RC522.c       **** 		result = PCD_CalculateCRC(responseBuffer, 1, &buffer[2]);
 1931              		.loc 1 632 0 is_stmt 1
 1932 027a 0DF11E02 		add	r2, sp, #30
 1933              	.LVL269:
 1934 027e 0121     		movs	r1, #1
 1935 0280 3846     		mov	r0, r7
 1936 0282 FFF7FEFF 		bl	PCD_CalculateCRC
 1937              	.LVL270:
 633:RC522.c       **** 		if (result != STATUS_OK) {
 1938              		.loc 1 633 0
 1939 0286 78BB     		cbnz	r0, .L160
 634:RC522.c       **** 			return result;
 635:RC522.c       **** 		}
 636:RC522.c       **** 		if ((buffer[2] != responseBuffer[1]) || (buffer[3] != responseBuffer[2])) {
 1940              		.loc 1 636 0
 1941 0288 9DF81E20 		ldrb	r2, [sp, #30]	@ zero_extendqisi2
 1942 028c 7B78     		ldrb	r3, [r7, #1]	@ zero_extendqisi2
 1943 028e 9A42     		cmp	r2, r3
 1944 0290 2BD1     		bne	.L161
 1945              		.loc 1 636 0 is_stmt 0 discriminator 1
 1946 0292 9DF81F20 		ldrb	r2, [sp, #31]	@ zero_extendqisi2
 1947 0296 BB78     		ldrb	r3, [r7, #2]	@ zero_extendqisi2
 1948 0298 9A42     		cmp	r2, r3
 1949 029a 28D1     		bne	.L162
 637:RC522.c       **** 			return STATUS_CRC_WRONG;
 638:RC522.c       **** 		}
 639:RC522.c       **** 		if (responseBuffer[0] & 0x04) { // Cascade bit set - UID not complete yes
ARM GAS  C:\Users\nikod\AppData\Local\Temp\ccxvSPxN.s 			page 48


 1950              		.loc 1 639 0 is_stmt 1
 1951 029c 3B78     		ldrb	r3, [r7]	@ zero_extendqisi2
 1952 029e 13F0040F 		tst	r3, #4
 1953 02a2 04D0     		beq	.L138
 640:RC522.c       **** 			cascadeLevel++;
 1954              		.loc 1 640 0
 1955 02a4 0BF1010B 		add	fp, fp, #1
 1956              	.LVL271:
 1957 02a8 5FFA8BFB 		uxtb	fp, fp
 1958              	.LVL272:
 1959 02ac 03E0     		b	.L106
 1960              	.L138:
 1961              	.LVL273:
 641:RC522.c       **** 		}
 642:RC522.c       **** 		else {
 643:RC522.c       **** 			uidComplete = true;
 644:RC522.c       **** 			uid->sak = responseBuffer[0];
 1962              		.loc 1 644 0
 1963 02ae 89F80B30 		strb	r3, [r9, #11]
 643:RC522.c       **** 			uid->sak = responseBuffer[0];
 1964              		.loc 1 643 0
 1965 02b2 0123     		movs	r3, #1
 1966 02b4 0593     		str	r3, [sp, #20]
 1967              	.LVL274:
 1968              	.L106:
 1969              	.LBE10:
 494:RC522.c       **** 		// Set the Cascade Level in the SEL byte, find out if we need to use the Cascade Tag in byte 2.
 1970              		.loc 1 494 0
 1971 02b6 059B     		ldr	r3, [sp, #20]
 1972 02b8 002B     		cmp	r3, #0
 1973 02ba 3FF4B2AE 		beq	.L140
 645:RC522.c       **** 		}
 646:RC522.c       **** 	} // End of while (!uidComplete)
 647:RC522.c       **** 	
 648:RC522.c       **** 	// Set correct uid->size
 649:RC522.c       **** 	uid->size = 3 * cascadeLevel + 1;
 1974              		.loc 1 649 0
 1975 02be 0BEB4B0B 		add	fp, fp, fp, lsl #1
 1976              	.LVL275:
 1977 02c2 0BF10103 		add	r3, fp, #1
 1978 02c6 89F80030 		strb	r3, [r9]
 650:RC522.c       **** 
 651:RC522.c       **** 	return STATUS_OK;
 1979              		.loc 1 651 0
 1980 02ca 0020     		movs	r0, #0
 1981 02cc 10E0     		b	.L105
 1982              	.LVL276:
 1983              	.L141:
 1984              		.cfi_def_cfa_offset 0
 1985              		.cfi_restore 4
 1986              		.cfi_restore 5
 1987              		.cfi_restore 6
 1988              		.cfi_restore 7
 1989              		.cfi_restore 8
 1990              		.cfi_restore 9
 1991              		.cfi_restore 10
 1992              		.cfi_restore 11
ARM GAS  C:\Users\nikod\AppData\Local\Temp\ccxvSPxN.s 			page 49


 1993              		.cfi_restore 14
 486:RC522.c       **** 	}
 1994              		.loc 1 486 0
 1995 02ce 0620     		movs	r0, #6
 1996              	.LVL277:
 652:RC522.c       **** } // End PICC_Select()
 1997              		.loc 1 652 0
 1998 02d0 7047     		bx	lr
 1999              	.LVL278:
 2000              	.L163:
 2001              		.cfi_def_cfa_offset 80
 2002              		.cfi_offset 4, -36
 2003              		.cfi_offset 5, -32
 2004              		.cfi_offset 6, -28
 2005              		.cfi_offset 7, -24
 2006              		.cfi_offset 8, -20
 2007              		.cfi_offset 9, -16
 2008              		.cfi_offset 10, -12
 2009              		.cfi_offset 11, -8
 2010              		.cfi_offset 14, -4
 2011              	.LBB15:
 516:RC522.c       **** 				break;
 2012              		.loc 1 516 0
 2013 02d2 0520     		movs	r0, #5
 2014 02d4 0CE0     		b	.L105
 2015              	.LVL279:
 2016              	.L150:
 2017 02d6 0BE0     		b	.L105
 2018              	.LVL280:
 2019              	.L151:
 2020              	.LBB14:
 586:RC522.c       **** 				}
 2021              		.loc 1 586 0
 2022 02d8 0220     		movs	r0, #2
 2023              	.LVL281:
 2024 02da 09E0     		b	.L105
 2025              	.LVL282:
 2026              	.L153:
 593:RC522.c       **** 				}
 2027              		.loc 1 593 0
 2028 02dc 0520     		movs	r0, #5
 2029              	.LVL283:
 2030 02de 07E0     		b	.L105
 2031              	.LVL284:
 2032              	.L158:
 2033              	.LBE14:
 629:RC522.c       **** 		}
 2034              		.loc 1 629 0
 2035 02e0 0120     		movs	r0, #1
 2036 02e2 05E0     		b	.L105
 2037              	.L159:
 2038 02e4 0120     		movs	r0, #1
 2039 02e6 03E0     		b	.L105
 2040              	.LVL285:
 2041              	.L160:
 2042 02e8 02E0     		b	.L105
 2043              	.L161:
ARM GAS  C:\Users\nikod\AppData\Local\Temp\ccxvSPxN.s 			page 50


 637:RC522.c       **** 		}
 2044              		.loc 1 637 0
 2045 02ea 0720     		movs	r0, #7
 2046              	.LVL286:
 2047 02ec 00E0     		b	.L105
 2048              	.LVL287:
 2049              	.L162:
 2050 02ee 0720     		movs	r0, #7
 2051              	.LVL288:
 2052              	.L105:
 2053              	.LBE15:
 2054              		.loc 1 652 0
 2055 02f0 0BB0     		add	sp, sp, #44
 2056              		.cfi_def_cfa_offset 36
 2057              		@ sp needed
 2058 02f2 BDE8F08F 		pop	{r4, r5, r6, r7, r8, r9, r10, fp, pc}
 2059              	.LVL289:
 2060              	.L166:
 2061 02f6 00BF     		.align	2
 2062              	.L165:
 2063 02f8 07000080 		.word	-2147483641
 2064              		.cfi_endproc
 2065              	.LFE85:
 2066              		.size	PICC_Select, .-PICC_Select
 2067              		.section	.text.PICC_HaltA,"ax",%progbits
 2068              		.align	2
 2069              		.global	PICC_HaltA
 2070              		.thumb
 2071              		.thumb_func
 2072              		.type	PICC_HaltA, %function
 2073              	PICC_HaltA:
 2074              	.LFB86:
 653:RC522.c       **** 
 654:RC522.c       **** unsigned char PICC_HaltA(void) {
 2075              		.loc 1 654 0
 2076              		.cfi_startproc
 2077              		@ args = 0, pretend = 0, frame = 8
 2078              		@ frame_needed = 0, uses_anonymous_args = 0
 2079 0000 00B5     		push	{lr}
 2080              		.cfi_def_cfa_offset 4
 2081              		.cfi_offset 14, -4
 2082 0002 87B0     		sub	sp, sp, #28
 2083              		.cfi_def_cfa_offset 32
 655:RC522.c       **** 	unsigned char result;
 656:RC522.c       **** 	unsigned char buffer[4];
 657:RC522.c       **** 	
 658:RC522.c       **** 	// Build command buffer
 659:RC522.c       **** 	buffer[0] = PICC_CMD_HLTA;
 2084              		.loc 1 659 0
 2085 0004 5023     		movs	r3, #80
 2086 0006 8DF81430 		strb	r3, [sp, #20]
 660:RC522.c       **** 	buffer[1] = 0;
 2087              		.loc 1 660 0
 2088 000a 0023     		movs	r3, #0
 2089 000c 8DF81530 		strb	r3, [sp, #21]
 661:RC522.c       **** 	// Calculate CRC_A
 662:RC522.c       **** 	result = PCD_CalculateCRC(buffer, 2, &buffer[2]);
ARM GAS  C:\Users\nikod\AppData\Local\Temp\ccxvSPxN.s 			page 51


 2090              		.loc 1 662 0
 2091 0010 0DF11602 		add	r2, sp, #22
 2092 0014 0221     		movs	r1, #2
 2093 0016 05A8     		add	r0, sp, #20
 2094 0018 FFF7FEFF 		bl	PCD_CalculateCRC
 2095              	.LVL290:
 663:RC522.c       **** 	if (result != STATUS_OK) {
 2096              		.loc 1 663 0
 2097 001c 68B9     		cbnz	r0, .L169
 664:RC522.c       **** 		return result;
 665:RC522.c       **** 	}
 666:RC522.c       **** 	
 667:RC522.c       **** 	// Send the command.
 668:RC522.c       **** 	// The standard says:
 669:RC522.c       **** 	//		If the PICC responds with any modulation during a period of 1 ms after the end of the frame co
 670:RC522.c       **** 	//		HLTA command, this response shall be interpreted as 'not acknowledge'.
 671:RC522.c       **** 	// We interpret that this way: Only STATUS_TIMEOUT is a success.
 672:RC522.c       **** 	result =  PCD_TransceiveData(buffer, sizeof(buffer), NULL, 0,NULL,0,false);
 2098              		.loc 1 672 0
 2099 001e 0022     		movs	r2, #0
 2100 0020 0292     		str	r2, [sp, #8]
 2101 0022 0192     		str	r2, [sp, #4]
 2102 0024 0092     		str	r2, [sp]
 2103 0026 1346     		mov	r3, r2
 2104 0028 0421     		movs	r1, #4
 2105 002a 05A8     		add	r0, sp, #20
 2106              	.LVL291:
 2107 002c FFF7FEFF 		bl	PCD_TransceiveData
 2108              	.LVL292:
 673:RC522.c       **** 	if (result == STATUS_TIMEOUT) {
 2109              		.loc 1 673 0
 2110 0030 0328     		cmp	r0, #3
 2111 0032 03D0     		beq	.L170
 674:RC522.c       **** 		return STATUS_OK;
 675:RC522.c       **** 	}
 676:RC522.c       **** 	if (result == STATUS_OK) { // That is ironically NOT ok in this case ;-)
 2112              		.loc 1 676 0
 2113 0034 18B9     		cbnz	r0, .L168
 677:RC522.c       **** 		return STATUS_ERROR;
 2114              		.loc 1 677 0
 2115 0036 0120     		movs	r0, #1
 2116              	.LVL293:
 2117 0038 01E0     		b	.L168
 2118              	.LVL294:
 2119              	.L169:
 2120 003a 00E0     		b	.L168
 2121              	.L170:
 674:RC522.c       **** 		return STATUS_OK;
 2122              		.loc 1 674 0
 2123 003c 0020     		movs	r0, #0
 2124              	.LVL295:
 2125              	.L168:
 678:RC522.c       **** 	}
 679:RC522.c       **** 	return result;
 680:RC522.c       **** } // End PICC_HaltA()
 2126              		.loc 1 680 0
 2127 003e 07B0     		add	sp, sp, #28
ARM GAS  C:\Users\nikod\AppData\Local\Temp\ccxvSPxN.s 			page 52


 2128              		.cfi_def_cfa_offset 4
 2129              		@ sp needed
 2130 0040 5DF804FB 		ldr	pc, [sp], #4
 2131              		.cfi_endproc
 2132              	.LFE86:
 2133              		.size	PICC_HaltA, .-PICC_HaltA
 2134              		.section	.text.PCD_Authenticate,"ax",%progbits
 2135              		.align	2
 2136              		.global	PCD_Authenticate
 2137              		.thumb
 2138              		.thumb_func
 2139              		.type	PCD_Authenticate, %function
 2140              	PCD_Authenticate:
 2141              	.LFB87:
 681:RC522.c       **** 
 682:RC522.c       **** unsigned char PCD_Authenticate(unsigned char command,		///< PICC_CMD_MF_AUTH_KEY_A or PICC_CMD_MF_A
 683:RC522.c       **** 											unsigned char blockAddr, 	///< The block number. See numbering in the comments in the .h
 684:RC522.c       **** 											MIFARE_Key *key,	///< Pointer to the Crypteo1 key to use (6 bytes)
 685:RC522.c       **** 											Uid *uid			///< Pointer to Uid struct. The first 4 bytes of the UID is used.
 686:RC522.c       **** 											) {
 2142              		.loc 1 686 0
 2143              		.cfi_startproc
 2144              		@ args = 0, pretend = 0, frame = 16
 2145              		@ frame_needed = 0, uses_anonymous_args = 0
 2146              	.LVL296:
 2147 0000 10B5     		push	{r4, lr}
 2148              		.cfi_def_cfa_offset 8
 2149              		.cfi_offset 4, -8
 2150              		.cfi_offset 14, -4
 2151 0002 8AB0     		sub	sp, sp, #40
 2152              		.cfi_def_cfa_offset 48
 2153              	.LVL297:
 687:RC522.c       **** 	unsigned char waitIRq = 0x10;		// IdleIRq
 688:RC522.c       **** 	
 689:RC522.c       **** 	// Build command buffer
 690:RC522.c       **** 	unsigned char sendData[12];
 691:RC522.c       **** 	sendData[0] = command;
 2154              		.loc 1 691 0
 2155 0004 8DF81C00 		strb	r0, [sp, #28]
 692:RC522.c       **** 	sendData[1] = blockAddr;
 2156              		.loc 1 692 0
 2157 0008 8DF81D10 		strb	r1, [sp, #29]
 2158              	.LVL298:
 2159              	.LBB16:
 693:RC522.c       **** 	for (unsigned char i = 0; i < 6; i++) {	// 6 key bytes
 2160              		.loc 1 693 0
 2161 000c 0021     		movs	r1, #0
 2162              	.LVL299:
 2163 000e 08E0     		b	.L174
 2164              	.LVL300:
 2165              	.L175:
 694:RC522.c       **** 		sendData[2+i] = key->keyByte[i];
 2166              		.loc 1 694 0 discriminator 3
 2167 0010 881C     		adds	r0, r1, #2
 2168 0012 545C     		ldrb	r4, [r2, r1]	@ zero_extendqisi2
 2169 0014 0DF1280E 		add	lr, sp, #40
 2170 0018 7044     		add	r0, r0, lr
ARM GAS  C:\Users\nikod\AppData\Local\Temp\ccxvSPxN.s 			page 53


 2171 001a 00F80C4C 		strb	r4, [r0, #-12]
 693:RC522.c       **** 	for (unsigned char i = 0; i < 6; i++) {	// 6 key bytes
 2172              		.loc 1 693 0 discriminator 3
 2173 001e 0131     		adds	r1, r1, #1
 2174              	.LVL301:
 2175 0020 C9B2     		uxtb	r1, r1
 2176              	.LVL302:
 2177              	.L174:
 693:RC522.c       **** 	for (unsigned char i = 0; i < 6; i++) {	// 6 key bytes
 2178              		.loc 1 693 0 is_stmt 0 discriminator 1
 2179 0022 0529     		cmp	r1, #5
 2180 0024 F4D9     		bls	.L175
 2181 0026 0021     		movs	r1, #0
 2182              	.LVL303:
 2183 0028 0CE0     		b	.L176
 2184              	.LVL304:
 2185              	.L177:
 2186              	.LBE16:
 2187              	.LBB17:
 695:RC522.c       **** 	}
 696:RC522.c       **** 	// Use the last uid bytes as specified in http://cache.nxp.com/documents/application_note/AN10927.
 697:RC522.c       **** 	// section 3.2.5 "MIFARE Classic Authentication".
 698:RC522.c       **** 	// The only missed case is the MF1Sxxxx shortcut activation,
 699:RC522.c       **** 	// but it requires cascade tag (CT) byte, that is not part of uid.
 700:RC522.c       **** 	for (unsigned char i = 0; i < 4; i++) {				// The last 4 bytes of the UID
 701:RC522.c       **** 		sendData[8+i] = uid->uidByte[i+uid->size-4];
 2188              		.loc 1 701 0 is_stmt 1 discriminator 3
 2189 002a 01F10800 		add	r0, r1, #8
 2190 002e 1A78     		ldrb	r2, [r3]	@ zero_extendqisi2
 2191 0030 0A44     		add	r2, r2, r1
 2192 0032 043A     		subs	r2, r2, #4
 2193 0034 1A44     		add	r2, r2, r3
 2194 0036 5478     		ldrb	r4, [r2, #1]	@ zero_extendqisi2
 2195 0038 0AAA     		add	r2, sp, #40
 2196 003a 0244     		add	r2, r2, r0
 2197 003c 02F80C4C 		strb	r4, [r2, #-12]
 700:RC522.c       **** 		sendData[8+i] = uid->uidByte[i+uid->size-4];
 2198              		.loc 1 700 0 discriminator 3
 2199 0040 0131     		adds	r1, r1, #1
 2200              	.LVL305:
 2201 0042 C9B2     		uxtb	r1, r1
 2202              	.LVL306:
 2203              	.L176:
 700:RC522.c       **** 		sendData[8+i] = uid->uidByte[i+uid->size-4];
 2204              		.loc 1 700 0 is_stmt 0 discriminator 1
 2205 0044 0329     		cmp	r1, #3
 2206 0046 F0D9     		bls	.L177
 2207              	.LBE17:
 702:RC522.c       **** 	}
 703:RC522.c       **** 	
 704:RC522.c       **** 	// Start the authentication.
 705:RC522.c       **** 	return PCD_CommunicateWithPICC(PCD_MFAuthent, waitIRq, &sendData[0], sizeof(sendData),NULL,NULL,NU
 2208              		.loc 1 705 0 is_stmt 1
 2209 0048 0023     		movs	r3, #0
 2210              	.LVL307:
 2211 004a 0493     		str	r3, [sp, #16]
 2212 004c 0393     		str	r3, [sp, #12]
ARM GAS  C:\Users\nikod\AppData\Local\Temp\ccxvSPxN.s 			page 54


 2213 004e 0293     		str	r3, [sp, #8]
 2214 0050 0193     		str	r3, [sp, #4]
 2215 0052 0093     		str	r3, [sp]
 2216 0054 0C23     		movs	r3, #12
 2217 0056 07AA     		add	r2, sp, #28
 2218 0058 1021     		movs	r1, #16
 2219              	.LVL308:
 2220 005a 0E20     		movs	r0, #14
 2221 005c FFF7FEFF 		bl	PCD_CommunicateWithPICC
 2222              	.LVL309:
 706:RC522.c       **** } // End PCD_Authenticate()
 2223              		.loc 1 706 0
 2224 0060 0AB0     		add	sp, sp, #40
 2225              		.cfi_def_cfa_offset 8
 2226              		@ sp needed
 2227 0062 10BD     		pop	{r4, pc}
 2228              		.cfi_endproc
 2229              	.LFE87:
 2230              		.size	PCD_Authenticate, .-PCD_Authenticate
 2231              		.section	.text.PCD_StopCrypto1,"ax",%progbits
 2232              		.align	2
 2233              		.global	PCD_StopCrypto1
 2234              		.thumb
 2235              		.thumb_func
 2236              		.type	PCD_StopCrypto1, %function
 2237              	PCD_StopCrypto1:
 2238              	.LFB88:
 707:RC522.c       **** 
 708:RC522.c       **** 
 709:RC522.c       **** void PCD_StopCrypto1(void) {
 2239              		.loc 1 709 0
 2240              		.cfi_startproc
 2241              		@ args = 0, pretend = 0, frame = 0
 2242              		@ frame_needed = 0, uses_anonymous_args = 0
 2243 0000 08B5     		push	{r3, lr}
 2244              		.cfi_def_cfa_offset 8
 2245              		.cfi_offset 3, -8
 2246              		.cfi_offset 14, -4
 710:RC522.c       **** 	// Clear MFCrypto1On bit
 711:RC522.c       **** 	PCD_ClearRegisterBitMask(Status2Reg, 0x08); // Status2Reg[7..0] bits are: TempSensClear I2CForceHS
 2247              		.loc 1 711 0
 2248 0002 0821     		movs	r1, #8
 2249 0004 0846     		mov	r0, r1
 2250 0006 FFF7FEFF 		bl	PCD_ClearRegisterBitMask
 2251              	.LVL310:
 2252 000a 08BD     		pop	{r3, pc}
 2253              		.cfi_endproc
 2254              	.LFE88:
 2255              		.size	PCD_StopCrypto1, .-PCD_StopCrypto1
 2256              		.section	.text.MIFARE_Read,"ax",%progbits
 2257              		.align	2
 2258              		.global	MIFARE_Read
 2259              		.thumb
 2260              		.thumb_func
 2261              		.type	MIFARE_Read, %function
 2262              	MIFARE_Read:
 2263              	.LFB89:
ARM GAS  C:\Users\nikod\AppData\Local\Temp\ccxvSPxN.s 			page 55


 712:RC522.c       **** } // End PCD_StopCrypto1()
 713:RC522.c       **** 
 714:RC522.c       **** 
 715:RC522.c       **** unsigned char MIFARE_Read(	unsigned char blockAddr, 	///< MIFARE Classic: The block (0-0xff) number
 716:RC522.c       **** 							unsigned char *buffer,		///< The buffer to store the data in
 717:RC522.c       ****                             unsigned char *bufferSize	///< Buffer size, at least 18 bytes. Also num
 718:RC522.c       **** 										) {
 2264              		.loc 1 718 0
 2265              		.cfi_startproc
 2266              		@ args = 0, pretend = 0, frame = 0
 2267              		@ frame_needed = 0, uses_anonymous_args = 0
 2268              	.LVL311:
 719:RC522.c       **** 	unsigned char result;
 720:RC522.c       **** 	
 721:RC522.c       **** 	// Sanity check
 722:RC522.c       **** 	if (buffer == NULL || *bufferSize < 18) {
 2269              		.loc 1 722 0
 2270 0000 D9B1     		cbz	r1, .L183
 718:RC522.c       **** 	unsigned char result;
 2271              		.loc 1 718 0 discriminator 1
 2272 0002 30B5     		push	{r4, r5, lr}
 2273              		.cfi_def_cfa_offset 12
 2274              		.cfi_offset 4, -12
 2275              		.cfi_offset 5, -8
 2276              		.cfi_offset 14, -4
 2277 0004 85B0     		sub	sp, sp, #20
 2278              		.cfi_def_cfa_offset 32
 2279              		.loc 1 722 0 discriminator 1
 2280 0006 1378     		ldrb	r3, [r2]	@ zero_extendqisi2
 2281 0008 112B     		cmp	r3, #17
 2282 000a 18D9     		bls	.L184
 2283 000c 0D46     		mov	r5, r1
 2284 000e 1446     		mov	r4, r2
 723:RC522.c       **** 		return STATUS_NO_ROOM;
 724:RC522.c       **** 	}
 725:RC522.c       **** 	
 726:RC522.c       **** 	// Build command buffer
 727:RC522.c       **** 	buffer[0] = PICC_CMD_MF_READ;
 2285              		.loc 1 727 0
 2286 0010 3023     		movs	r3, #48
 2287 0012 0B70     		strb	r3, [r1]
 728:RC522.c       **** 	buffer[1] = blockAddr;
 2288              		.loc 1 728 0
 2289 0014 4870     		strb	r0, [r1, #1]
 729:RC522.c       **** 	// Calculate CRC_A
 730:RC522.c       **** 	result = PCD_CalculateCRC(buffer, 2, &buffer[2]);
 2290              		.loc 1 730 0
 2291 0016 8A1C     		adds	r2, r1, #2
 2292              	.LVL312:
 2293 0018 0221     		movs	r1, #2
 2294              	.LVL313:
 2295 001a 2846     		mov	r0, r5
 2296              	.LVL314:
 2297 001c FFF7FEFF 		bl	PCD_CalculateCRC
 2298              	.LVL315:
 731:RC522.c       **** 	if (result != STATUS_OK) {
 2299              		.loc 1 731 0
ARM GAS  C:\Users\nikod\AppData\Local\Temp\ccxvSPxN.s 			page 56


 2300 0020 78B9     		cbnz	r0, .L185
 732:RC522.c       **** 		return result;
 733:RC522.c       **** 	}
 734:RC522.c       **** 	
 735:RC522.c       **** 	// Transmit the buffer and receive the response, validate CRC_A.
 736:RC522.c       **** 	return PCD_TransceiveData(buffer, 4, buffer, bufferSize, NULL, 0, true);
 2301              		.loc 1 736 0
 2302 0022 0123     		movs	r3, #1
 2303 0024 0293     		str	r3, [sp, #8]
 2304 0026 0023     		movs	r3, #0
 2305 0028 0193     		str	r3, [sp, #4]
 2306 002a 0093     		str	r3, [sp]
 2307 002c 2346     		mov	r3, r4
 2308 002e 2A46     		mov	r2, r5
 2309 0030 0421     		movs	r1, #4
 2310 0032 2846     		mov	r0, r5
 2311              	.LVL316:
 2312 0034 FFF7FEFF 		bl	PCD_TransceiveData
 2313              	.LVL317:
 2314 0038 03E0     		b	.L182
 2315              	.LVL318:
 2316              	.L183:
 2317              		.cfi_def_cfa_offset 0
 2318              		.cfi_restore 4
 2319              		.cfi_restore 5
 2320              		.cfi_restore 14
 723:RC522.c       **** 	}
 2321              		.loc 1 723 0
 2322 003a 0420     		movs	r0, #4
 2323              	.LVL319:
 737:RC522.c       **** } // End MIFARE_Read()
 2324              		.loc 1 737 0
 2325 003c 7047     		bx	lr
 2326              	.LVL320:
 2327              	.L184:
 2328              		.cfi_def_cfa_offset 32
 2329              		.cfi_offset 4, -12
 2330              		.cfi_offset 5, -8
 2331              		.cfi_offset 14, -4
 723:RC522.c       **** 	}
 2332              		.loc 1 723 0
 2333 003e 0420     		movs	r0, #4
 2334              	.LVL321:
 2335 0040 FFE7     		b	.L182
 2336              	.LVL322:
 2337              	.L185:
 2338              	.L182:
 2339              		.loc 1 737 0
 2340 0042 05B0     		add	sp, sp, #20
 2341              		.cfi_def_cfa_offset 12
 2342              		@ sp needed
 2343 0044 30BD     		pop	{r4, r5, pc}
 2344              		.cfi_endproc
 2345              	.LFE89:
 2346              		.size	MIFARE_Read, .-MIFARE_Read
 2347 0046 00BF     		.section	.text.MIFARE_GetValue,"ax",%progbits
 2348              		.align	2
ARM GAS  C:\Users\nikod\AppData\Local\Temp\ccxvSPxN.s 			page 57


 2349              		.global	MIFARE_GetValue
 2350              		.thumb
 2351              		.thumb_func
 2352              		.type	MIFARE_GetValue, %function
 2353              	MIFARE_GetValue:
 2354              	.LFB97:
 738:RC522.c       **** 
 739:RC522.c       **** 
 740:RC522.c       **** unsigned char MIFARE_Write(	unsigned char blockAddr, ///< MIFARE Classic: The block (0-0xff) number
 741:RC522.c       **** 							unsigned char *buffer,	///< The 16 bytes to write to the PICC
 742:RC522.c       **** 							unsigned char bufferSize	///< Buffer size, must be at least 16 bytes. Exactly 16 bytes are w
 743:RC522.c       **** 										) {
 744:RC522.c       **** 	unsigned char result;
 745:RC522.c       **** 	
 746:RC522.c       **** 	// Sanity check
 747:RC522.c       **** 	if (buffer == NULL || bufferSize < 16) {
 748:RC522.c       **** 		return STATUS_INVALID;
 749:RC522.c       **** }
 750:RC522.c       ****     
 751:RC522.c       ****     
 752:RC522.c       **** // Mifare Classic protocol requires two communications to perform a write.
 753:RC522.c       **** 	// Step 1: Tell the PICC we want to write to block blockAddr.
 754:RC522.c       **** 	unsigned char cmdBuffer[2];
 755:RC522.c       **** 	cmdBuffer[0] = PICC_CMD_MF_WRITE;
 756:RC522.c       **** 	cmdBuffer[1] = blockAddr;
 757:RC522.c       **** 	result = PCD_MIFARE_Transceive(cmdBuffer, 2,false); // Adds CRC_A and checks that the response is 
 758:RC522.c       **** 	if (result != STATUS_OK) {
 759:RC522.c       **** 		return result;
 760:RC522.c       **** 	}
 761:RC522.c       **** 	
 762:RC522.c       **** 	// Step 2: Transfer the data
 763:RC522.c       **** 	result = PCD_MIFARE_Transceive(buffer, bufferSize,false); // Adds CRC_A and checks that the respon
 764:RC522.c       **** 	if (result != STATUS_OK) {
 765:RC522.c       **** 		return result;
 766:RC522.c       **** 	}
 767:RC522.c       **** 	
 768:RC522.c       **** 	return STATUS_OK;
 769:RC522.c       **** } // End MIFARE_Write()
 770:RC522.c       **** 
 771:RC522.c       **** 
 772:RC522.c       **** unsigned char MIFARE_Ultralight_Write(	unsigned char page, 		///< The page (2-15) to write to.
 773:RC522.c       **** 										unsigned char *buffer,	///< The 4 bytes to write to the PICC
 774:RC522.c       **** 										unsigned char bufferSize	///< Buffer size, must be at least 4 bytes. Exactly 4 bytes are 
 775:RC522.c       **** 													) {
 776:RC522.c       **** 	unsigned char result;
 777:RC522.c       **** 	
 778:RC522.c       **** 	// Sanity check
 779:RC522.c       **** 	if (buffer == NULL || bufferSize < 4) {
 780:RC522.c       **** 		return STATUS_INVALID;
 781:RC522.c       **** 	}
 782:RC522.c       **** 	
 783:RC522.c       **** 	// Build commmand buffer
 784:RC522.c       **** 	unsigned char cmdBuffer[6];
 785:RC522.c       **** 	cmdBuffer[0] = PICC_CMD_UL_WRITE;
 786:RC522.c       **** 	cmdBuffer[1] = page;
 787:RC522.c       **** 	memcpy(&cmdBuffer[2], buffer, 4);
 788:RC522.c       **** 	
ARM GAS  C:\Users\nikod\AppData\Local\Temp\ccxvSPxN.s 			page 58


 789:RC522.c       **** 	// Perform the write
 790:RC522.c       **** 	result = PCD_MIFARE_Transceive(cmdBuffer, 6,false); // Adds CRC_A and checks that the response is 
 791:RC522.c       **** 	if (result != STATUS_OK) {
 792:RC522.c       **** 		return result;
 793:RC522.c       **** 	}
 794:RC522.c       **** 	return STATUS_OK;
 795:RC522.c       **** } // End MIFARE_Ultralight_Write()
 796:RC522.c       **** 
 797:RC522.c       **** unsigned char MIFARE_Decrement(	unsigned char blockAddr, ///< The block (0-0xff) number.
 798:RC522.c       **** 								uint32_t delta		///< This number is subtracted from the value of block blockAddr.
 799:RC522.c       **** 											) {
 800:RC522.c       **** 	return MIFARE_TwoStepHelper(PICC_CMD_MF_DECREMENT, blockAddr, delta);
 801:RC522.c       **** }
 802:RC522.c       **** 
 803:RC522.c       **** unsigned char MIFARE_Increment(	unsigned char blockAddr, ///< The block (0-0xff) number.
 804:RC522.c       **** 								uint32_t delta		///< This number is added to the value of block blockAddr.
 805:RC522.c       **** 											) {
 806:RC522.c       **** 	return MIFARE_TwoStepHelper(PICC_CMD_MF_INCREMENT, blockAddr, delta);
 807:RC522.c       **** } // End MIFARE_Increment()
 808:RC522.c       **** 
 809:RC522.c       **** 
 810:RC522.c       **** unsigned char  MIFARE_Restore(	unsigned char  blockAddr ///< The block (0-0xff) number.
 811:RC522.c       **** ) {
 812:RC522.c       **** 	// The datasheet describes Restore as a two step operation, but does not explain what data to tran
 813:RC522.c       **** 	// Doing only a single step does not work, so I chose to transfer 0L in step two.
 814:RC522.c       **** 	return MIFARE_TwoStepHelper(PICC_CMD_MF_RESTORE, blockAddr, 0L);
 815:RC522.c       **** } // End MIFARE_Restore()
 816:RC522.c       **** 
 817:RC522.c       **** 
 818:RC522.c       **** unsigned char MIFARE_TwoStepHelper(	unsigned char command,	///< The command to use
 819:RC522.c       **** 									unsigned char blockAddr,	///< The block (0-0xff) number.
 820:RC522.c       **** 									uint32_t data		///< The data to transfer in step 2
 821:RC522.c       **** 													) {
 822:RC522.c       **** 	unsigned char result;
 823:RC522.c       **** 	unsigned char cmdBuffer[2]; // We only need room for 2 bytes.
 824:RC522.c       **** 	
 825:RC522.c       **** 	// Step 1: Tell the PICC the command and block address
 826:RC522.c       **** 	cmdBuffer[0] = command;
 827:RC522.c       **** 	cmdBuffer[1] = blockAddr;
 828:RC522.c       **** 	result = PCD_MIFARE_Transceive(	cmdBuffer, 2, false); // Adds CRC_A and checks that the response i
 829:RC522.c       **** 	if (result != STATUS_OK) {
 830:RC522.c       **** 		return result;
 831:RC522.c       **** 	}
 832:RC522.c       **** 	// Step 2: Transfer the data
 833:RC522.c       **** 	result = PCD_MIFARE_Transceive(	(unsigned char *)&data, 4, true); // Adds CRC_A and accept timeout
 834:RC522.c       **** 	if (result != STATUS_OK) {
 835:RC522.c       **** 		return result;
 836:RC522.c       **** 	}
 837:RC522.c       **** 	
 838:RC522.c       **** 	return STATUS_OK;
 839:RC522.c       **** } // End MIFARE_TwoStepHelper()
 840:RC522.c       **** 
 841:RC522.c       **** 
 842:RC522.c       **** unsigned char MIFARE_Transfer(	unsigned char blockAddr ///< The block (0-0xff) number.
 843:RC522.c       **** 											) {
 844:RC522.c       **** 	unsigned char result;
 845:RC522.c       **** 	unsigned char cmdBuffer[2]; // We only need room for 2 bytes.
ARM GAS  C:\Users\nikod\AppData\Local\Temp\ccxvSPxN.s 			page 59


 846:RC522.c       **** 	
 847:RC522.c       **** 	// Tell the PICC we want to transfer the result into block blockAddr.
 848:RC522.c       **** 	cmdBuffer[0] = PICC_CMD_MF_TRANSFER;
 849:RC522.c       **** 	cmdBuffer[1] = blockAddr;
 850:RC522.c       **** 	result = PCD_MIFARE_Transceive(	cmdBuffer, 2, false); // Adds CRC_A and checks that the response i
 851:RC522.c       **** 	if (result != STATUS_OK) {
 852:RC522.c       **** 		return result;
 853:RC522.c       **** 	}
 854:RC522.c       **** 	return STATUS_OK;
 855:RC522.c       **** } // End MIFARE_Transfer()
 856:RC522.c       **** 
 857:RC522.c       **** unsigned char MIFARE_GetValue(unsigned char blockAddr, uint32_t *value) {
 2355              		.loc 1 857 0
 2356              		.cfi_startproc
 2357              		@ args = 0, pretend = 0, frame = 24
 2358              		@ frame_needed = 0, uses_anonymous_args = 0
 2359              	.LVL323:
 2360 0000 10B5     		push	{r4, lr}
 2361              		.cfi_def_cfa_offset 8
 2362              		.cfi_offset 4, -8
 2363              		.cfi_offset 14, -4
 2364 0002 86B0     		sub	sp, sp, #24
 2365              		.cfi_def_cfa_offset 32
 2366 0004 0C46     		mov	r4, r1
 858:RC522.c       **** 	unsigned char status;
 859:RC522.c       **** 	unsigned char buffer[18];
 860:RC522.c       **** 	unsigned char size = sizeof(buffer);
 2367              		.loc 1 860 0
 2368 0006 06AA     		add	r2, sp, #24
 2369 0008 1223     		movs	r3, #18
 2370 000a 02F8153D 		strb	r3, [r2, #-21]!
 861:RC522.c       **** 	
 862:RC522.c       **** 	// Read the block
 863:RC522.c       **** 	status = MIFARE_Read(blockAddr, buffer, &size);
 2371              		.loc 1 863 0
 2372 000e 01A9     		add	r1, sp, #4
 2373              	.LVL324:
 2374 0010 FFF7FEFF 		bl	MIFARE_Read
 2375              	.LVL325:
 864:RC522.c       **** 	if (status == STATUS_OK) {
 2376              		.loc 1 864 0
 2377 0014 0146     		mov	r1, r0
 2378 0016 70B9     		cbnz	r0, .L188
 2379              	.LBB18:
 865:RC522.c       **** 		// Extract the value
 866:RC522.c       ****         uint32_t aux;
 867:RC522.c       ****         aux=(uint32_t)(buffer[3]<<8);
 2380              		.loc 1 867 0
 2381 0018 9DF80720 		ldrb	r2, [sp, #7]	@ zero_extendqisi2
 2382              	.LVL326:
 868:RC522.c       ****         aux= (uint32_t)((buffer[2]|aux)<<8);
 2383              		.loc 1 868 0
 2384 001c 9DF80630 		ldrb	r3, [sp, #6]	@ zero_extendqisi2
 2385 0020 43EA0222 		orr	r2, r3, r2, lsl #8
 2386              	.LVL327:
 869:RC522.c       ****         aux= (uint32_t)((buffer[1]|aux)<<8);
 2387              		.loc 1 869 0
ARM GAS  C:\Users\nikod\AppData\Local\Temp\ccxvSPxN.s 			page 60


 2388 0024 9DF80530 		ldrb	r3, [sp, #5]	@ zero_extendqisi2
 2389 0028 43EA0222 		orr	r2, r3, r2, lsl #8
 2390              	.LVL328:
 870:RC522.c       **** 		*value = aux | buffer[0];
 2391              		.loc 1 870 0
 2392 002c 9DF80430 		ldrb	r3, [sp, #4]	@ zero_extendqisi2
 2393 0030 43EA0223 		orr	r3, r3, r2, lsl #8
 2394 0034 2360     		str	r3, [r4]
 2395              	.LVL329:
 2396              	.L188:
 2397              	.LBE18:
 871:RC522.c       **** 	}
 872:RC522.c       **** 	return status;
 873:RC522.c       **** } // End MIFARE_GetValue()
 2398              		.loc 1 873 0
 2399 0036 0846     		mov	r0, r1
 2400              	.LVL330:
 2401 0038 06B0     		add	sp, sp, #24
 2402              		.cfi_def_cfa_offset 8
 2403              		@ sp needed
 2404 003a 10BD     		pop	{r4, pc}
 2405              		.cfi_endproc
 2406              	.LFE97:
 2407              		.size	MIFARE_GetValue, .-MIFARE_GetValue
 2408              		.section	.text.PCD_NTAG216_AUTH,"ax",%progbits
 2409              		.align	2
 2410              		.global	PCD_NTAG216_AUTH
 2411              		.thumb
 2412              		.thumb_func
 2413              		.type	PCD_NTAG216_AUTH, %function
 2414              	PCD_NTAG216_AUTH:
 2415              	.LFB99:
 874:RC522.c       **** 
 875:RC522.c       **** 
 876:RC522.c       **** unsigned char MIFARE_SetValue(unsigned char blockAddr, uint32_t value) {
 877:RC522.c       **** 	unsigned char buffer[18];
 878:RC522.c       **** 	// Translate the unsigned long into 4 bytes; repeated 2x in value block
 879:RC522.c       **** 	buffer[0] = buffer[ 8] = (value & 0xFF);
 880:RC522.c       **** 	buffer[1] = buffer[ 9] = (value & 0xFF00) >> 8;
 881:RC522.c       **** 	buffer[2] = buffer[10] = (value & 0xFF0000) >> 16;
 882:RC522.c       **** 	buffer[3] = buffer[11] = (value & 0xFF000000) >> 24;
 883:RC522.c       **** 	// Inverse 4 bytes also found in value block
 884:RC522.c       **** 	buffer[4] = ~buffer[0];
 885:RC522.c       **** 	buffer[5] = ~buffer[1];
 886:RC522.c       **** 	buffer[6] = ~buffer[2];
 887:RC522.c       **** 	buffer[7] = ~buffer[3];
 888:RC522.c       **** 	// Address 2x with inverse address 2x
 889:RC522.c       **** 	buffer[12] = buffer[14] = blockAddr;
 890:RC522.c       **** 	buffer[13] = buffer[15] = ~blockAddr;
 891:RC522.c       **** 	
 892:RC522.c       **** 	// Write the whole data block
 893:RC522.c       **** 	return MIFARE_Write(blockAddr, buffer, 16);
 894:RC522.c       **** } // End MIFARE_SetValue()
 895:RC522.c       **** 
 896:RC522.c       **** unsigned char PCD_NTAG216_AUTH(unsigned char *passWord, unsigned char pACK[]) //Authenticate with 3
 897:RC522.c       **** {
 2416              		.loc 1 897 0
ARM GAS  C:\Users\nikod\AppData\Local\Temp\ccxvSPxN.s 			page 61


 2417              		.cfi_startproc
 2418              		@ args = 0, pretend = 0, frame = 24
 2419              		@ frame_needed = 0, uses_anonymous_args = 0
 2420              	.LVL331:
 2421 0000 10B5     		push	{r4, lr}
 2422              		.cfi_def_cfa_offset 8
 2423              		.cfi_offset 4, -8
 2424              		.cfi_offset 14, -4
 2425 0002 8CB0     		sub	sp, sp, #48
 2426              		.cfi_def_cfa_offset 56
 2427 0004 0C46     		mov	r4, r1
 898:RC522.c       **** 	// TODO: Fix cmdBuffer length and rxlength. They really should match.
 899:RC522.c       **** 	//       (Better still, rxlength should not even be necessary.)
 900:RC522.c       **** 
 901:RC522.c       **** 	unsigned char  result;
 902:RC522.c       **** 	unsigned char cmdBuffer[18]; // We need room for 16 bytes data and 2 bytes CRC_A.
 903:RC522.c       **** 	
 904:RC522.c       **** 	cmdBuffer[0] = 0x1B; //Comando de autentificacion
 2428              		.loc 1 904 0
 2429 0006 1B23     		movs	r3, #27
 2430 0008 8DF81C30 		strb	r3, [sp, #28]
 2431              	.LVL332:
 2432              	.LBB19:
 905:RC522.c       **** 	
 906:RC522.c       **** 	for (unsigned char i = 0; i<4; i++)
 2433              		.loc 1 906 0
 2434 000c 0023     		movs	r3, #0
 2435 000e 06E0     		b	.L191
 2436              	.LVL333:
 2437              	.L192:
 907:RC522.c       **** 		cmdBuffer[i+1] = passWord[i];
 2438              		.loc 1 907 0 discriminator 3
 2439 0010 5A1C     		adds	r2, r3, #1
 2440 0012 C15C     		ldrb	r1, [r0, r3]	@ zero_extendqisi2
 2441 0014 0CAB     		add	r3, sp, #48
 2442              	.LVL334:
 2443 0016 1344     		add	r3, r3, r2
 2444 0018 03F8141C 		strb	r1, [r3, #-20]
 906:RC522.c       **** 		cmdBuffer[i+1] = passWord[i];
 2445              		.loc 1 906 0 discriminator 3
 2446 001c D3B2     		uxtb	r3, r2
 2447              	.LVL335:
 2448              	.L191:
 906:RC522.c       **** 		cmdBuffer[i+1] = passWord[i];
 2449              		.loc 1 906 0 is_stmt 0 discriminator 1
 2450 001e 032B     		cmp	r3, #3
 2451 0020 F6D9     		bls	.L192
 2452              	.LBE19:
 908:RC522.c       **** 	
 909:RC522.c       **** 	result = PCD_CalculateCRC(cmdBuffer, 5, &cmdBuffer[5]);
 2453              		.loc 1 909 0 is_stmt 1
 2454 0022 0DF12102 		add	r2, sp, #33
 2455 0026 0521     		movs	r1, #5
 2456 0028 07A8     		add	r0, sp, #28
 2457              	.LVL336:
 2458 002a FFF7FEFF 		bl	PCD_CalculateCRC
 2459              	.LVL337:
ARM GAS  C:\Users\nikod\AppData\Local\Temp\ccxvSPxN.s 			page 62


 910:RC522.c       **** 	
 911:RC522.c       **** 	if (result!=STATUS_OK) {
 2460              		.loc 1 911 0
 2461 002e E0B9     		cbnz	r0, .L194
 2462              	.LVL338:
 912:RC522.c       **** 		return result;
 913:RC522.c       **** 	}
 914:RC522.c       **** 	// Transceive the data, store the reply in cmdBuffer[]
 915:RC522.c       **** 	unsigned char waitIRq		= 0x30;	// RxIRq and IdleIRq
 916:RC522.c       **** //	unsigned char cmdBufferSize	= sizeof(cmdBuffer);
 917:RC522.c       **** 	unsigned char validBits		= 0;
 2463              		.loc 1 917 0
 2464 0030 0023     		movs	r3, #0
 2465 0032 8DF81B30 		strb	r3, [sp, #27]
 918:RC522.c       **** 	unsigned char rxlength		= 5;
 2466              		.loc 1 918 0
 2467 0036 0522     		movs	r2, #5
 2468 0038 8DF81A20 		strb	r2, [sp, #26]
 919:RC522.c       **** 	result = PCD_CommunicateWithPICC(PCD_Transceive, waitIRq, cmdBuffer, 7, cmdBuffer, &rxlength, &val
 2469              		.loc 1 919 0
 2470 003c 07AA     		add	r2, sp, #28
 2471 003e 0493     		str	r3, [sp, #16]
 2472 0040 0393     		str	r3, [sp, #12]
 2473 0042 0DF11B03 		add	r3, sp, #27
 2474 0046 0293     		str	r3, [sp, #8]
 2475 0048 0DF11A03 		add	r3, sp, #26
 2476 004c 0193     		str	r3, [sp, #4]
 2477 004e 0092     		str	r2, [sp]
 2478 0050 0723     		movs	r3, #7
 2479 0052 3021     		movs	r1, #48
 2480 0054 0C20     		movs	r0, #12
 2481              	.LVL339:
 2482 0056 FFF7FEFF 		bl	PCD_CommunicateWithPICC
 2483              	.LVL340:
 920:RC522.c       **** 	
 921:RC522.c       **** 	pACK[0] = cmdBuffer[0];
 2484              		.loc 1 921 0
 2485 005a 9DF81C30 		ldrb	r3, [sp, #28]	@ zero_extendqisi2
 2486 005e 2370     		strb	r3, [r4]
 922:RC522.c       **** 	pACK[1] = cmdBuffer[1];
 2487              		.loc 1 922 0
 2488 0060 9DF81D30 		ldrb	r3, [sp, #29]	@ zero_extendqisi2
 2489 0064 6370     		strb	r3, [r4, #1]
 923:RC522.c       **** 	
 924:RC522.c       **** 	if (result!=STATUS_OK) {
 2490              		.loc 1 924 0
 2491 0066 08B9     		cbnz	r0, .L195
 2492 0068 00E0     		b	.L193
 2493              	.LVL341:
 2494              	.L194:
 2495 006a FFE7     		b	.L193
 2496              	.LVL342:
 2497              	.L195:
 2498              	.L193:
 925:RC522.c       **** 		return result;
 926:RC522.c       **** 	}
 927:RC522.c       **** 	
ARM GAS  C:\Users\nikod\AppData\Local\Temp\ccxvSPxN.s 			page 63


 928:RC522.c       **** 	return STATUS_OK;
 929:RC522.c       **** } // End PCD_NTAG216_AUTH()
 2499              		.loc 1 929 0
 2500 006c 0CB0     		add	sp, sp, #48
 2501              		.cfi_def_cfa_offset 8
 2502              		@ sp needed
 2503 006e 10BD     		pop	{r4, pc}
 2504              		.cfi_endproc
 2505              	.LFE99:
 2506              		.size	PCD_NTAG216_AUTH, .-PCD_NTAG216_AUTH
 2507              		.section	.text.PCD_MIFARE_Transceive,"ax",%progbits
 2508              		.align	2
 2509              		.global	PCD_MIFARE_Transceive
 2510              		.thumb
 2511              		.thumb_func
 2512              		.type	PCD_MIFARE_Transceive, %function
 2513              	PCD_MIFARE_Transceive:
 2514              	.LFB100:
 930:RC522.c       **** 
 931:RC522.c       **** unsigned char PCD_MIFARE_Transceive(	unsigned char *sendData,		///< Pointer to the data to transfer
 932:RC522.c       **** 										unsigned char sendLen,		///< Number of bytes in sendData.
 933:RC522.c       **** 										bool acceptTimeout	///< True => A timeout is also success
 934:RC522.c       **** 												) {
 2515              		.loc 1 934 0
 2516              		.cfi_startproc
 2517              		@ args = 0, pretend = 0, frame = 24
 2518              		@ frame_needed = 0, uses_anonymous_args = 0
 2519              	.LVL343:
 935:RC522.c       **** 	unsigned char result;
 936:RC522.c       **** 	unsigned char cmdBuffer[18]; // We need room for 16 bytes data and 2 bytes CRC_A.
 937:RC522.c       **** 	
 938:RC522.c       **** 	// Sanity check
 939:RC522.c       **** 	if (sendData == NULL || sendLen > 16) {
 2520              		.loc 1 939 0
 2521 0000 0028     		cmp	r0, #0
 2522 0002 39D0     		beq	.L200
 2523              		.loc 1 939 0 is_stmt 0 discriminator 1
 2524 0004 1029     		cmp	r1, #16
 2525 0006 39D8     		bhi	.L201
 934:RC522.c       **** 	unsigned char result;
 2526              		.loc 1 934 0 is_stmt 1
 2527 0008 30B5     		push	{r4, r5, lr}
 2528              		.cfi_def_cfa_offset 12
 2529              		.cfi_offset 4, -12
 2530              		.cfi_offset 5, -8
 2531              		.cfi_offset 14, -4
 2532 000a 8DB0     		sub	sp, sp, #52
 2533              		.cfi_def_cfa_offset 64
 2534 000c 1546     		mov	r5, r2
 2535 000e 0C46     		mov	r4, r1
 940:RC522.c       **** 		return STATUS_INVALID;
 941:RC522.c       **** 	}
 942:RC522.c       **** 	
 943:RC522.c       **** 	// Copy sendData[] to cmdBuffer[] and add CRC_A
 944:RC522.c       **** 	memcpy(cmdBuffer, sendData, sendLen);
 2536              		.loc 1 944 0
 2537 0010 0A46     		mov	r2, r1
ARM GAS  C:\Users\nikod\AppData\Local\Temp\ccxvSPxN.s 			page 64


 2538              	.LVL344:
 2539 0012 0146     		mov	r1, r0
 2540              	.LVL345:
 2541 0014 07A8     		add	r0, sp, #28
 2542              	.LVL346:
 2543 0016 FFF7FEFF 		bl	memcpy
 2544              	.LVL347:
 945:RC522.c       **** 	result = PCD_CalculateCRC(cmdBuffer, sendLen, &cmdBuffer[sendLen]);
 2545              		.loc 1 945 0
 2546 001a 07AB     		add	r3, sp, #28
 2547 001c 1A19     		adds	r2, r3, r4
 2548 001e 2146     		mov	r1, r4
 2549 0020 1846     		mov	r0, r3
 2550 0022 FFF7FEFF 		bl	PCD_CalculateCRC
 2551              	.LVL348:
 946:RC522.c       **** 	if (result != STATUS_OK) { 
 2552              		.loc 1 946 0
 2553 0026 58BB     		cbnz	r0, .L202
 947:RC522.c       **** 		return result;
 948:RC522.c       **** 	}
 949:RC522.c       **** 	sendLen += 2;
 2554              		.loc 1 949 0
 2555 0028 A11C     		adds	r1, r4, #2
 2556              	.LVL349:
 950:RC522.c       **** 	
 951:RC522.c       **** 	// Transceive the data, store the reply in cmdBuffer[]
 952:RC522.c       **** 	unsigned char waitIRq = 0x30;		// RxIRq and IdleIRq
 953:RC522.c       **** 	unsigned char cmdBufferSize = sizeof(cmdBuffer);
 2557              		.loc 1 953 0
 2558 002a 1223     		movs	r3, #18
 2559 002c 8DF81B30 		strb	r3, [sp, #27]
 954:RC522.c       **** 	unsigned char validBits = 0;
 2560              		.loc 1 954 0
 2561 0030 0023     		movs	r3, #0
 2562 0032 8DF81A30 		strb	r3, [sp, #26]
 955:RC522.c       **** 	result = PCD_CommunicateWithPICC(PCD_Transceive, waitIRq, cmdBuffer, sendLen, cmdBuffer, &cmdBuffe
 2563              		.loc 1 955 0
 2564 0036 07AA     		add	r2, sp, #28
 2565 0038 0493     		str	r3, [sp, #16]
 2566 003a 0393     		str	r3, [sp, #12]
 2567 003c 0DF11A03 		add	r3, sp, #26
 2568 0040 0293     		str	r3, [sp, #8]
 2569 0042 0DF11B03 		add	r3, sp, #27
 2570 0046 0193     		str	r3, [sp, #4]
 2571 0048 0092     		str	r2, [sp]
 2572 004a CBB2     		uxtb	r3, r1
 2573 004c 3021     		movs	r1, #48
 2574              	.LVL350:
 2575 004e 0C20     		movs	r0, #12
 2576              	.LVL351:
 2577 0050 FFF7FEFF 		bl	PCD_CommunicateWithPICC
 2578              	.LVL352:
 956:RC522.c       **** 	if (acceptTimeout && result == STATUS_TIMEOUT) {
 2579              		.loc 1 956 0
 2580 0054 0DB1     		cbz	r5, .L199
 2581              		.loc 1 956 0 is_stmt 0 discriminator 1
 2582 0056 0328     		cmp	r0, #3
ARM GAS  C:\Users\nikod\AppData\Local\Temp\ccxvSPxN.s 			page 65


 2583 0058 13D0     		beq	.L203
 2584              	.L199:
 957:RC522.c       **** 		return STATUS_OK;
 958:RC522.c       **** 	}
 959:RC522.c       **** 	if (result != STATUS_OK) {
 2585              		.loc 1 959 0 is_stmt 1
 2586 005a B8B9     		cbnz	r0, .L198
 960:RC522.c       **** 		return result;
 961:RC522.c       **** 	}
 962:RC522.c       **** 	// The PICC must reply with a 4 bit ACK
 963:RC522.c       **** 	if (cmdBufferSize != 1 || validBits != 4) {
 2587              		.loc 1 963 0
 2588 005c 9DF81B00 		ldrb	r0, [sp, #27]	@ zero_extendqisi2
 2589              	.LVL353:
 2590 0060 0128     		cmp	r0, #1
 2591 0062 10D1     		bne	.L205
 2592              		.loc 1 963 0 is_stmt 0 discriminator 1
 2593 0064 9DF81A30 		ldrb	r3, [sp, #26]	@ zero_extendqisi2
 2594 0068 042B     		cmp	r3, #4
 2595 006a 0FD1     		bne	.L198
 964:RC522.c       **** 		return STATUS_ERROR;
 965:RC522.c       **** 	}
 966:RC522.c       **** 	if (cmdBuffer[0] != 0xA) { //MI_ACK
 2596              		.loc 1 966 0 is_stmt 1
 2597 006c 9DF81C30 		ldrb	r3, [sp, #28]	@ zero_extendqisi2
 2598 0070 0A2B     		cmp	r3, #10
 2599 0072 0AD0     		beq	.L206
 967:RC522.c       **** 		return STATUS_MIFARE_NACK;
 2600              		.loc 1 967 0
 2601 0074 FF20     		movs	r0, #255
 2602 0076 09E0     		b	.L198
 2603              	.LVL354:
 2604              	.L200:
 2605              		.cfi_def_cfa_offset 0
 2606              		.cfi_restore 4
 2607              		.cfi_restore 5
 2608              		.cfi_restore 14
 940:RC522.c       **** 	}
 2609              		.loc 1 940 0
 2610 0078 0620     		movs	r0, #6
 2611              	.LVL355:
 968:RC522.c       **** 	}
 969:RC522.c       **** 	return STATUS_OK;
 970:RC522.c       **** } // End PCD_MIFARE_Transceive()
 2612              		.loc 1 970 0
 2613 007a 7047     		bx	lr
 2614              	.LVL356:
 2615              	.L201:
 940:RC522.c       **** 	}
 2616              		.loc 1 940 0
 2617 007c 0620     		movs	r0, #6
 2618              	.LVL357:
 2619 007e 7047     		bx	lr
 2620              	.LVL358:
 2621              	.L202:
 2622              		.cfi_def_cfa_offset 64
 2623              		.cfi_offset 4, -12
ARM GAS  C:\Users\nikod\AppData\Local\Temp\ccxvSPxN.s 			page 66


 2624              		.cfi_offset 5, -8
 2625              		.cfi_offset 14, -4
 2626 0080 04E0     		b	.L198
 2627              	.LVL359:
 2628              	.L203:
 957:RC522.c       **** 	}
 2629              		.loc 1 957 0
 2630 0082 0020     		movs	r0, #0
 2631              	.LVL360:
 2632 0084 02E0     		b	.L198
 2633              	.L205:
 964:RC522.c       **** 	}
 2634              		.loc 1 964 0
 2635 0086 0120     		movs	r0, #1
 2636 0088 00E0     		b	.L198
 2637              	.L206:
 969:RC522.c       **** } // End PCD_MIFARE_Transceive()
 2638              		.loc 1 969 0
 2639 008a 0020     		movs	r0, #0
 2640              	.LVL361:
 2641              	.L198:
 2642              		.loc 1 970 0
 2643 008c 0DB0     		add	sp, sp, #52
 2644              		.cfi_def_cfa_offset 12
 2645              		@ sp needed
 2646 008e 30BD     		pop	{r4, r5, pc}
 2647              		.cfi_endproc
 2648              	.LFE100:
 2649              		.size	PCD_MIFARE_Transceive, .-PCD_MIFARE_Transceive
 2650              		.section	.text.MIFARE_Write,"ax",%progbits
 2651              		.align	2
 2652              		.global	MIFARE_Write
 2653              		.thumb
 2654              		.thumb_func
 2655              		.type	MIFARE_Write, %function
 2656              	MIFARE_Write:
 2657              	.LFB90:
 743:RC522.c       **** 	unsigned char result;
 2658              		.loc 1 743 0
 2659              		.cfi_startproc
 2660              		@ args = 0, pretend = 0, frame = 8
 2661              		@ frame_needed = 0, uses_anonymous_args = 0
 2662              	.LVL362:
 747:RC522.c       **** 		return STATUS_INVALID;
 2663              		.loc 1 747 0
 2664 0000 B9B1     		cbz	r1, .L211
 747:RC522.c       **** 		return STATUS_INVALID;
 2665              		.loc 1 747 0 is_stmt 0 discriminator 1
 2666 0002 0F2A     		cmp	r2, #15
 2667 0004 17D9     		bls	.L212
 743:RC522.c       **** 	unsigned char result;
 2668              		.loc 1 743 0 is_stmt 1
 2669 0006 30B5     		push	{r4, r5, lr}
 2670              		.cfi_def_cfa_offset 12
 2671              		.cfi_offset 4, -12
 2672              		.cfi_offset 5, -8
 2673              		.cfi_offset 14, -4
ARM GAS  C:\Users\nikod\AppData\Local\Temp\ccxvSPxN.s 			page 67


 2674 0008 83B0     		sub	sp, sp, #12
 2675              		.cfi_def_cfa_offset 24
 2676 000a 0D46     		mov	r5, r1
 2677 000c 1446     		mov	r4, r2
 755:RC522.c       **** 	cmdBuffer[1] = blockAddr;
 2678              		.loc 1 755 0
 2679 000e A023     		movs	r3, #160
 2680 0010 8DF80430 		strb	r3, [sp, #4]
 756:RC522.c       **** 	result = PCD_MIFARE_Transceive(cmdBuffer, 2,false); // Adds CRC_A and checks that the response is 
 2681              		.loc 1 756 0
 2682 0014 8DF80500 		strb	r0, [sp, #5]
 757:RC522.c       **** 	if (result != STATUS_OK) {
 2683              		.loc 1 757 0
 2684 0018 0022     		movs	r2, #0
 2685              	.LVL363:
 2686 001a 0221     		movs	r1, #2
 2687              	.LVL364:
 2688 001c 01A8     		add	r0, sp, #4
 2689              	.LVL365:
 2690 001e FFF7FEFF 		bl	PCD_MIFARE_Transceive
 2691              	.LVL366:
 758:RC522.c       **** 		return result;
 2692              		.loc 1 758 0
 2693 0022 50B9     		cbnz	r0, .L213
 763:RC522.c       **** 	if (result != STATUS_OK) {
 2694              		.loc 1 763 0
 2695 0024 0022     		movs	r2, #0
 2696 0026 2146     		mov	r1, r4
 2697 0028 2846     		mov	r0, r5
 2698              	.LVL367:
 2699 002a FFF7FEFF 		bl	PCD_MIFARE_Transceive
 2700              	.LVL368:
 764:RC522.c       **** 		return result;
 2701              		.loc 1 764 0
 2702 002e 28B9     		cbnz	r0, .L214
 2703 0030 04E0     		b	.L210
 2704              	.LVL369:
 2705              	.L211:
 2706              		.cfi_def_cfa_offset 0
 2707              		.cfi_restore 4
 2708              		.cfi_restore 5
 2709              		.cfi_restore 14
 748:RC522.c       **** }
 2710              		.loc 1 748 0
 2711 0032 0620     		movs	r0, #6
 2712              	.LVL370:
 769:RC522.c       **** 
 2713              		.loc 1 769 0
 2714 0034 7047     		bx	lr
 2715              	.LVL371:
 2716              	.L212:
 748:RC522.c       **** }
 2717              		.loc 1 748 0
 2718 0036 0620     		movs	r0, #6
 2719              	.LVL372:
 2720 0038 7047     		bx	lr
 2721              	.LVL373:
ARM GAS  C:\Users\nikod\AppData\Local\Temp\ccxvSPxN.s 			page 68


 2722              	.L213:
 2723              		.cfi_def_cfa_offset 24
 2724              		.cfi_offset 4, -12
 2725              		.cfi_offset 5, -8
 2726              		.cfi_offset 14, -4
 2727 003a FFE7     		b	.L210
 2728              	.L214:
 2729              	.L210:
 769:RC522.c       **** 
 2730              		.loc 1 769 0
 2731 003c 03B0     		add	sp, sp, #12
 2732              		.cfi_def_cfa_offset 12
 2733              		@ sp needed
 2734 003e 30BD     		pop	{r4, r5, pc}
 2735              		.cfi_endproc
 2736              	.LFE90:
 2737              		.size	MIFARE_Write, .-MIFARE_Write
 2738              		.section	.text.MIFARE_SetValue,"ax",%progbits
 2739              		.align	2
 2740              		.global	MIFARE_SetValue
 2741              		.thumb
 2742              		.thumb_func
 2743              		.type	MIFARE_SetValue, %function
 2744              	MIFARE_SetValue:
 2745              	.LFB98:
 876:RC522.c       **** 	unsigned char buffer[18];
 2746              		.loc 1 876 0
 2747              		.cfi_startproc
 2748              		@ args = 0, pretend = 0, frame = 24
 2749              		@ frame_needed = 0, uses_anonymous_args = 0
 2750              	.LVL374:
 2751 0000 30B5     		push	{r4, r5, lr}
 2752              		.cfi_def_cfa_offset 12
 2753              		.cfi_offset 4, -12
 2754              		.cfi_offset 5, -8
 2755              		.cfi_offset 14, -4
 2756 0002 87B0     		sub	sp, sp, #28
 2757              		.cfi_def_cfa_offset 40
 879:RC522.c       **** 	buffer[1] = buffer[ 9] = (value & 0xFF00) >> 8;
 2758              		.loc 1 879 0
 2759 0004 CDB2     		uxtb	r5, r1
 2760 0006 8DF80C50 		strb	r5, [sp, #12]
 2761 000a 8DF80450 		strb	r5, [sp, #4]
 880:RC522.c       **** 	buffer[2] = buffer[10] = (value & 0xFF0000) >> 16;
 2762              		.loc 1 880 0
 2763 000e C1F30724 		ubfx	r4, r1, #8, #8
 2764 0012 8DF80D40 		strb	r4, [sp, #13]
 2765 0016 8DF80540 		strb	r4, [sp, #5]
 881:RC522.c       **** 	buffer[3] = buffer[11] = (value & 0xFF000000) >> 24;
 2766              		.loc 1 881 0
 2767 001a C1F30742 		ubfx	r2, r1, #16, #8
 2768 001e 8DF80E20 		strb	r2, [sp, #14]
 2769 0022 8DF80620 		strb	r2, [sp, #6]
 882:RC522.c       **** 	// Inverse 4 bytes also found in value block
 2770              		.loc 1 882 0
 2771 0026 090E     		lsrs	r1, r1, #24
 2772              	.LVL375:
ARM GAS  C:\Users\nikod\AppData\Local\Temp\ccxvSPxN.s 			page 69


 2773 0028 8DF80F10 		strb	r1, [sp, #15]
 2774 002c 8DF80710 		strb	r1, [sp, #7]
 884:RC522.c       **** 	buffer[5] = ~buffer[1];
 2775              		.loc 1 884 0
 2776 0030 ED43     		mvns	r5, r5
 2777 0032 8DF80850 		strb	r5, [sp, #8]
 885:RC522.c       **** 	buffer[6] = ~buffer[2];
 2778              		.loc 1 885 0
 2779 0036 E443     		mvns	r4, r4
 2780 0038 8DF80940 		strb	r4, [sp, #9]
 886:RC522.c       **** 	buffer[7] = ~buffer[3];
 2781              		.loc 1 886 0
 2782 003c D243     		mvns	r2, r2
 2783 003e 8DF80A20 		strb	r2, [sp, #10]
 887:RC522.c       **** 	// Address 2x with inverse address 2x
 2784              		.loc 1 887 0
 2785 0042 C943     		mvns	r1, r1
 2786 0044 8DF80B10 		strb	r1, [sp, #11]
 889:RC522.c       **** 	buffer[13] = buffer[15] = ~blockAddr;
 2787              		.loc 1 889 0
 2788 0048 8DF81200 		strb	r0, [sp, #18]
 2789 004c 8DF81000 		strb	r0, [sp, #16]
 890:RC522.c       **** 	
 2790              		.loc 1 890 0
 2791 0050 C343     		mvns	r3, r0
 2792 0052 DBB2     		uxtb	r3, r3
 2793 0054 8DF81330 		strb	r3, [sp, #19]
 2794 0058 8DF81130 		strb	r3, [sp, #17]
 893:RC522.c       **** } // End MIFARE_SetValue()
 2795              		.loc 1 893 0
 2796 005c 1022     		movs	r2, #16
 2797 005e 01A9     		add	r1, sp, #4
 2798 0060 FFF7FEFF 		bl	MIFARE_Write
 2799              	.LVL376:
 894:RC522.c       **** 
 2800              		.loc 1 894 0
 2801 0064 07B0     		add	sp, sp, #28
 2802              		.cfi_def_cfa_offset 12
 2803              		@ sp needed
 2804 0066 30BD     		pop	{r4, r5, pc}
 2805              		.cfi_endproc
 2806              	.LFE98:
 2807              		.size	MIFARE_SetValue, .-MIFARE_SetValue
 2808              		.section	.text.MIFARE_Ultralight_Write,"ax",%progbits
 2809              		.align	2
 2810              		.global	MIFARE_Ultralight_Write
 2811              		.thumb
 2812              		.thumb_func
 2813              		.type	MIFARE_Ultralight_Write, %function
 2814              	MIFARE_Ultralight_Write:
 2815              	.LFB91:
 775:RC522.c       **** 	unsigned char result;
 2816              		.loc 1 775 0
 2817              		.cfi_startproc
 2818              		@ args = 0, pretend = 0, frame = 8
 2819              		@ frame_needed = 0, uses_anonymous_args = 0
 2820              	.LVL377:
ARM GAS  C:\Users\nikod\AppData\Local\Temp\ccxvSPxN.s 			page 70


 779:RC522.c       **** 		return STATUS_INVALID;
 2821              		.loc 1 779 0
 2822 0000 91B1     		cbz	r1, .L221
 779:RC522.c       **** 		return STATUS_INVALID;
 2823              		.loc 1 779 0 is_stmt 0 discriminator 1
 2824 0002 032A     		cmp	r2, #3
 2825 0004 12D9     		bls	.L222
 775:RC522.c       **** 	unsigned char result;
 2826              		.loc 1 775 0 is_stmt 1
 2827 0006 00B5     		push	{lr}
 2828              		.cfi_def_cfa_offset 4
 2829              		.cfi_offset 14, -4
 2830 0008 83B0     		sub	sp, sp, #12
 2831              		.cfi_def_cfa_offset 16
 785:RC522.c       **** 	cmdBuffer[1] = page;
 2832              		.loc 1 785 0
 2833 000a A222     		movs	r2, #162
 2834              	.LVL378:
 2835 000c 8DF80020 		strb	r2, [sp]
 786:RC522.c       **** 	memcpy(&cmdBuffer[2], buffer, 4);
 2836              		.loc 1 786 0
 2837 0010 8DF80100 		strb	r0, [sp, #1]
 787:RC522.c       **** 	
 2838              		.loc 1 787 0
 2839 0014 0B68     		ldr	r3, [r1]	@ unaligned
 2840 0016 CDF80230 		str	r3, [sp, #2]	@ unaligned
 790:RC522.c       **** 	if (result != STATUS_OK) {
 2841              		.loc 1 790 0
 2842 001a 0022     		movs	r2, #0
 2843 001c 0621     		movs	r1, #6
 2844              	.LVL379:
 2845 001e 6846     		mov	r0, sp
 2846              	.LVL380:
 2847 0020 FFF7FEFF 		bl	PCD_MIFARE_Transceive
 2848              	.LVL381:
 791:RC522.c       **** 		return result;
 2849              		.loc 1 791 0
 2850 0024 20B9     		cbnz	r0, .L223
 2851 0026 03E0     		b	.L220
 2852              	.LVL382:
 2853              	.L221:
 2854              		.cfi_def_cfa_offset 0
 2855              		.cfi_restore 14
 780:RC522.c       **** 	}
 2856              		.loc 1 780 0
 2857 0028 0620     		movs	r0, #6
 2858              	.LVL383:
 795:RC522.c       **** 
 2859              		.loc 1 795 0
 2860 002a 7047     		bx	lr
 2861              	.LVL384:
 2862              	.L222:
 780:RC522.c       **** 	}
 2863              		.loc 1 780 0
 2864 002c 0620     		movs	r0, #6
 2865              	.LVL385:
 2866 002e 7047     		bx	lr
ARM GAS  C:\Users\nikod\AppData\Local\Temp\ccxvSPxN.s 			page 71


 2867              	.LVL386:
 2868              	.L223:
 2869              		.cfi_def_cfa_offset 16
 2870              		.cfi_offset 14, -4
 2871              	.L220:
 795:RC522.c       **** 
 2872              		.loc 1 795 0
 2873 0030 03B0     		add	sp, sp, #12
 2874              		.cfi_def_cfa_offset 4
 2875              		@ sp needed
 2876 0032 5DF804FB 		ldr	pc, [sp], #4
 2877              		.cfi_endproc
 2878              	.LFE91:
 2879              		.size	MIFARE_Ultralight_Write, .-MIFARE_Ultralight_Write
 2880 0036 00BF     		.section	.text.MIFARE_TwoStepHelper,"ax",%progbits
 2881              		.align	2
 2882              		.global	MIFARE_TwoStepHelper
 2883              		.thumb
 2884              		.thumb_func
 2885              		.type	MIFARE_TwoStepHelper, %function
 2886              	MIFARE_TwoStepHelper:
 2887              	.LFB95:
 821:RC522.c       **** 	unsigned char result;
 2888              		.loc 1 821 0
 2889              		.cfi_startproc
 2890              		@ args = 0, pretend = 0, frame = 16
 2891              		@ frame_needed = 0, uses_anonymous_args = 0
 2892              	.LVL387:
 2893 0000 00B5     		push	{lr}
 2894              		.cfi_def_cfa_offset 4
 2895              		.cfi_offset 14, -4
 2896 0002 85B0     		sub	sp, sp, #20
 2897              		.cfi_def_cfa_offset 24
 2898 0004 0192     		str	r2, [sp, #4]
 826:RC522.c       **** 	cmdBuffer[1] = blockAddr;
 2899              		.loc 1 826 0
 2900 0006 8DF80C00 		strb	r0, [sp, #12]
 827:RC522.c       **** 	result = PCD_MIFARE_Transceive(	cmdBuffer, 2, false); // Adds CRC_A and checks that the response i
 2901              		.loc 1 827 0
 2902 000a 8DF80D10 		strb	r1, [sp, #13]
 828:RC522.c       **** 	if (result != STATUS_OK) {
 2903              		.loc 1 828 0
 2904 000e 0022     		movs	r2, #0
 2905              	.LVL388:
 2906 0010 0221     		movs	r1, #2
 2907              	.LVL389:
 2908 0012 03A8     		add	r0, sp, #12
 2909              	.LVL390:
 2910 0014 FFF7FEFF 		bl	PCD_MIFARE_Transceive
 2911              	.LVL391:
 829:RC522.c       **** 		return result;
 2912              		.loc 1 829 0
 2913 0018 38B9     		cbnz	r0, .L228
 833:RC522.c       **** 	if (result != STATUS_OK) {
 2914              		.loc 1 833 0
 2915 001a 0122     		movs	r2, #1
 2916 001c 0421     		movs	r1, #4
ARM GAS  C:\Users\nikod\AppData\Local\Temp\ccxvSPxN.s 			page 72


 2917 001e 0DEB0100 		add	r0, sp, r1
 2918              	.LVL392:
 2919 0022 FFF7FEFF 		bl	PCD_MIFARE_Transceive
 2920              	.LVL393:
 834:RC522.c       **** 		return result;
 2921              		.loc 1 834 0
 2922 0026 08B9     		cbnz	r0, .L229
 2923 0028 00E0     		b	.L227
 2924              	.L228:
 2925 002a FFE7     		b	.L227
 2926              	.L229:
 2927              	.L227:
 839:RC522.c       **** 
 2928              		.loc 1 839 0
 2929 002c 05B0     		add	sp, sp, #20
 2930              		.cfi_def_cfa_offset 4
 2931              		@ sp needed
 2932 002e 5DF804FB 		ldr	pc, [sp], #4
 2933              		.cfi_endproc
 2934              	.LFE95:
 2935              		.size	MIFARE_TwoStepHelper, .-MIFARE_TwoStepHelper
 2936 0032 00BF     		.section	.text.MIFARE_Decrement,"ax",%progbits
 2937              		.align	2
 2938              		.global	MIFARE_Decrement
 2939              		.thumb
 2940              		.thumb_func
 2941              		.type	MIFARE_Decrement, %function
 2942              	MIFARE_Decrement:
 2943              	.LFB92:
 799:RC522.c       **** 	return MIFARE_TwoStepHelper(PICC_CMD_MF_DECREMENT, blockAddr, delta);
 2944              		.loc 1 799 0
 2945              		.cfi_startproc
 2946              		@ args = 0, pretend = 0, frame = 0
 2947              		@ frame_needed = 0, uses_anonymous_args = 0
 2948              	.LVL394:
 2949 0000 08B5     		push	{r3, lr}
 2950              		.cfi_def_cfa_offset 8
 2951              		.cfi_offset 3, -8
 2952              		.cfi_offset 14, -4
 800:RC522.c       **** }
 2953              		.loc 1 800 0
 2954 0002 0A46     		mov	r2, r1
 2955 0004 0146     		mov	r1, r0
 2956              	.LVL395:
 2957 0006 C020     		movs	r0, #192
 2958              	.LVL396:
 2959 0008 FFF7FEFF 		bl	MIFARE_TwoStepHelper
 2960              	.LVL397:
 801:RC522.c       **** 
 2961              		.loc 1 801 0
 2962 000c 08BD     		pop	{r3, pc}
 2963              		.cfi_endproc
 2964              	.LFE92:
 2965              		.size	MIFARE_Decrement, .-MIFARE_Decrement
 2966 000e 00BF     		.section	.text.MIFARE_Increment,"ax",%progbits
 2967              		.align	2
 2968              		.global	MIFARE_Increment
ARM GAS  C:\Users\nikod\AppData\Local\Temp\ccxvSPxN.s 			page 73


 2969              		.thumb
 2970              		.thumb_func
 2971              		.type	MIFARE_Increment, %function
 2972              	MIFARE_Increment:
 2973              	.LFB93:
 805:RC522.c       **** 	return MIFARE_TwoStepHelper(PICC_CMD_MF_INCREMENT, blockAddr, delta);
 2974              		.loc 1 805 0
 2975              		.cfi_startproc
 2976              		@ args = 0, pretend = 0, frame = 0
 2977              		@ frame_needed = 0, uses_anonymous_args = 0
 2978              	.LVL398:
 2979 0000 08B5     		push	{r3, lr}
 2980              		.cfi_def_cfa_offset 8
 2981              		.cfi_offset 3, -8
 2982              		.cfi_offset 14, -4
 806:RC522.c       **** } // End MIFARE_Increment()
 2983              		.loc 1 806 0
 2984 0002 0A46     		mov	r2, r1
 2985 0004 0146     		mov	r1, r0
 2986              	.LVL399:
 2987 0006 C120     		movs	r0, #193
 2988              	.LVL400:
 2989 0008 FFF7FEFF 		bl	MIFARE_TwoStepHelper
 2990              	.LVL401:
 807:RC522.c       **** 
 2991              		.loc 1 807 0
 2992 000c 08BD     		pop	{r3, pc}
 2993              		.cfi_endproc
 2994              	.LFE93:
 2995              		.size	MIFARE_Increment, .-MIFARE_Increment
 2996 000e 00BF     		.section	.text.MIFARE_Restore,"ax",%progbits
 2997              		.align	2
 2998              		.global	MIFARE_Restore
 2999              		.thumb
 3000              		.thumb_func
 3001              		.type	MIFARE_Restore, %function
 3002              	MIFARE_Restore:
 3003              	.LFB94:
 811:RC522.c       **** 	// The datasheet describes Restore as a two step operation, but does not explain what data to tran
 3004              		.loc 1 811 0
 3005              		.cfi_startproc
 3006              		@ args = 0, pretend = 0, frame = 0
 3007              		@ frame_needed = 0, uses_anonymous_args = 0
 3008              	.LVL402:
 3009 0000 08B5     		push	{r3, lr}
 3010              		.cfi_def_cfa_offset 8
 3011              		.cfi_offset 3, -8
 3012              		.cfi_offset 14, -4
 814:RC522.c       **** } // End MIFARE_Restore()
 3013              		.loc 1 814 0
 3014 0002 0022     		movs	r2, #0
 3015 0004 0146     		mov	r1, r0
 3016 0006 C220     		movs	r0, #194
 3017              	.LVL403:
 3018 0008 FFF7FEFF 		bl	MIFARE_TwoStepHelper
 3019              	.LVL404:
 815:RC522.c       **** 
ARM GAS  C:\Users\nikod\AppData\Local\Temp\ccxvSPxN.s 			page 74


 3020              		.loc 1 815 0
 3021 000c 08BD     		pop	{r3, pc}
 3022              		.cfi_endproc
 3023              	.LFE94:
 3024              		.size	MIFARE_Restore, .-MIFARE_Restore
 3025 000e 00BF     		.section	.text.MIFARE_Transfer,"ax",%progbits
 3026              		.align	2
 3027              		.global	MIFARE_Transfer
 3028              		.thumb
 3029              		.thumb_func
 3030              		.type	MIFARE_Transfer, %function
 3031              	MIFARE_Transfer:
 3032              	.LFB96:
 843:RC522.c       **** 	unsigned char result;
 3033              		.loc 1 843 0
 3034              		.cfi_startproc
 3035              		@ args = 0, pretend = 0, frame = 8
 3036              		@ frame_needed = 0, uses_anonymous_args = 0
 3037              	.LVL405:
 3038 0000 00B5     		push	{lr}
 3039              		.cfi_def_cfa_offset 4
 3040              		.cfi_offset 14, -4
 3041 0002 83B0     		sub	sp, sp, #12
 3042              		.cfi_def_cfa_offset 16
 848:RC522.c       **** 	cmdBuffer[1] = blockAddr;
 3043              		.loc 1 848 0
 3044 0004 B023     		movs	r3, #176
 3045 0006 8DF80430 		strb	r3, [sp, #4]
 849:RC522.c       **** 	result = PCD_MIFARE_Transceive(	cmdBuffer, 2, false); // Adds CRC_A and checks that the response i
 3046              		.loc 1 849 0
 3047 000a 8DF80500 		strb	r0, [sp, #5]
 850:RC522.c       **** 	if (result != STATUS_OK) {
 3048              		.loc 1 850 0
 3049 000e 0022     		movs	r2, #0
 3050 0010 0221     		movs	r1, #2
 3051 0012 01A8     		add	r0, sp, #4
 3052              	.LVL406:
 3053 0014 FFF7FEFF 		bl	PCD_MIFARE_Transceive
 3054              	.LVL407:
 851:RC522.c       **** 		return result;
 3055              		.loc 1 851 0
 3056 0018 0028     		cmp	r0, #0
 3057 001a FFD0     		beq	.L238
 3058              	.L238:
 855:RC522.c       **** 
 3059              		.loc 1 855 0
 3060 001c 03B0     		add	sp, sp, #12
 3061              		.cfi_def_cfa_offset 4
 3062              		@ sp needed
 3063 001e 5DF804FB 		ldr	pc, [sp], #4
 3064              		.cfi_endproc
 3065              	.LFE96:
 3066              		.size	MIFARE_Transfer, .-MIFARE_Transfer
 3067 0022 00BF     		.section	.text.PICC_IsNewCardPresent,"ax",%progbits
 3068              		.align	2
 3069              		.global	PICC_IsNewCardPresent
 3070              		.thumb
ARM GAS  C:\Users\nikod\AppData\Local\Temp\ccxvSPxN.s 			page 75


 3071              		.thumb_func
 3072              		.type	PICC_IsNewCardPresent, %function
 3073              	PICC_IsNewCardPresent:
 3074              	.LFB101:
 971:RC522.c       **** 
 972:RC522.c       **** 
 973:RC522.c       **** bool PICC_IsNewCardPresent(void) {
 3075              		.loc 1 973 0
 3076              		.cfi_startproc
 3077              		@ args = 0, pretend = 0, frame = 8
 3078              		@ frame_needed = 0, uses_anonymous_args = 0
 3079 0000 10B5     		push	{r4, lr}
 3080              		.cfi_def_cfa_offset 8
 3081              		.cfi_offset 4, -8
 3082              		.cfi_offset 14, -4
 3083 0002 82B0     		sub	sp, sp, #8
 3084              		.cfi_def_cfa_offset 16
 974:RC522.c       **** 	unsigned char bufferATQA[2];
 975:RC522.c       **** 	unsigned char bufferSize = sizeof(bufferATQA);
 3085              		.loc 1 975 0
 3086 0004 02AC     		add	r4, sp, #8
 3087 0006 0223     		movs	r3, #2
 3088 0008 04F8053D 		strb	r3, [r4, #-5]!
 976:RC522.c       **** 	// Reset baud rates
 977:RC522.c       **** 	PCD_WriteRegister(TxModeReg, 0x00);
 3089              		.loc 1 977 0
 3090 000c 0021     		movs	r1, #0
 3091 000e 1220     		movs	r0, #18
 3092 0010 FFF7FEFF 		bl	PCD_WriteRegister
 3093              	.LVL408:
 978:RC522.c       **** 	PCD_WriteRegister(RxModeReg, 0x00);
 3094              		.loc 1 978 0
 3095 0014 0021     		movs	r1, #0
 3096 0016 1320     		movs	r0, #19
 3097 0018 FFF7FEFF 		bl	PCD_WriteRegister
 3098              	.LVL409:
 979:RC522.c       **** 	// Reset ModWidthReg
 980:RC522.c       **** 	PCD_WriteRegister(ModWidthReg, 0x26);
 3099              		.loc 1 980 0
 3100 001c 2621     		movs	r1, #38
 3101 001e 2420     		movs	r0, #36
 3102 0020 FFF7FEFF 		bl	PCD_WriteRegister
 3103              	.LVL410:
 981:RC522.c       **** 
 982:RC522.c       **** 	unsigned char result = PICC_RequestA(bufferATQA, &bufferSize);
 3104              		.loc 1 982 0
 3105 0024 2146     		mov	r1, r4
 3106 0026 01A8     		add	r0, sp, #4
 3107 0028 FFF7FEFF 		bl	PICC_RequestA
 3108              	.LVL411:
 983:RC522.c       **** 	
 984:RC522.c       ****     if((result == STATUS_OK || result == STATUS_COLLISION)){
 3109              		.loc 1 984 0
 3110 002c 18B1     		cbz	r0, .L243
 3111              		.loc 1 984 0 is_stmt 0 discriminator 1
 3112 002e 0228     		cmp	r0, #2
 3113 0030 03D1     		bne	.L244
ARM GAS  C:\Users\nikod\AppData\Local\Temp\ccxvSPxN.s 			page 76


 985:RC522.c       ****         return true;
 3114              		.loc 1 985 0 is_stmt 1
 3115 0032 0120     		movs	r0, #1
 3116              	.LVL412:
 3117 0034 02E0     		b	.L242
 3118              	.LVL413:
 3119              	.L243:
 3120 0036 0120     		movs	r0, #1
 3121              	.LVL414:
 3122 0038 00E0     		b	.L242
 3123              	.LVL415:
 3124              	.L244:
 986:RC522.c       ****     }else{        
 987:RC522.c       ****         return false;
 3125              		.loc 1 987 0
 3126 003a 0020     		movs	r0, #0
 3127              	.LVL416:
 3128              	.L242:
 988:RC522.c       ****     }
 989:RC522.c       **** } // End PICC_IsNewCardPresent()
 3129              		.loc 1 989 0
 3130 003c 02B0     		add	sp, sp, #8
 3131              		.cfi_def_cfa_offset 8
 3132              		@ sp needed
 3133 003e 10BD     		pop	{r4, pc}
 3134              		.cfi_endproc
 3135              	.LFE101:
 3136              		.size	PICC_IsNewCardPresent, .-PICC_IsNewCardPresent
 3137              		.section	.text.PICC_ReadCardSerial,"ax",%progbits
 3138              		.align	2
 3139              		.global	PICC_ReadCardSerial
 3140              		.thumb
 3141              		.thumb_func
 3142              		.type	PICC_ReadCardSerial, %function
 3143              	PICC_ReadCardSerial:
 3144              	.LFB102:
 990:RC522.c       **** 
 991:RC522.c       **** bool PICC_ReadCardSerial(void) {
 3145              		.loc 1 991 0
 3146              		.cfi_startproc
 3147              		@ args = 0, pretend = 0, frame = 0
 3148              		@ frame_needed = 0, uses_anonymous_args = 0
 3149 0000 08B5     		push	{r3, lr}
 3150              		.cfi_def_cfa_offset 8
 3151              		.cfi_offset 3, -8
 3152              		.cfi_offset 14, -4
 992:RC522.c       **** 	unsigned char result = PICC_Select(&uid,0);
 3153              		.loc 1 992 0
 3154 0002 0021     		movs	r1, #0
 3155 0004 0348     		ldr	r0, .L248
 3156 0006 FFF7FEFF 		bl	PICC_Select
 3157              	.LVL417:
 993:RC522.c       **** 	return (result == STATUS_OK);
 994:RC522.c       **** } // End 
 3158              		.loc 1 994 0
 3159 000a B0FA80F0 		clz	r0, r0
 3160              	.LVL418:
ARM GAS  C:\Users\nikod\AppData\Local\Temp\ccxvSPxN.s 			page 77


 3161 000e 4009     		lsrs	r0, r0, #5
 3162 0010 08BD     		pop	{r3, pc}
 3163              	.L249:
 3164 0012 00BF     		.align	2
 3165              	.L248:
 3166 0014 00000000 		.word	uid
 3167              		.cfi_endproc
 3168              	.LFE102:
 3169              		.size	PICC_ReadCardSerial, .-PICC_ReadCardSerial
 3170              		.comm	readDummy,1,1
 3171              		.comm	readData,1,1
 3172              		.comm	uid,12,4
 3173              		.global	FM17522_firmware_reference
 3174              		.global	MFRC522_firmware_referenceV2_0
 3175              		.global	MFRC522_firmware_referenceV1_0
 3176              		.global	MFRC522_firmware_referenceV0_0
 3177              		.section	.rodata
 3178              		.align	2
 3179              		.type	FM17522_firmware_reference, %object
 3180              		.size	FM17522_firmware_reference, 64
 3181              	FM17522_firmware_reference:
 3182 0000 00       		.byte	0
 3183 0001 D6       		.byte	-42
 3184 0002 78       		.byte	120
 3185 0003 8C       		.byte	-116
 3186 0004 E2       		.byte	-30
 3187 0005 AA       		.byte	-86
 3188 0006 0C       		.byte	12
 3189 0007 18       		.byte	24
 3190 0008 2A       		.byte	42
 3191 0009 B8       		.byte	-72
 3192 000a 7A       		.byte	122
 3193 000b 7F       		.byte	127
 3194 000c D3       		.byte	-45
 3195 000d 6A       		.byte	106
 3196 000e CF       		.byte	-49
 3197 000f 0B       		.byte	11
 3198 0010 B1       		.byte	-79
 3199 0011 37       		.byte	55
 3200 0012 63       		.byte	99
 3201 0013 4B       		.byte	75
 3202 0014 69       		.byte	105
 3203 0015 AE       		.byte	-82
 3204 0016 91       		.byte	-111
 3205 0017 C7       		.byte	-57
 3206 0018 C3       		.byte	-61
 3207 0019 97       		.byte	-105
 3208 001a AE       		.byte	-82
 3209 001b 77       		.byte	119
 3210 001c F4       		.byte	-12
 3211 001d 37       		.byte	55
 3212 001e D7       		.byte	-41
 3213 001f 9B       		.byte	-101
 3214 0020 7C       		.byte	124
 3215 0021 F5       		.byte	-11
 3216 0022 3C       		.byte	60
 3217 0023 11       		.byte	17
ARM GAS  C:\Users\nikod\AppData\Local\Temp\ccxvSPxN.s 			page 78


 3218 0024 8F       		.byte	-113
 3219 0025 15       		.byte	21
 3220 0026 C3       		.byte	-61
 3221 0027 D7       		.byte	-41
 3222 0028 C1       		.byte	-63
 3223 0029 5B       		.byte	91
 3224 002a 00       		.byte	0
 3225 002b 2A       		.byte	42
 3226 002c D0       		.byte	-48
 3227 002d 75       		.byte	117
 3228 002e DE       		.byte	-34
 3229 002f 9E       		.byte	-98
 3230 0030 51       		.byte	81
 3231 0031 64       		.byte	100
 3232 0032 AB       		.byte	-85
 3233 0033 3E       		.byte	62
 3234 0034 E9       		.byte	-23
 3235 0035 15       		.byte	21
 3236 0036 B5       		.byte	-75
 3237 0037 AB       		.byte	-85
 3238 0038 56       		.byte	86
 3239 0039 9A       		.byte	-102
 3240 003a 98       		.byte	-104
 3241 003b 82       		.byte	-126
 3242 003c 26       		.byte	38
 3243 003d EA       		.byte	-22
 3244 003e 2A       		.byte	42
 3245 003f 62       		.byte	98
 3246              		.type	MFRC522_firmware_referenceV2_0, %object
 3247              		.size	MFRC522_firmware_referenceV2_0, 64
 3248              	MFRC522_firmware_referenceV2_0:
 3249 0040 00       		.byte	0
 3250 0041 EB       		.byte	-21
 3251 0042 66       		.byte	102
 3252 0043 BA       		.byte	-70
 3253 0044 57       		.byte	87
 3254 0045 BF       		.byte	-65
 3255 0046 23       		.byte	35
 3256 0047 95       		.byte	-107
 3257 0048 D0       		.byte	-48
 3258 0049 E3       		.byte	-29
 3259 004a 0D       		.byte	13
 3260 004b 3D       		.byte	61
 3261 004c 27       		.byte	39
 3262 004d 89       		.byte	-119
 3263 004e 5C       		.byte	92
 3264 004f DE       		.byte	-34
 3265 0050 9D       		.byte	-99
 3266 0051 3B       		.byte	59
 3267 0052 A7       		.byte	-89
 3268 0053 00       		.byte	0
 3269 0054 21       		.byte	33
 3270 0055 5B       		.byte	91
 3271 0056 89       		.byte	-119
 3272 0057 82       		.byte	-126
 3273 0058 51       		.byte	81
 3274 0059 3A       		.byte	58
ARM GAS  C:\Users\nikod\AppData\Local\Temp\ccxvSPxN.s 			page 79


 3275 005a EB       		.byte	-21
 3276 005b 02       		.byte	2
 3277 005c 0C       		.byte	12
 3278 005d A5       		.byte	-91
 3279 005e 00       		.byte	0
 3280 005f 49       		.byte	73
 3281 0060 7C       		.byte	124
 3282 0061 84       		.byte	-124
 3283 0062 4D       		.byte	77
 3284 0063 B3       		.byte	-77
 3285 0064 CC       		.byte	-52
 3286 0065 D2       		.byte	-46
 3287 0066 1B       		.byte	27
 3288 0067 81       		.byte	-127
 3289 0068 5D       		.byte	93
 3290 0069 48       		.byte	72
 3291 006a 76       		.byte	118
 3292 006b D5       		.byte	-43
 3293 006c 71       		.byte	113
 3294 006d 61       		.byte	97
 3295 006e 21       		.byte	33
 3296 006f A9       		.byte	-87
 3297 0070 86       		.byte	-122
 3298 0071 96       		.byte	-106
 3299 0072 83       		.byte	-125
 3300 0073 38       		.byte	56
 3301 0074 CF       		.byte	-49
 3302 0075 9D       		.byte	-99
 3303 0076 5B       		.byte	91
 3304 0077 6D       		.byte	109
 3305 0078 DC       		.byte	-36
 3306 0079 15       		.byte	21
 3307 007a BA       		.byte	-70
 3308 007b 3E       		.byte	62
 3309 007c 7D       		.byte	125
 3310 007d 95       		.byte	-107
 3311 007e 3B       		.byte	59
 3312 007f 2F       		.byte	47
 3313              		.type	MFRC522_firmware_referenceV1_0, %object
 3314              		.size	MFRC522_firmware_referenceV1_0, 64
 3315              	MFRC522_firmware_referenceV1_0:
 3316 0080 00       		.byte	0
 3317 0081 C6       		.byte	-58
 3318 0082 37       		.byte	55
 3319 0083 D5       		.byte	-43
 3320 0084 32       		.byte	50
 3321 0085 B7       		.byte	-73
 3322 0086 57       		.byte	87
 3323 0087 5C       		.byte	92
 3324 0088 C2       		.byte	-62
 3325 0089 D8       		.byte	-40
 3326 008a 7C       		.byte	124
 3327 008b 4D       		.byte	77
 3328 008c D9       		.byte	-39
 3329 008d 70       		.byte	112
 3330 008e C7       		.byte	-57
 3331 008f 73       		.byte	115
ARM GAS  C:\Users\nikod\AppData\Local\Temp\ccxvSPxN.s 			page 80


 3332 0090 10       		.byte	16
 3333 0091 E6       		.byte	-26
 3334 0092 D2       		.byte	-46
 3335 0093 AA       		.byte	-86
 3336 0094 5E       		.byte	94
 3337 0095 A1       		.byte	-95
 3338 0096 3E       		.byte	62
 3339 0097 5A       		.byte	90
 3340 0098 14       		.byte	20
 3341 0099 AF       		.byte	-81
 3342 009a 30       		.byte	48
 3343 009b 61       		.byte	97
 3344 009c C9       		.byte	-55
 3345 009d 70       		.byte	112
 3346 009e DB       		.byte	-37
 3347 009f 2E       		.byte	46
 3348 00a0 64       		.byte	100
 3349 00a1 22       		.byte	34
 3350 00a2 72       		.byte	114
 3351 00a3 B5       		.byte	-75
 3352 00a4 BD       		.byte	-67
 3353 00a5 65       		.byte	101
 3354 00a6 F4       		.byte	-12
 3355 00a7 EC       		.byte	-20
 3356 00a8 22       		.byte	34
 3357 00a9 BC       		.byte	-68
 3358 00aa D3       		.byte	-45
 3359 00ab 72       		.byte	114
 3360 00ac 35       		.byte	53
 3361 00ad CD       		.byte	-51
 3362 00ae AA       		.byte	-86
 3363 00af 41       		.byte	65
 3364 00b0 1F       		.byte	31
 3365 00b1 A7       		.byte	-89
 3366 00b2 F3       		.byte	-13
 3367 00b3 53       		.byte	83
 3368 00b4 14       		.byte	20
 3369 00b5 DE       		.byte	-34
 3370 00b6 7E       		.byte	126
 3371 00b7 02       		.byte	2
 3372 00b8 D9       		.byte	-39
 3373 00b9 0F       		.byte	15
 3374 00ba B5       		.byte	-75
 3375 00bb 5E       		.byte	94
 3376 00bc 25       		.byte	37
 3377 00bd 1D       		.byte	29
 3378 00be 29       		.byte	41
 3379 00bf 79       		.byte	121
 3380              		.type	MFRC522_firmware_referenceV0_0, %object
 3381              		.size	MFRC522_firmware_referenceV0_0, 64
 3382              	MFRC522_firmware_referenceV0_0:
 3383 00c0 00       		.byte	0
 3384 00c1 87       		.byte	-121
 3385 00c2 98       		.byte	-104
 3386 00c3 0F       		.byte	15
 3387 00c4 49       		.byte	73
 3388 00c5 FF       		.byte	-1
ARM GAS  C:\Users\nikod\AppData\Local\Temp\ccxvSPxN.s 			page 81


 3389 00c6 07       		.byte	7
 3390 00c7 19       		.byte	25
 3391 00c8 BF       		.byte	-65
 3392 00c9 22       		.byte	34
 3393 00ca 30       		.byte	48
 3394 00cb 49       		.byte	73
 3395 00cc 59       		.byte	89
 3396 00cd 63       		.byte	99
 3397 00ce AD       		.byte	-83
 3398 00cf CA       		.byte	-54
 3399 00d0 7F       		.byte	127
 3400 00d1 E3       		.byte	-29
 3401 00d2 4E       		.byte	78
 3402 00d3 03       		.byte	3
 3403 00d4 5C       		.byte	92
 3404 00d5 4E       		.byte	78
 3405 00d6 49       		.byte	73
 3406 00d7 50       		.byte	80
 3407 00d8 47       		.byte	71
 3408 00d9 9A       		.byte	-102
 3409 00da 37       		.byte	55
 3410 00db 61       		.byte	97
 3411 00dc E7       		.byte	-25
 3412 00dd E2       		.byte	-30
 3413 00de C6       		.byte	-58
 3414 00df 2E       		.byte	46
 3415 00e0 75       		.byte	117
 3416 00e1 5A       		.byte	90
 3417 00e2 ED       		.byte	-19
 3418 00e3 04       		.byte	4
 3419 00e4 3D       		.byte	61
 3420 00e5 02       		.byte	2
 3421 00e6 4B       		.byte	75
 3422 00e7 78       		.byte	120
 3423 00e8 32       		.byte	50
 3424 00e9 FF       		.byte	-1
 3425 00ea 58       		.byte	88
 3426 00eb 3B       		.byte	59
 3427 00ec 7C       		.byte	124
 3428 00ed E9       		.byte	-23
 3429 00ee 00       		.byte	0
 3430 00ef 94       		.byte	-108
 3431 00f0 B4       		.byte	-76
 3432 00f1 4A       		.byte	74
 3433 00f2 59       		.byte	89
 3434 00f3 5B       		.byte	91
 3435 00f4 FD       		.byte	-3
 3436 00f5 C9       		.byte	-55
 3437 00f6 29       		.byte	41
 3438 00f7 DF       		.byte	-33
 3439 00f8 35       		.byte	53
 3440 00f9 96       		.byte	-106
 3441 00fa 98       		.byte	-104
 3442 00fb 9E       		.byte	-98
 3443 00fc 4F       		.byte	79
 3444 00fd 30       		.byte	48
 3445 00fe 32       		.byte	50
ARM GAS  C:\Users\nikod\AppData\Local\Temp\ccxvSPxN.s 			page 82


 3446 00ff 8D       		.byte	-115
 3447              		.text
 3448              	.Letext0:
 3449              		.file 2 "c:\\program files (x86)\\cypress\\psoc creator\\4.2\\psoc creator\\import\\gnu\\arm\\5.4.
 3450              		.file 3 "c:\\program files (x86)\\cypress\\psoc creator\\4.2\\psoc creator\\import\\gnu\\arm\\5.4.
 3451              		.file 4 "Generated_Source\\PSoC5/cytypes.h"
 3452              		.file 5 "RC522.h"
 3453              		.file 6 "Generated_Source\\PSoC5/core_cm3.h"
 3454              		.file 7 "Generated_Source\\PSoC5/SPI.h"
 3455              		.file 8 "Generated_Source\\PSoC5/CyLib.h"
 3456              		.file 9 "Generated_Source\\PSoC5/RESET.h"