ARM GAS  C:\Users\nikod\AppData\Local\Temp\cc4NWLo4.s 			page 1


   1              		.syntax unified
   2              		.cpu cortex-m3
   3              		.fpu softvfp
   4              		.eabi_attribute 20, 1
   5              		.eabi_attribute 21, 1
   6              		.eabi_attribute 23, 3
   7              		.eabi_attribute 24, 1
   8              		.eabi_attribute 25, 1
   9              		.eabi_attribute 26, 1
  10              		.eabi_attribute 30, 1
  11              		.eabi_attribute 34, 1
  12              		.eabi_attribute 18, 4
  13              		.thumb
  14              		.syntax unified
  15              		.file	"RC522.c"
  16              		.text
  17              	.Ltext0:
  18              		.cfi_sections	.debug_frame
  19              		.section	.text.PCD_WriteRegister,"ax",%progbits
  20              		.align	2
  21              		.global	PCD_WriteRegister
  22              		.thumb
  23              		.thumb_func
  24              		.type	PCD_WriteRegister, %function
  25              	PCD_WriteRegister:
  26              	.LFB64:
  27              		.file 1 "RC522.c"
   1:RC522.c       **** #include <project.h>
   2:RC522.c       **** #include "SPI.h"
   3:RC522.c       **** #include "CReset.h"
   4:RC522.c       **** #include <string.h>
   5:RC522.c       **** #include <stdio.h>
   6:RC522.c       **** #include <stdint.h>
   7:RC522.c       **** #include <stdbool.h>
   8:RC522.c       **** #include <stddef.h>
   9:RC522.c       **** #include "RC522.h"
  10:RC522.c       **** 
  11:RC522.c       **** 
  12:RC522.c       **** 
  13:RC522.c       **** unsigned char     readData;
  14:RC522.c       **** unsigned char     readDummy;
  15:RC522.c       **** 
  16:RC522.c       **** void PCD_WriteRegister(unsigned char addr, unsigned char value) {
  28              		.loc 1 16 0
  29              		.cfi_startproc
  30              		@ args = 0, pretend = 0, frame = 0
  31              		@ frame_needed = 0, uses_anonymous_args = 0
  32              	.LVL0:
  33 0000 38B5     		push	{r3, r4, r5, lr}
  34              		.cfi_def_cfa_offset 16
  35              		.cfi_offset 3, -16
  36              		.cfi_offset 4, -12
  37              		.cfi_offset 5, -8
  38              		.cfi_offset 14, -4
  39 0002 0446     		mov	r4, r0
  40 0004 0D46     		mov	r5, r1
  41              	.LVL1:
ARM GAS  C:\Users\nikod\AppData\Local\Temp\cc4NWLo4.s 			page 2


  42              	.L2:
  17:RC522.c       ****         //SS = false;
  18:RC522.c       ****         while ( ! (SPI_ReadTxStatus() & SPI_STS_SPI_IDLE) );//Espera a que el canal este disponible
  43              		.loc 1 18 0 discriminator 1
  44 0006 FFF7FEFF 		bl	SPI_ReadTxStatus
  45              	.LVL2:
  46 000a 10F0100F 		tst	r0, #16
  47 000e FAD0     		beq	.L2
  19:RC522.c       ****         SPI_WriteTxData((addr<<1)&0x7E);//Equivalente a SPI.transfer((addr<<1)&0x7E);
  48              		.loc 1 19 0
  49 0010 6000     		lsls	r0, r4, #1
  50 0012 00F07E00 		and	r0, r0, #126
  51 0016 FFF7FEFF 		bl	SPI_WriteTxData
  52              	.LVL3:
  53              	.L3:
  20:RC522.c       ****         while ( ! (SPI_ReadTxStatus() & SPI_STS_SPI_IDLE) );//Espera a que el canal este disponible
  54              		.loc 1 20 0 discriminator 1
  55 001a FFF7FEFF 		bl	SPI_ReadTxStatus
  56              	.LVL4:
  57 001e 10F0100F 		tst	r0, #16
  58 0022 FAD0     		beq	.L3
  21:RC522.c       ****         SPI_WriteTxData(value);// Equivalente a  SPI.transfer(val);
  59              		.loc 1 21 0
  60 0024 2846     		mov	r0, r5
  61 0026 FFF7FEFF 		bl	SPI_WriteTxData
  62              	.LVL5:
  63 002a 38BD     		pop	{r3, r4, r5, pc}
  64              		.cfi_endproc
  65              	.LFE64:
  66              		.size	PCD_WriteRegister, .-PCD_WriteRegister
  67              		.section	.text.PCD_WriteRegisters,"ax",%progbits
  68              		.align	2
  69              		.global	PCD_WriteRegisters
  70              		.thumb
  71              		.thumb_func
  72              		.type	PCD_WriteRegisters, %function
  73              	PCD_WriteRegisters:
  74              	.LFB65:
  22:RC522.c       ****         //SS = true;
  23:RC522.c       **** }
  24:RC522.c       **** void PCD_WriteRegisters( unsigned char addr,unsigned char count,unsigned char *values){
  75              		.loc 1 24 0
  76              		.cfi_startproc
  77              		@ args = 0, pretend = 0, frame = 0
  78              		@ frame_needed = 0, uses_anonymous_args = 0
  79              	.LVL6:
  80 0000 70B5     		push	{r4, r5, r6, lr}
  81              		.cfi_def_cfa_offset 16
  82              		.cfi_offset 4, -16
  83              		.cfi_offset 5, -12
  84              		.cfi_offset 6, -8
  85              		.cfi_offset 14, -4
  86 0002 0446     		mov	r4, r0
  87 0004 0D46     		mov	r5, r1
  88 0006 1646     		mov	r6, r2
  89              	.LVL7:
  90              	.L6:
ARM GAS  C:\Users\nikod\AppData\Local\Temp\cc4NWLo4.s 			page 3


  25:RC522.c       **** 
  26:RC522.c       ****     //SS = false;
  27:RC522.c       ****     while ( ! (SPI_ReadTxStatus() & SPI_STS_SPI_IDLE) );//Espera a que el canal este disponible
  91              		.loc 1 27 0 discriminator 1
  92 0008 FFF7FEFF 		bl	SPI_ReadTxStatus
  93              	.LVL8:
  94 000c 10F0100F 		tst	r0, #16
  95 0010 FAD0     		beq	.L6
  28:RC522.c       ****     SPI_WriteTxData((addr << 1 ) & 0x7E );//Equivalente a SPI.transfer((addr<<1)&0x7E);
  96              		.loc 1 28 0
  97 0012 6000     		lsls	r0, r4, #1
  98 0014 00F07E00 		and	r0, r0, #126
  99 0018 FFF7FEFF 		bl	SPI_WriteTxData
 100              	.LVL9:
 101              	.LBB2:
  29:RC522.c       **** 	// MSB == 0 is for writing. LSB is not used in address. Datasheet section 8.1.2.3.
  30:RC522.c       **** 	for (unsigned char index = 0; index < count; index++) {
 102              		.loc 1 30 0
 103 001c 0024     		movs	r4, #0
 104 001e 09E0     		b	.L7
 105              	.LVL10:
 106              	.L8:
  31:RC522.c       ****         while ( ! (SPI_ReadTxStatus() & SPI_STS_SPI_IDLE) );//Espera a que el canal este disponible
 107              		.loc 1 31 0 discriminator 1
 108 0020 FFF7FEFF 		bl	SPI_ReadTxStatus
 109              	.LVL11:
 110 0024 10F0100F 		tst	r0, #16
 111 0028 FAD0     		beq	.L8
  32:RC522.c       **** 		SPI_WriteTxData(values[index]);
 112              		.loc 1 32 0 discriminator 2
 113 002a 305D     		ldrb	r0, [r6, r4]	@ zero_extendqisi2
 114 002c FFF7FEFF 		bl	SPI_WriteTxData
 115              	.LVL12:
  30:RC522.c       ****         while ( ! (SPI_ReadTxStatus() & SPI_STS_SPI_IDLE) );//Espera a que el canal este disponible
 116              		.loc 1 30 0 discriminator 2
 117 0030 0134     		adds	r4, r4, #1
 118              	.LVL13:
 119 0032 E4B2     		uxtb	r4, r4
 120              	.LVL14:
 121              	.L7:
  30:RC522.c       ****         while ( ! (SPI_ReadTxStatus() & SPI_STS_SPI_IDLE) );//Espera a que el canal este disponible
 122              		.loc 1 30 0 is_stmt 0 discriminator 1
 123 0034 AC42     		cmp	r4, r5
 124 0036 F3D3     		bcc	.L8
 125              	.LBE2:
  33:RC522.c       **** 	}
  34:RC522.c       **** 	//SS = true;
  35:RC522.c       **** }
 126              		.loc 1 35 0 is_stmt 1
 127 0038 70BD     		pop	{r4, r5, r6, pc}
 128              		.cfi_endproc
 129              	.LFE65:
 130              		.size	PCD_WriteRegisters, .-PCD_WriteRegisters
 131 003a 00BF     		.section	.text.PCD_ReadRegister,"ax",%progbits
 132              		.align	2
 133              		.global	PCD_ReadRegister
 134              		.thumb
ARM GAS  C:\Users\nikod\AppData\Local\Temp\cc4NWLo4.s 			page 4


 135              		.thumb_func
 136              		.type	PCD_ReadRegister, %function
 137              	PCD_ReadRegister:
 138              	.LFB66:
  36:RC522.c       **** 
  37:RC522.c       **** unsigned char PCD_ReadRegister(unsigned char addr) {
 139              		.loc 1 37 0
 140              		.cfi_startproc
 141              		@ args = 0, pretend = 0, frame = 0
 142              		@ frame_needed = 0, uses_anonymous_args = 0
 143              	.LVL15:
 144 0000 10B5     		push	{r4, lr}
 145              		.cfi_def_cfa_offset 8
 146              		.cfi_offset 4, -8
 147              		.cfi_offset 14, -4
 148 0002 0446     		mov	r4, r0
 149              	.LVL16:
 150              	.L11:
  38:RC522.c       ****         unsigned char value;
  39:RC522.c       ****         //SS = false;
  40:RC522.c       ****         while (!(SPI_ReadTxStatus()&SPI_STS_SPI_IDLE));//Espera a que el canal este disponible
 151              		.loc 1 40 0 discriminator 1
 152 0004 FFF7FEFF 		bl	SPI_ReadTxStatus
 153              	.LVL17:
 154 0008 10F0100F 		tst	r0, #16
 155 000c FAD0     		beq	.L11
  41:RC522.c       ****         SPI_WriteTxData(((addr<<1)&0x7E)|0x80);// Equivalente a SPI.transfer(((addr<<1)&0x7E) | 0x8
 156              		.loc 1 41 0
 157 000e 6000     		lsls	r0, r4, #1
 158 0010 00F07E00 		and	r0, r0, #126
 159 0014 40F08000 		orr	r0, r0, #128
 160 0018 FFF7FEFF 		bl	SPI_WriteTxData
 161              	.LVL18:
 162              	.L12:
  42:RC522.c       ****         while ( ! (SPI_ReadTxStatus() & SPI_STS_SPI_IDLE) );
 163              		.loc 1 42 0 discriminator 1
 164 001c FFF7FEFF 		bl	SPI_ReadTxStatus
 165              	.LVL19:
 166 0020 10F0100F 		tst	r0, #16
 167 0024 FAD0     		beq	.L12
  43:RC522.c       ****         SPI_WriteTxData(0x00); // Equivalente a val = SPI.transfer(0x00);
 168              		.loc 1 43 0
 169 0026 0020     		movs	r0, #0
 170 0028 FFF7FEFF 		bl	SPI_WriteTxData
 171              	.LVL20:
  44:RC522.c       ****         value = SPI_ReadRxData();
 172              		.loc 1 44 0
 173 002c FFF7FEFF 		bl	SPI_ReadRxData
 174              	.LVL21:
  45:RC522.c       ****         //SS = true;
  46:RC522.c       **** 	return value;
  47:RC522.c       **** } // End PCD_ReadRegister()
 175              		.loc 1 47 0
 176 0030 10BD     		pop	{r4, pc}
 177              		.cfi_endproc
 178              	.LFE66:
 179              		.size	PCD_ReadRegister, .-PCD_ReadRegister
ARM GAS  C:\Users\nikod\AppData\Local\Temp\cc4NWLo4.s 			page 5


 180              		.section	.text.PCD_ReadRegisters,"ax",%progbits
 181              		.align	2
 182              		.global	PCD_ReadRegisters
 183              		.thumb
 184              		.thumb_func
 185              		.type	PCD_ReadRegisters, %function
 186              	PCD_ReadRegisters:
 187              	.LFB67:
  48:RC522.c       **** 
  49:RC522.c       **** void PCD_ReadRegisters(	unsigned char addr,	///< The register to read from. One of the PCD_Register
  50:RC522.c       ****                         unsigned char count,			///< The number of bytes to read
  51:RC522.c       **** 						unsigned char *values,		///< Byte array to store the values in.
  52:RC522.c       ****                         unsigned char rxAlign		///< Only bit positions rxAlign..7 in values[0] are 
  53:RC522.c       **** 								) {
 188              		.loc 1 53 0
 189              		.cfi_startproc
 190              		@ args = 0, pretend = 0, frame = 0
 191              		@ frame_needed = 0, uses_anonymous_args = 0
 192              	.LVL22:
  54:RC522.c       **** 	if (count == 0) {
 193              		.loc 1 54 0
 194 0000 0029     		cmp	r1, #0
 195 0002 47D0     		beq	.L23
  53:RC522.c       **** 	if (count == 0) {
 196              		.loc 1 53 0
 197 0004 2DE9F041 		push	{r4, r5, r6, r7, r8, lr}
 198              		.cfi_def_cfa_offset 24
 199              		.cfi_offset 4, -24
 200              		.cfi_offset 5, -20
 201              		.cfi_offset 6, -16
 202              		.cfi_offset 7, -12
 203              		.cfi_offset 8, -8
 204              		.cfi_offset 14, -4
 205 0008 9846     		mov	r8, r3
 206 000a 1646     		mov	r6, r2
 207 000c 0446     		mov	r4, r0
 208              	.LVL23:
  55:RC522.c       **** 		return;
  56:RC522.c       **** 	}
  57:RC522.c       ****     //SSPCON1bits.SSPEN=1;   // Enable SPI port
  58:RC522.c       ****     unsigned char index = 0;							// Index in values array.
  59:RC522.c       ****     //Activa con c0
  60:RC522.c       ****     //SS = false;
  61:RC522.c       **** 	count--;								// One read is performed outside of the loop
 209              		.loc 1 61 0
 210 000e 4F1E     		subs	r7, r1, #1
 211 0010 FFB2     		uxtb	r7, r7
 212              	.LVL24:
 213              	.L16:
  62:RC522.c       ****     while ( ! (SPI_ReadTxStatus() & SPI_STS_SPI_IDLE) );
 214              		.loc 1 62 0 discriminator 1
 215 0012 FFF7FEFF 		bl	SPI_ReadTxStatus
 216              	.LVL25:
 217 0016 10F0100F 		tst	r0, #16
 218 001a FAD0     		beq	.L16
  63:RC522.c       **** 	SPI_WriteTxData(((addr<<1)&0x7E)|0x80);// Equivalente a SPI.transfer(((addr<<1)&0x7E) | 0x80);
 219              		.loc 1 63 0
ARM GAS  C:\Users\nikod\AppData\Local\Temp\cc4NWLo4.s 			page 6


 220 001c 6500     		lsls	r5, r4, #1
 221 001e 05F07E05 		and	r5, r5, #126
 222 0022 45F08005 		orr	r5, r5, #128
 223 0026 2846     		mov	r0, r5
 224 0028 FFF7FEFF 		bl	SPI_WriteTxData
 225              	.LVL26:
  64:RC522.c       **** 	if (rxAlign) {		// Only update bit positions rxAlign..7 in values[0]
 226              		.loc 1 64 0
 227 002c B8F1000F 		cmp	r8, #0
 228 0030 17D0     		beq	.L21
 229              	.LBB3:
  65:RC522.c       **** 		// Create bit mask for bit positions rxAlign..7
  66:RC522.c       **** 		unsigned char mask = (0xFF << rxAlign) & 0xFF;
 230              		.loc 1 66 0
 231 0032 FF23     		movs	r3, #255
 232 0034 03FA08F8 		lsl	r8, r3, r8
 233 0038 5FFA88F4 		uxtb	r4, r8
 234              	.LVL27:
 235              	.L18:
  67:RC522.c       **** 		// Read value and tell that we want to read the same address again.
  68:RC522.c       ****         while ( ! (SPI_ReadTxStatus() & SPI_STS_SPI_IDLE) );
 236              		.loc 1 68 0 discriminator 1
 237 003c FFF7FEFF 		bl	SPI_ReadTxStatus
 238              	.LVL28:
 239 0040 10F0100F 		tst	r0, #16
 240 0044 FAD0     		beq	.L18
  69:RC522.c       ****         SPI_WriteTxData(((addr<<1)&0x7E)|0x80);// Equivalente a SPI.transfer(((addr<<1)&0x7E) | 0x8
 241              		.loc 1 69 0
 242 0046 2846     		mov	r0, r5
 243 0048 FFF7FEFF 		bl	SPI_WriteTxData
 244              	.LVL29:
  70:RC522.c       **** 		unsigned char value =  SPI_ReadRxData();
 245              		.loc 1 70 0
 246 004c FFF7FEFF 		bl	SPI_ReadRxData
 247              	.LVL30:
  71:RC522.c       **** 		// Apply mask to both current value of values[0] and the new data in value.
  72:RC522.c       **** 		values[0] = (values[0] & ~mask) | (value & mask);
 248              		.loc 1 72 0
 249 0050 3378     		ldrb	r3, [r6]	@ zero_extendqisi2
 250 0052 23EA0808 		bic	r8, r3, r8
 251 0056 2040     		ands	r0, r0, r4
 252              	.LVL31:
 253 0058 48EA0003 		orr	r3, r8, r0
 254 005c 3370     		strb	r3, [r6]
 255              	.LVL32:
  73:RC522.c       **** 		index++;
 256              		.loc 1 73 0
 257 005e 0124     		movs	r4, #1
 258              	.LVL33:
 259 0060 0EE0     		b	.L19
 260              	.LVL34:
 261              	.L21:
 262              	.LBE3:
  58:RC522.c       ****     //Activa con c0
 263              		.loc 1 58 0
 264 0062 0024     		movs	r4, #0
 265 0064 0CE0     		b	.L19
ARM GAS  C:\Users\nikod\AppData\Local\Temp\cc4NWLo4.s 			page 7


 266              	.LVL35:
 267              	.L20:
  74:RC522.c       **** 	}
  75:RC522.c       **** 	while (index < count) {
  76:RC522.c       ****         while ( ! (SPI_ReadTxStatus() & SPI_STS_SPI_IDLE) );
 268              		.loc 1 76 0 discriminator 1
 269 0066 FFF7FEFF 		bl	SPI_ReadTxStatus
 270              	.LVL36:
 271 006a 10F0100F 		tst	r0, #16
 272 006e FAD0     		beq	.L20
  77:RC522.c       **** 		SPI_WriteTxData(((addr<<1)&0x7E)|0x80);// Equivalente a SPI.transfer(((addr<<1)&0x7E) | 0x80);
 273              		.loc 1 77 0
 274 0070 2846     		mov	r0, r5
 275 0072 FFF7FEFF 		bl	SPI_WriteTxData
 276              	.LVL37:
  78:RC522.c       **** 		values[index] = SPI_ReadRxData();
 277              		.loc 1 78 0
 278 0076 FFF7FEFF 		bl	SPI_ReadRxData
 279              	.LVL38:
 280 007a 3055     		strb	r0, [r6, r4]
  79:RC522.c       ****         index++;
 281              		.loc 1 79 0
 282 007c 0134     		adds	r4, r4, #1
 283              	.LVL39:
 284 007e E4B2     		uxtb	r4, r4
 285              	.LVL40:
 286              	.L19:
  75:RC522.c       ****         while ( ! (SPI_ReadTxStatus() & SPI_STS_SPI_IDLE) );
 287              		.loc 1 75 0
 288 0080 BC42     		cmp	r4, r7
 289 0082 F0D3     		bcc	.L20
  80:RC522.c       **** 	}
  81:RC522.c       ****     SPI_WriteTxData(0x00);
 290              		.loc 1 81 0
 291 0084 0020     		movs	r0, #0
 292 0086 FFF7FEFF 		bl	SPI_WriteTxData
 293              	.LVL41:
  82:RC522.c       **** 	values[index] = SPI_ReadRxData(); // Equivalente a val = SPI.transfer(0x00);
 294              		.loc 1 82 0
 295 008a FFF7FEFF 		bl	SPI_ReadRxData
 296              	.LVL42:
 297 008e 3055     		strb	r0, [r6, r4]
 298 0090 BDE8F081 		pop	{r4, r5, r6, r7, r8, pc}
 299              	.LVL43:
 300              	.L23:
 301              		.cfi_def_cfa_offset 0
 302              		.cfi_restore 4
 303              		.cfi_restore 5
 304              		.cfi_restore 6
 305              		.cfi_restore 7
 306              		.cfi_restore 8
 307              		.cfi_restore 14
 308 0094 7047     		bx	lr
 309              		.cfi_endproc
 310              	.LFE67:
 311              		.size	PCD_ReadRegisters, .-PCD_ReadRegisters
 312 0096 00BF     		.section	.text.PCD_SetRegisterBitMask,"ax",%progbits
ARM GAS  C:\Users\nikod\AppData\Local\Temp\cc4NWLo4.s 			page 8


 313              		.align	2
 314              		.global	PCD_SetRegisterBitMask
 315              		.thumb
 316              		.thumb_func
 317              		.type	PCD_SetRegisterBitMask, %function
 318              	PCD_SetRegisterBitMask:
 319              	.LFB68:
  83:RC522.c       **** 	//SSPCON1bits.SSPEN=0;   // Enable SPI port
  84:RC522.c       ****     //SS = true;
  85:RC522.c       **** } // End PCD_ReadRegisters()
  86:RC522.c       **** 
  87:RC522.c       **** void PCD_SetRegisterBitMask(	unsigned char reg,	///< The register to update. One of the PCD_Registe
  88:RC522.c       **** 										unsigned char mask			///< The bits to set.
  89:RC522.c       **** 									) { 
 320              		.loc 1 89 0
 321              		.cfi_startproc
 322              		@ args = 0, pretend = 0, frame = 0
 323              		@ frame_needed = 0, uses_anonymous_args = 0
 324              	.LVL44:
 325 0000 38B5     		push	{r3, r4, r5, lr}
 326              		.cfi_def_cfa_offset 16
 327              		.cfi_offset 3, -16
 328              		.cfi_offset 4, -12
 329              		.cfi_offset 5, -8
 330              		.cfi_offset 14, -4
 331 0002 0546     		mov	r5, r0
 332 0004 0C46     		mov	r4, r1
  90:RC522.c       **** 	unsigned char tmp;
  91:RC522.c       **** 	tmp = PCD_ReadRegister(reg);
 333              		.loc 1 91 0
 334 0006 FFF7FEFF 		bl	PCD_ReadRegister
 335              	.LVL45:
  92:RC522.c       **** 	PCD_WriteRegister(reg, tmp | mask);			// set bit mask
 336              		.loc 1 92 0
 337 000a 40EA0401 		orr	r1, r0, r4
 338 000e C9B2     		uxtb	r1, r1
 339 0010 2846     		mov	r0, r5
 340              	.LVL46:
 341 0012 FFF7FEFF 		bl	PCD_WriteRegister
 342              	.LVL47:
 343 0016 38BD     		pop	{r3, r4, r5, pc}
 344              		.cfi_endproc
 345              	.LFE68:
 346              		.size	PCD_SetRegisterBitMask, .-PCD_SetRegisterBitMask
 347              		.section	.text.PCD_ClearRegisterBitMask,"ax",%progbits
 348              		.align	2
 349              		.global	PCD_ClearRegisterBitMask
 350              		.thumb
 351              		.thumb_func
 352              		.type	PCD_ClearRegisterBitMask, %function
 353              	PCD_ClearRegisterBitMask:
 354              	.LFB69:
  93:RC522.c       **** } // End PCD_SetRegisterBitMask()
  94:RC522.c       **** 
  95:RC522.c       **** 
  96:RC522.c       **** void PCD_ClearRegisterBitMask(	unsigned char reg,	///< The register to update. One of the PCD_Regis
  97:RC522.c       **** 								unsigned char mask			///< The bits to clear.
ARM GAS  C:\Users\nikod\AppData\Local\Temp\cc4NWLo4.s 			page 9


  98:RC522.c       **** 									  ) {
 355              		.loc 1 98 0
 356              		.cfi_startproc
 357              		@ args = 0, pretend = 0, frame = 0
 358              		@ frame_needed = 0, uses_anonymous_args = 0
 359              	.LVL48:
 360 0000 38B5     		push	{r3, r4, r5, lr}
 361              		.cfi_def_cfa_offset 16
 362              		.cfi_offset 3, -16
 363              		.cfi_offset 4, -12
 364              		.cfi_offset 5, -8
 365              		.cfi_offset 14, -4
 366 0002 0546     		mov	r5, r0
 367 0004 0C46     		mov	r4, r1
  99:RC522.c       **** 	unsigned char tmp;
 100:RC522.c       **** 	tmp = PCD_ReadRegister(reg);
 368              		.loc 1 100 0
 369 0006 FFF7FEFF 		bl	PCD_ReadRegister
 370              	.LVL49:
 101:RC522.c       **** 	PCD_WriteRegister(reg,(tmp&(~mask)));		// clear bit mask
 371              		.loc 1 101 0
 372 000a 20EA0401 		bic	r1, r0, r4
 373 000e C9B2     		uxtb	r1, r1
 374 0010 2846     		mov	r0, r5
 375              	.LVL50:
 376 0012 FFF7FEFF 		bl	PCD_WriteRegister
 377              	.LVL51:
 378 0016 38BD     		pop	{r3, r4, r5, pc}
 379              		.cfi_endproc
 380              	.LFE69:
 381              		.size	PCD_ClearRegisterBitMask, .-PCD_ClearRegisterBitMask
 382              		.section	.text.PCD_CalculateCRC,"ax",%progbits
 383              		.align	2
 384              		.global	PCD_CalculateCRC
 385              		.thumb
 386              		.thumb_func
 387              		.type	PCD_CalculateCRC, %function
 388              	PCD_CalculateCRC:
 389              	.LFB70:
 102:RC522.c       **** } // End PCD_ClearRegisterBitMask()
 103:RC522.c       **** 
 104:RC522.c       **** unsigned char  PCD_CalculateCRC(	unsigned char *data,		///< In: Pointer to the data to transfer to 
 105:RC522.c       **** 						unsigned char length,	///< In: The number of bytes to transfer.
 106:RC522.c       **** 						unsigned char *result	///< Out: Pointer to result buffer. Result is written to result[0..1], 
 107:RC522.c       **** 					 ) {
 390              		.loc 1 107 0
 391              		.cfi_startproc
 392              		@ args = 0, pretend = 0, frame = 0
 393              		@ frame_needed = 0, uses_anonymous_args = 0
 394              	.LVL52:
 395 0000 70B5     		push	{r4, r5, r6, lr}
 396              		.cfi_def_cfa_offset 16
 397              		.cfi_offset 4, -16
 398              		.cfi_offset 5, -12
 399              		.cfi_offset 6, -8
 400              		.cfi_offset 14, -4
 401 0002 0646     		mov	r6, r0
ARM GAS  C:\Users\nikod\AppData\Local\Temp\cc4NWLo4.s 			page 10


 402 0004 0C46     		mov	r4, r1
 403 0006 1546     		mov	r5, r2
 108:RC522.c       **** 	PCD_WriteRegister(CommandReg, PCD_Idle);		// Stop any active command.
 404              		.loc 1 108 0
 405 0008 0021     		movs	r1, #0
 406              	.LVL53:
 407 000a 0120     		movs	r0, #1
 408              	.LVL54:
 409 000c FFF7FEFF 		bl	PCD_WriteRegister
 410              	.LVL55:
 109:RC522.c       **** 	PCD_WriteRegister(DivIrqReg, 0x04);				// Clear the CRCIRq interrupt request bit
 411              		.loc 1 109 0
 412 0010 0421     		movs	r1, #4
 413 0012 0520     		movs	r0, #5
 414 0014 FFF7FEFF 		bl	PCD_WriteRegister
 415              	.LVL56:
 110:RC522.c       **** 	PCD_WriteRegister(FIFOLevelReg, 0x80);			// FlushBuffer = 1, FIFO initialization
 416              		.loc 1 110 0
 417 0018 8021     		movs	r1, #128
 418 001a 0A20     		movs	r0, #10
 419 001c FFF7FEFF 		bl	PCD_WriteRegister
 420              	.LVL57:
 111:RC522.c       **** 	PCD_WriteRegisters(FIFODataReg, length, data);	// Write data to the FIFO
 421              		.loc 1 111 0
 422 0020 3246     		mov	r2, r6
 423 0022 2146     		mov	r1, r4
 424 0024 0920     		movs	r0, #9
 425 0026 FFF7FEFF 		bl	PCD_WriteRegisters
 426              	.LVL58:
 112:RC522.c       **** 	PCD_WriteRegister(CommandReg, PCD_CalcCRC);		// Start the calculation
 427              		.loc 1 112 0
 428 002a 0321     		movs	r1, #3
 429 002c 0120     		movs	r0, #1
 430 002e FFF7FEFF 		bl	PCD_WriteRegister
 431              	.LVL59:
 432              	.LBB4:
 113:RC522.c       **** 	
 114:RC522.c       **** 	// Wait for the CRC calculation to complete. Each iteration of the while-loop takes 17.73?s.
 115:RC522.c       **** 	// TODO check/modify for other architectures than Arduino Uno 16bit
 116:RC522.c       **** 
 117:RC522.c       **** 	// Wait for the CRC calculation to complete. Each iteration of the while-loop takes 17.73us.
 118:RC522.c       **** 	for (uint16_t i = 5000; i > 0; i--) {
 433              		.loc 1 118 0
 434 0032 41F28834 		movw	r4, #5000
 435 0036 15E0     		b	.L29
 436              	.LVL60:
 437              	.L32:
 438              	.LBB5:
 119:RC522.c       **** 		// DivIrqReg[7..0] bits are: Set2 reserved reserved MfinActIRq reserved CRCIRq reserved reserved
 120:RC522.c       **** 		unsigned char n = PCD_ReadRegister(DivIrqReg);
 439              		.loc 1 120 0
 440 0038 0520     		movs	r0, #5
 441 003a FFF7FEFF 		bl	PCD_ReadRegister
 442              	.LVL61:
 121:RC522.c       **** 		if (n & 0x04) {									// CRCIRq bit set - calculation done
 443              		.loc 1 121 0
 444 003e 10F0040F 		tst	r0, #4
ARM GAS  C:\Users\nikod\AppData\Local\Temp\cc4NWLo4.s 			page 11


 445 0042 0DD0     		beq	.L30
 122:RC522.c       **** 			PCD_WriteRegister(CommandReg, PCD_Idle);	// Stop calculating CRC for new content in the FIFO.
 446              		.loc 1 122 0
 447 0044 0021     		movs	r1, #0
 448 0046 0120     		movs	r0, #1
 449              	.LVL62:
 450 0048 FFF7FEFF 		bl	PCD_WriteRegister
 451              	.LVL63:
 123:RC522.c       **** 			// Transfer the result from the registers to the result buffer
 124:RC522.c       **** 			result[0] = PCD_ReadRegister(CRCResultRegL);
 452              		.loc 1 124 0
 453 004c 2220     		movs	r0, #34
 454 004e FFF7FEFF 		bl	PCD_ReadRegister
 455              	.LVL64:
 456 0052 2870     		strb	r0, [r5]
 125:RC522.c       **** 			result[1] = PCD_ReadRegister(CRCResultRegH);
 457              		.loc 1 125 0
 458 0054 2120     		movs	r0, #33
 459 0056 FFF7FEFF 		bl	PCD_ReadRegister
 460              	.LVL65:
 461 005a 6870     		strb	r0, [r5, #1]
 126:RC522.c       **** 			return STATUS_OK;
 462              		.loc 1 126 0
 463 005c 0020     		movs	r0, #0
 464 005e 70BD     		pop	{r4, r5, r6, pc}
 465              	.LVL66:
 466              	.L30:
 467              	.LBE5:
 118:RC522.c       **** 		// DivIrqReg[7..0] bits are: Set2 reserved reserved MfinActIRq reserved CRCIRq reserved reserved
 468              		.loc 1 118 0 discriminator 2
 469 0060 013C     		subs	r4, r4, #1
 470              	.LVL67:
 471 0062 A4B2     		uxth	r4, r4
 472              	.LVL68:
 473              	.L29:
 118:RC522.c       **** 		// DivIrqReg[7..0] bits are: Set2 reserved reserved MfinActIRq reserved CRCIRq reserved reserved
 474              		.loc 1 118 0 is_stmt 0 discriminator 1
 475 0064 002C     		cmp	r4, #0
 476 0066 E7D1     		bne	.L32
 477              	.LBE4:
 127:RC522.c       **** 		}
 128:RC522.c       **** 	}
 129:RC522.c       **** 	// 89ms passed and nothing happend. Communication with the MFRC522 might be down.
 130:RC522.c       **** 	return STATUS_TIMEOUT;
 478              		.loc 1 130 0 is_stmt 1
 479 0068 0320     		movs	r0, #3
 131:RC522.c       **** }
 480              		.loc 1 131 0
 481 006a 70BD     		pop	{r4, r5, r6, pc}
 482              		.cfi_endproc
 483              	.LFE70:
 484              		.size	PCD_CalculateCRC, .-PCD_CalculateCRC
 485              		.section	.text.PCD_Reset,"ax",%progbits
 486              		.align	2
 487              		.global	PCD_Reset
 488              		.thumb
 489              		.thumb_func
ARM GAS  C:\Users\nikod\AppData\Local\Temp\cc4NWLo4.s 			page 12


 490              		.type	PCD_Reset, %function
 491              	PCD_Reset:
 492              	.LFB72:
 132:RC522.c       **** 
 133:RC522.c       **** 
 134:RC522.c       **** 
 135:RC522.c       **** 
 136:RC522.c       **** 
 137:RC522.c       **** void PCD_Init(void) {
 138:RC522.c       **** 	// Set the chipSelectPin as digital output, do not select the slave yet
 139:RC522.c       ****     bool hardReset;
 140:RC522.c       ****     SPI_Start();
 141:RC522.c       ****     //SS = true;
 142:RC522.c       ****     //rst entrada
 143:RC522.c       ****     /*
 144:RC522.c       ****     if (RESET_Read() == 0) {      
 145:RC522.c       ****     RESET_Write(0);		// Make shure we have a clean LOW state.
 146:RC522.c       ****     CyDelayUs(20);				// 8.8.1 Reset timing requirements says about 100ns. Let us be generous: 2?sl
 147:RC522.c       ****     RESET_Write(1); // Exit power down mode. This triggers a hard reset.
 148:RC522.c       ****     CyDelay(50);//Delay 50 ms
 149:RC522.c       **** 	hardReset = true;   
 150:RC522.c       ****     }*/
 151:RC522.c       ****     if(!hardReset){
 152:RC522.c       **** 	PCD_Reset();
 153:RC522.c       ****     }
 154:RC522.c       **** 	// Reset baud rates
 155:RC522.c       **** 	PCD_WriteRegister(TxModeReg, 0x00);
 156:RC522.c       **** 	PCD_WriteRegister(RxModeReg, 0x00);
 157:RC522.c       **** 	// Reset ModWidthReg
 158:RC522.c       **** 	PCD_WriteRegister(ModWidthReg, 0x26);
 159:RC522.c       **** 	// When communicating with a PICC we need a timeout if something goes wrong.
 160:RC522.c       **** 	// f_timer = 13.56 MHz / (2*TPreScaler+1) where TPreScaler = [TPrescaler_Hi:TPrescaler_Lo].
 161:RC522.c       **** 	// TPrescaler_Hi are the four low bits in TModeReg. TPrescaler_Lo is TPrescalerReg.
 162:RC522.c       **** 	PCD_WriteRegister(TModeReg, 0x80);			// TAuto=1; timer starts automatically at the end of the tran
 163:RC522.c       **** 	PCD_WriteRegister(TPrescalerReg, 0xA9);		// TPreScaler = TModeReg[3..0]:TPrescalerReg, ie 0x0A9 = 
 164:RC522.c       **** 	PCD_WriteRegister(TReloadRegH, 0x03);		// Reload timer with 0x3E8 = 1000, ie 25ms before timeout.
 165:RC522.c       **** 	PCD_WriteRegister(TReloadRegL, 0xE8);
 166:RC522.c       **** 	PCD_WriteRegister(TxASKReg, 0x40);		// Default 0x00. Force a 100 % ASK modulation independent of t
 167:RC522.c       **** 	PCD_WriteRegister(ModeReg, 0x3D);		// Default 0x3F. Set the preset value for the CRC coprocessor f
 168:RC522.c       **** 	PCD_AntennaOn();						// Enable the antenna driver pins TX1 and TX2 (they were disabled by the res
 169:RC522.c       **** } // End PCD_Init()
 170:RC522.c       **** 
 171:RC522.c       **** void PCD_Reset(void){
 493              		.loc 1 171 0
 494              		.cfi_startproc
 495              		@ args = 0, pretend = 0, frame = 0
 496              		@ frame_needed = 0, uses_anonymous_args = 0
 497 0000 10B5     		push	{r4, lr}
 498              		.cfi_def_cfa_offset 8
 499              		.cfi_offset 4, -8
 500              		.cfi_offset 14, -4
 172:RC522.c       **** 	PCD_WriteRegister(CommandReg, PCD_SoftReset);	// Issue the SoftReset command.
 501              		.loc 1 172 0
 502 0002 0F21     		movs	r1, #15
 503 0004 0120     		movs	r0, #1
 504 0006 FFF7FEFF 		bl	PCD_WriteRegister
 505              	.LVL69:
ARM GAS  C:\Users\nikod\AppData\Local\Temp\cc4NWLo4.s 			page 13


 173:RC522.c       **** 	// The datasheet does not mention how unsigned long the SoftRest command takes to complete.
 174:RC522.c       **** 	// But the MFRC522 might have been in soft power-down mode (triggered by bit 4 of CommandReg) 
 175:RC522.c       **** 	// Section 8.8.2 in the datasheet says the oscillator start-up time is the start up time of the cr
 176:RC522.c       **** 	unsigned char count = 0;
 506              		.loc 1 176 0
 507 000a 0024     		movs	r4, #0
 508              	.LVL70:
 509              	.L36:
 177:RC522.c       **** 	do {
 178:RC522.c       **** 		// Wait for the PowerDown bit in CommandReg to be cleared (max 3x50ms)
 179:RC522.c       **** 	    CyDelay(50);
 510              		.loc 1 179 0 discriminator 2
 511 000c 3220     		movs	r0, #50
 512 000e FFF7FEFF 		bl	CyDelay
 513              	.LVL71:
 180:RC522.c       **** 	} while ((PCD_ReadRegister(CommandReg) & (1 << 4)) && (++count) < 3);
 514              		.loc 1 180 0 discriminator 2
 515 0012 0120     		movs	r0, #1
 516 0014 FFF7FEFF 		bl	PCD_ReadRegister
 517              	.LVL72:
 518 0018 10F0100F 		tst	r0, #16
 519 001c 03D0     		beq	.L34
 520              		.loc 1 180 0 is_stmt 0 discriminator 1
 521 001e 0134     		adds	r4, r4, #1
 522              	.LVL73:
 523 0020 E4B2     		uxtb	r4, r4
 524              	.LVL74:
 525 0022 022C     		cmp	r4, #2
 526 0024 F2D9     		bls	.L36
 527              	.L34:
 528 0026 10BD     		pop	{r4, pc}
 529              		.cfi_endproc
 530              	.LFE72:
 531              		.size	PCD_Reset, .-PCD_Reset
 532              		.section	.text.PCD_AntennaOn,"ax",%progbits
 533              		.align	2
 534              		.global	PCD_AntennaOn
 535              		.thumb
 536              		.thumb_func
 537              		.type	PCD_AntennaOn, %function
 538              	PCD_AntennaOn:
 539              	.LFB73:
 181:RC522.c       **** } // End PCD_Reset()
 182:RC522.c       **** 
 183:RC522.c       **** void PCD_AntennaOn(void) {
 540              		.loc 1 183 0 is_stmt 1
 541              		.cfi_startproc
 542              		@ args = 0, pretend = 0, frame = 0
 543              		@ frame_needed = 0, uses_anonymous_args = 0
 544 0000 08B5     		push	{r3, lr}
 545              		.cfi_def_cfa_offset 8
 546              		.cfi_offset 3, -8
 547              		.cfi_offset 14, -4
 184:RC522.c       **** 	unsigned char value = PCD_ReadRegister(TxControlReg);
 548              		.loc 1 184 0
 549 0002 1420     		movs	r0, #20
 550 0004 FFF7FEFF 		bl	PCD_ReadRegister
ARM GAS  C:\Users\nikod\AppData\Local\Temp\cc4NWLo4.s 			page 14


 551              	.LVL75:
 185:RC522.c       **** 	if ((value & 0x03) != 0x03) {
 552              		.loc 1 185 0
 553 0008 00F00303 		and	r3, r0, #3
 554 000c 032B     		cmp	r3, #3
 555 000e 05D0     		beq	.L38
 186:RC522.c       **** 		PCD_WriteRegister(TxControlReg, value | 0x03);
 556              		.loc 1 186 0
 557 0010 40F00301 		orr	r1, r0, #3
 558 0014 C9B2     		uxtb	r1, r1
 559 0016 1420     		movs	r0, #20
 560              	.LVL76:
 561 0018 FFF7FEFF 		bl	PCD_WriteRegister
 562              	.LVL77:
 563              	.L38:
 564 001c 08BD     		pop	{r3, pc}
 565              		.cfi_endproc
 566              	.LFE73:
 567              		.size	PCD_AntennaOn, .-PCD_AntennaOn
 568 001e 00BF     		.section	.text.PCD_Init,"ax",%progbits
 569              		.align	2
 570              		.global	PCD_Init
 571              		.thumb
 572              		.thumb_func
 573              		.type	PCD_Init, %function
 574              	PCD_Init:
 575              	.LFB71:
 137:RC522.c       **** 	// Set the chipSelectPin as digital output, do not select the slave yet
 576              		.loc 1 137 0
 577              		.cfi_startproc
 578              		@ args = 0, pretend = 0, frame = 0
 579              		@ frame_needed = 0, uses_anonymous_args = 0
 580 0000 08B5     		push	{r3, lr}
 581              		.cfi_def_cfa_offset 8
 582              		.cfi_offset 3, -8
 583              		.cfi_offset 14, -4
 140:RC522.c       ****     //SS = true;
 584              		.loc 1 140 0
 585 0002 FFF7FEFF 		bl	SPI_Start
 586              	.LVL78:
 152:RC522.c       ****     }
 587              		.loc 1 152 0
 588 0006 FFF7FEFF 		bl	PCD_Reset
 589              	.LVL79:
 155:RC522.c       **** 	PCD_WriteRegister(RxModeReg, 0x00);
 590              		.loc 1 155 0
 591 000a 0021     		movs	r1, #0
 592 000c 1220     		movs	r0, #18
 593 000e FFF7FEFF 		bl	PCD_WriteRegister
 594              	.LVL80:
 156:RC522.c       **** 	// Reset ModWidthReg
 595              		.loc 1 156 0
 596 0012 0021     		movs	r1, #0
 597 0014 1320     		movs	r0, #19
 598 0016 FFF7FEFF 		bl	PCD_WriteRegister
 599              	.LVL81:
 158:RC522.c       **** 	// When communicating with a PICC we need a timeout if something goes wrong.
ARM GAS  C:\Users\nikod\AppData\Local\Temp\cc4NWLo4.s 			page 15


 600              		.loc 1 158 0
 601 001a 2621     		movs	r1, #38
 602 001c 2420     		movs	r0, #36
 603 001e FFF7FEFF 		bl	PCD_WriteRegister
 604              	.LVL82:
 162:RC522.c       **** 	PCD_WriteRegister(TPrescalerReg, 0xA9);		// TPreScaler = TModeReg[3..0]:TPrescalerReg, ie 0x0A9 = 
 605              		.loc 1 162 0
 606 0022 8021     		movs	r1, #128
 607 0024 2A20     		movs	r0, #42
 608 0026 FFF7FEFF 		bl	PCD_WriteRegister
 609              	.LVL83:
 163:RC522.c       **** 	PCD_WriteRegister(TReloadRegH, 0x03);		// Reload timer with 0x3E8 = 1000, ie 25ms before timeout.
 610              		.loc 1 163 0
 611 002a A921     		movs	r1, #169
 612 002c 2B20     		movs	r0, #43
 613 002e FFF7FEFF 		bl	PCD_WriteRegister
 614              	.LVL84:
 164:RC522.c       **** 	PCD_WriteRegister(TReloadRegL, 0xE8);
 615              		.loc 1 164 0
 616 0032 0321     		movs	r1, #3
 617 0034 2C20     		movs	r0, #44
 618 0036 FFF7FEFF 		bl	PCD_WriteRegister
 619              	.LVL85:
 165:RC522.c       **** 	PCD_WriteRegister(TxASKReg, 0x40);		// Default 0x00. Force a 100 % ASK modulation independent of t
 620              		.loc 1 165 0
 621 003a E821     		movs	r1, #232
 622 003c 2D20     		movs	r0, #45
 623 003e FFF7FEFF 		bl	PCD_WriteRegister
 624              	.LVL86:
 166:RC522.c       **** 	PCD_WriteRegister(ModeReg, 0x3D);		// Default 0x3F. Set the preset value for the CRC coprocessor f
 625              		.loc 1 166 0
 626 0042 4021     		movs	r1, #64
 627 0044 1520     		movs	r0, #21
 628 0046 FFF7FEFF 		bl	PCD_WriteRegister
 629              	.LVL87:
 167:RC522.c       **** 	PCD_AntennaOn();						// Enable the antenna driver pins TX1 and TX2 (they were disabled by the res
 630              		.loc 1 167 0
 631 004a 3D21     		movs	r1, #61
 632 004c 1120     		movs	r0, #17
 633 004e FFF7FEFF 		bl	PCD_WriteRegister
 634              	.LVL88:
 168:RC522.c       **** } // End PCD_Init()
 635              		.loc 1 168 0
 636 0052 FFF7FEFF 		bl	PCD_AntennaOn
 637              	.LVL89:
 638 0056 08BD     		pop	{r3, pc}
 639              		.cfi_endproc
 640              	.LFE71:
 641              		.size	PCD_Init, .-PCD_Init
 642              		.section	.text.PCD_AntennaOff,"ax",%progbits
 643              		.align	2
 644              		.global	PCD_AntennaOff
 645              		.thumb
 646              		.thumb_func
 647              		.type	PCD_AntennaOff, %function
 648              	PCD_AntennaOff:
 649              	.LFB74:
ARM GAS  C:\Users\nikod\AppData\Local\Temp\cc4NWLo4.s 			page 16


 187:RC522.c       **** 	}
 188:RC522.c       **** } // End PCD_AntennaOn()
 189:RC522.c       **** 
 190:RC522.c       **** void PCD_AntennaOff(void) {
 650              		.loc 1 190 0
 651              		.cfi_startproc
 652              		@ args = 0, pretend = 0, frame = 0
 653              		@ frame_needed = 0, uses_anonymous_args = 0
 654 0000 08B5     		push	{r3, lr}
 655              		.cfi_def_cfa_offset 8
 656              		.cfi_offset 3, -8
 657              		.cfi_offset 14, -4
 191:RC522.c       **** 	PCD_ClearRegisterBitMask(TxControlReg, 0x03);
 658              		.loc 1 191 0
 659 0002 0321     		movs	r1, #3
 660 0004 1420     		movs	r0, #20
 661 0006 FFF7FEFF 		bl	PCD_ClearRegisterBitMask
 662              	.LVL90:
 663 000a 08BD     		pop	{r3, pc}
 664              		.cfi_endproc
 665              	.LFE74:
 666              		.size	PCD_AntennaOff, .-PCD_AntennaOff
 667              		.section	.text.PCD_GetAntennaGain,"ax",%progbits
 668              		.align	2
 669              		.global	PCD_GetAntennaGain
 670              		.thumb
 671              		.thumb_func
 672              		.type	PCD_GetAntennaGain, %function
 673              	PCD_GetAntennaGain:
 674              	.LFB75:
 192:RC522.c       **** } // End PCD_AntennaOff()
 193:RC522.c       **** 
 194:RC522.c       **** unsigned char PCD_GetAntennaGain() {
 675              		.loc 1 194 0
 676              		.cfi_startproc
 677              		@ args = 0, pretend = 0, frame = 0
 678              		@ frame_needed = 0, uses_anonymous_args = 0
 679 0000 08B5     		push	{r3, lr}
 680              		.cfi_def_cfa_offset 8
 681              		.cfi_offset 3, -8
 682              		.cfi_offset 14, -4
 195:RC522.c       **** 	return PCD_ReadRegister(RFCfgReg) & (0x07<<4);
 683              		.loc 1 195 0
 684 0002 2620     		movs	r0, #38
 685 0004 FFF7FEFF 		bl	PCD_ReadRegister
 686              	.LVL91:
 196:RC522.c       **** } // End PCD_GetAntennaGain()
 687              		.loc 1 196 0
 688 0008 00F07000 		and	r0, r0, #112
 689 000c 08BD     		pop	{r3, pc}
 690              		.cfi_endproc
 691              	.LFE75:
 692              		.size	PCD_GetAntennaGain, .-PCD_GetAntennaGain
 693 000e 00BF     		.section	.text.PCD_SetAntennaGain,"ax",%progbits
 694              		.align	2
 695              		.global	PCD_SetAntennaGain
 696              		.thumb
ARM GAS  C:\Users\nikod\AppData\Local\Temp\cc4NWLo4.s 			page 17


 697              		.thumb_func
 698              		.type	PCD_SetAntennaGain, %function
 699              	PCD_SetAntennaGain:
 700              	.LFB76:
 197:RC522.c       **** 
 198:RC522.c       **** void PCD_SetAntennaGain(unsigned char mask) {
 701              		.loc 1 198 0
 702              		.cfi_startproc
 703              		@ args = 0, pretend = 0, frame = 0
 704              		@ frame_needed = 0, uses_anonymous_args = 0
 705              	.LVL92:
 706 0000 10B5     		push	{r4, lr}
 707              		.cfi_def_cfa_offset 8
 708              		.cfi_offset 4, -8
 709              		.cfi_offset 14, -4
 710 0002 0446     		mov	r4, r0
 199:RC522.c       **** 	if (PCD_GetAntennaGain() != mask) {						// only bother if there is a change
 711              		.loc 1 199 0
 712 0004 FFF7FEFF 		bl	PCD_GetAntennaGain
 713              	.LVL93:
 714 0008 A042     		cmp	r0, r4
 715 000a 08D0     		beq	.L48
 200:RC522.c       **** 		PCD_ClearRegisterBitMask(RFCfgReg, (0x07<<4));		// clear needed to allow 000 pattern
 716              		.loc 1 200 0
 717 000c 7021     		movs	r1, #112
 718 000e 2620     		movs	r0, #38
 719 0010 FFF7FEFF 		bl	PCD_ClearRegisterBitMask
 720              	.LVL94:
 201:RC522.c       **** 		PCD_SetRegisterBitMask(RFCfgReg, mask & (0x07<<4));	// only set RxGain[2:0] bits
 721              		.loc 1 201 0
 722 0014 04F07001 		and	r1, r4, #112
 723 0018 2620     		movs	r0, #38
 724 001a FFF7FEFF 		bl	PCD_SetRegisterBitMask
 725              	.LVL95:
 726              	.L48:
 727 001e 10BD     		pop	{r4, pc}
 728              		.cfi_endproc
 729              	.LFE76:
 730              		.size	PCD_SetAntennaGain, .-PCD_SetAntennaGain
 731              		.section	.text.PCD_PerformSelfTest,"ax",%progbits
 732              		.align	2
 733              		.global	PCD_PerformSelfTest
 734              		.thumb
 735              		.thumb_func
 736              		.type	PCD_PerformSelfTest, %function
 737              	PCD_PerformSelfTest:
 738              	.LFB77:
 202:RC522.c       **** 	}
 203:RC522.c       **** } // End PCD_SetAntennaGain()
 204:RC522.c       **** 
 205:RC522.c       **** bool PCD_PerformSelfTest(void) {
 739              		.loc 1 205 0
 740              		.cfi_startproc
 741              		@ args = 0, pretend = 0, frame = 96
 742              		@ frame_needed = 0, uses_anonymous_args = 0
 743 0000 10B5     		push	{r4, lr}
 744              		.cfi_def_cfa_offset 8
ARM GAS  C:\Users\nikod\AppData\Local\Temp\cc4NWLo4.s 			page 18


 745              		.cfi_offset 4, -8
 746              		.cfi_offset 14, -4
 747 0002 98B0     		sub	sp, sp, #96
 748              		.cfi_def_cfa_offset 104
 206:RC522.c       **** 	// This follows directly the steps outlined in 16.1.1
 207:RC522.c       **** 	// 1. Perform a soft reset.
 208:RC522.c       **** 	PCD_Reset();
 749              		.loc 1 208 0
 750 0004 FFF7FEFF 		bl	PCD_Reset
 751              	.LVL96:
 209:RC522.c       **** 	// 2. Clear the internal buffer by writing 25 bytes of 00h
 210:RC522.c       **** 	unsigned char ZEROES[25] = {0x00};
 752              		.loc 1 210 0
 753 0008 0024     		movs	r4, #0
 754 000a 1194     		str	r4, [sp, #68]
 755 000c 1294     		str	r4, [sp, #72]
 756 000e 1394     		str	r4, [sp, #76]
 757 0010 1494     		str	r4, [sp, #80]
 758 0012 1594     		str	r4, [sp, #84]
 759 0014 1694     		str	r4, [sp, #88]
 760 0016 8DF85C40 		strb	r4, [sp, #92]
 211:RC522.c       **** 	PCD_WriteRegister(FIFOLevelReg, 0x80);		// flush the FIFO buffer
 761              		.loc 1 211 0
 762 001a 8021     		movs	r1, #128
 763 001c 0A20     		movs	r0, #10
 764 001e FFF7FEFF 		bl	PCD_WriteRegister
 765              	.LVL97:
 212:RC522.c       **** 	PCD_WriteRegisters(FIFODataReg, 25, ZEROES);	// write 25 bytes of 00h to FIFO
 766              		.loc 1 212 0
 767 0022 11AA     		add	r2, sp, #68
 768 0024 1921     		movs	r1, #25
 769 0026 0920     		movs	r0, #9
 770 0028 FFF7FEFF 		bl	PCD_WriteRegisters
 771              	.LVL98:
 213:RC522.c       **** 	PCD_WriteRegister(CommandReg, PCD_Mem);		// transfer to internal buffer
 772              		.loc 1 213 0
 773 002c 0121     		movs	r1, #1
 774 002e 0846     		mov	r0, r1
 775 0030 FFF7FEFF 		bl	PCD_WriteRegister
 776              	.LVL99:
 214:RC522.c       **** 	
 215:RC522.c       **** 	// 3. Enable self-test
 216:RC522.c       **** 	PCD_WriteRegister(AutoTestReg, 0x09);
 777              		.loc 1 216 0
 778 0034 0921     		movs	r1, #9
 779 0036 3620     		movs	r0, #54
 780 0038 FFF7FEFF 		bl	PCD_WriteRegister
 781              	.LVL100:
 217:RC522.c       **** 	
 218:RC522.c       **** 	// 4. Write 00h to FIFO buffer
 219:RC522.c       **** 	PCD_WriteRegister(FIFODataReg, 0x00);
 782              		.loc 1 219 0
 783 003c 2146     		mov	r1, r4
 784 003e 0920     		movs	r0, #9
 785 0040 FFF7FEFF 		bl	PCD_WriteRegister
 786              	.LVL101:
 220:RC522.c       **** 	
ARM GAS  C:\Users\nikod\AppData\Local\Temp\cc4NWLo4.s 			page 19


 221:RC522.c       **** 	// 5. Start self-test by issuing the CalcCRC command
 222:RC522.c       **** 	PCD_WriteRegister(CommandReg, PCD_CalcCRC);
 787              		.loc 1 222 0
 788 0044 0321     		movs	r1, #3
 789 0046 0120     		movs	r0, #1
 790 0048 FFF7FEFF 		bl	PCD_WriteRegister
 791              	.LVL102:
 792              	.LBB6:
 223:RC522.c       **** 	
 224:RC522.c       **** 	// 6. Wait for self-test to complete
 225:RC522.c       **** 	unsigned char n;
 226:RC522.c       **** 	for (uint8_t i = 0; i < 0xFF; i++) {
 793              		.loc 1 226 0
 794 004c 06E0     		b	.L52
 795              	.LVL103:
 796              	.L54:
 227:RC522.c       **** 		// The datasheet does not specify exact completion condition except
 228:RC522.c       **** 		// that FIFO buffer should contain 64 bytes.
 229:RC522.c       **** 		// While selftest is initiated by CalcCRC command
 230:RC522.c       **** 		// it behaves differently from normal CRC computation,
 231:RC522.c       **** 		// so one can't reliably use DivIrqReg to check for completion.
 232:RC522.c       **** 		// It is reported that some devices does not trigger CRCIRq flag
 233:RC522.c       **** 		// during selftest.
 234:RC522.c       **** 		n = PCD_ReadRegister(FIFOLevelReg);
 797              		.loc 1 234 0
 798 004e 0A20     		movs	r0, #10
 799 0050 FFF7FEFF 		bl	PCD_ReadRegister
 800              	.LVL104:
 235:RC522.c       **** 		if (n >= 64) {
 801              		.loc 1 235 0
 802 0054 3F28     		cmp	r0, #63
 803 0056 03D8     		bhi	.L53
 226:RC522.c       **** 		// The datasheet does not specify exact completion condition except
 804              		.loc 1 226 0 discriminator 2
 805 0058 0134     		adds	r4, r4, #1
 806              	.LVL105:
 807 005a E4B2     		uxtb	r4, r4
 808              	.LVL106:
 809              	.L52:
 226:RC522.c       **** 		// The datasheet does not specify exact completion condition except
 810              		.loc 1 226 0 is_stmt 0 discriminator 1
 811 005c FF2C     		cmp	r4, #255
 812 005e F6D1     		bne	.L54
 813              	.L53:
 814              	.LBE6:
 236:RC522.c       **** 			break;
 237:RC522.c       **** 		}
 238:RC522.c       **** 	}
 239:RC522.c       **** 	PCD_WriteRegister(CommandReg, PCD_Idle);		// Stop calculating CRC for new content in the FIFO.
 815              		.loc 1 239 0 is_stmt 1
 816 0060 0021     		movs	r1, #0
 817 0062 0120     		movs	r0, #1
 818 0064 FFF7FEFF 		bl	PCD_WriteRegister
 819              	.LVL107:
 240:RC522.c       **** 	
 241:RC522.c       **** 	// 7. Read out resulting 64 bytes from the FIFO buffer.
 242:RC522.c       **** 	unsigned char result[64];
ARM GAS  C:\Users\nikod\AppData\Local\Temp\cc4NWLo4.s 			page 20


 243:RC522.c       **** 	PCD_ReadRegisters(FIFODataReg, 64, result, 0);
 820              		.loc 1 243 0
 821 0068 0023     		movs	r3, #0
 822 006a 01AA     		add	r2, sp, #4
 823 006c 4021     		movs	r1, #64
 824 006e 0920     		movs	r0, #9
 825 0070 FFF7FEFF 		bl	PCD_ReadRegisters
 826              	.LVL108:
 244:RC522.c       **** 	
 245:RC522.c       **** 	// Auto self-test done
 246:RC522.c       **** 	// Reset AutoTestReg register to be 0 again. Required for normal operation.
 247:RC522.c       **** 	PCD_WriteRegister(AutoTestReg, 0x00);
 827              		.loc 1 247 0
 828 0074 0021     		movs	r1, #0
 829 0076 3620     		movs	r0, #54
 830 0078 FFF7FEFF 		bl	PCD_WriteRegister
 831              	.LVL109:
 248:RC522.c       **** 	
 249:RC522.c       **** 	// Determine firmware version (see section 9.3.4.8 in spec)
 250:RC522.c       **** 	//unsigned char version = PCD_ReadRegister(VersionReg);
 251:RC522.c       **** 	
 252:RC522.c       **** 	// Pick the appropriate reference values
 253:RC522.c       ****     /*
 254:RC522.c       **** 	const unsigned char *reference;
 255:RC522.c       **** 	switch (version) {
 256:RC522.c       **** 		case 0x88:	// Fudan Semiconductor FM17522 clone
 257:RC522.c       **** 			reference = FM17522_firmware_reference;
 258:RC522.c       **** 			break;
 259:RC522.c       **** 		case 0x90:	// Version 0.0
 260:RC522.c       **** 			reference = MFRC522_firmware_referenceV0_0;
 261:RC522.c       **** 			break;
 262:RC522.c       **** 		case 0x91:	// Version 1.0
 263:RC522.c       **** 			reference = MFRC522_firmware_referenceV1_0;
 264:RC522.c       **** 			break;
 265:RC522.c       **** 		case 0x92:	// Version 2.0
 266:RC522.c       **** 			reference = MFRC522_firmware_referenceV2_0;
 267:RC522.c       **** 			break;
 268:RC522.c       **** 		default:	// Unknown version
 269:RC522.c       ****             reference = MFRC522_firmware_referenceV2_0;
 270:RC522.c       **** 			return false; // abort test
 271:RC522.c       **** 	}
 272:RC522.c       **** 	*/
 273:RC522.c       **** 	// Test passed; all is good.
 274:RC522.c       **** 	return true;
 275:RC522.c       **** } // End PCD_PerformSelfTest()
 832              		.loc 1 275 0
 833 007c 0120     		movs	r0, #1
 834 007e 18B0     		add	sp, sp, #96
 835              		.cfi_def_cfa_offset 8
 836              		@ sp needed
 837 0080 10BD     		pop	{r4, pc}
 838              		.cfi_endproc
 839              	.LFE77:
 840              		.size	PCD_PerformSelfTest, .-PCD_PerformSelfTest
 841 0082 00BF     		.section	.text.PCD_SoftPowerDown,"ax",%progbits
 842              		.align	2
 843              		.global	PCD_SoftPowerDown
ARM GAS  C:\Users\nikod\AppData\Local\Temp\cc4NWLo4.s 			page 21


 844              		.thumb
 845              		.thumb_func
 846              		.type	PCD_SoftPowerDown, %function
 847              	PCD_SoftPowerDown:
 848              	.LFB78:
 276:RC522.c       **** 
 277:RC522.c       **** 
 278:RC522.c       **** void PCD_SoftPowerDown(void){//Note : Only soft power down mode is available throught software
 849              		.loc 1 278 0
 850              		.cfi_startproc
 851              		@ args = 0, pretend = 0, frame = 0
 852              		@ frame_needed = 0, uses_anonymous_args = 0
 853 0000 08B5     		push	{r3, lr}
 854              		.cfi_def_cfa_offset 8
 855              		.cfi_offset 3, -8
 856              		.cfi_offset 14, -4
 279:RC522.c       **** 	unsigned char val = PCD_ReadRegister(CommandReg); // Read state of the command register 
 857              		.loc 1 279 0
 858 0002 0120     		movs	r0, #1
 859 0004 FFF7FEFF 		bl	PCD_ReadRegister
 860              	.LVL110:
 280:RC522.c       **** 	val |= (1<<4);// set PowerDown bit ( bit 4 ) to 1 
 861              		.loc 1 280 0
 862 0008 40F01001 		orr	r1, r0, #16
 863              	.LVL111:
 281:RC522.c       **** 	PCD_WriteRegister(CommandReg, val);//write new value to the command register
 864              		.loc 1 281 0
 865 000c C9B2     		uxtb	r1, r1
 866 000e 0120     		movs	r0, #1
 867 0010 FFF7FEFF 		bl	PCD_WriteRegister
 868              	.LVL112:
 869 0014 08BD     		pop	{r3, pc}
 870              		.cfi_endproc
 871              	.LFE78:
 872              		.size	PCD_SoftPowerDown, .-PCD_SoftPowerDown
 873 0016 00BF     		.section	.text.PCD_SoftPowerUp,"ax",%progbits
 874              		.align	2
 875              		.global	PCD_SoftPowerUp
 876              		.thumb
 877              		.thumb_func
 878              		.type	PCD_SoftPowerUp, %function
 879              	PCD_SoftPowerUp:
 880              	.LFB79:
 282:RC522.c       **** }
 283:RC522.c       **** 
 284:RC522.c       **** void PCD_SoftPowerUp(void){
 881              		.loc 1 284 0
 882              		.cfi_startproc
 883              		@ args = 0, pretend = 0, frame = 0
 884              		@ frame_needed = 0, uses_anonymous_args = 0
 885 0000 10B5     		push	{r4, lr}
 886              		.cfi_def_cfa_offset 8
 887              		.cfi_offset 4, -8
 888              		.cfi_offset 14, -4
 285:RC522.c       **** 	unsigned char val = PCD_ReadRegister(CommandReg); // Read state of the command register 
 889              		.loc 1 285 0
 890 0002 0120     		movs	r0, #1
ARM GAS  C:\Users\nikod\AppData\Local\Temp\cc4NWLo4.s 			page 22


 891 0004 FFF7FEFF 		bl	PCD_ReadRegister
 892              	.LVL113:
 286:RC522.c       **** 	val &= ~(1<<4);// set PowerDown bit ( bit 4 ) to 0 
 287:RC522.c       **** 	PCD_WriteRegister(CommandReg, val);//write new value to the command register
 893              		.loc 1 287 0
 894 0008 00F0EF01 		and	r1, r0, #239
 895 000c 0120     		movs	r0, #1
 896              	.LVL114:
 897 000e FFF7FEFF 		bl	PCD_WriteRegister
 898              	.LVL115:
 288:RC522.c       **** 	// wait until PowerDown bit is cleared (this indicates end of wake up procedure) 
 289:RC522.c       **** 	uint16_t i=0;
 899              		.loc 1 289 0
 900 0012 0024     		movs	r4, #0
 290:RC522.c       **** 	while(i<=500){ // set timeout to 500 ms 
 901              		.loc 1 290 0
 902 0014 0AE0     		b	.L59
 903              	.LVL116:
 904              	.L61:
 291:RC522.c       **** 		val = PCD_ReadRegister(CommandReg);// Read state of the command register
 905              		.loc 1 291 0
 906 0016 0120     		movs	r0, #1
 907 0018 FFF7FEFF 		bl	PCD_ReadRegister
 908              	.LVL117:
 292:RC522.c       **** 		if(!(val & (1<<4))){ // if powerdown bit is 0 
 909              		.loc 1 292 0
 910 001c 10F0100F 		tst	r0, #16
 911 0020 07D0     		beq	.L58
 293:RC522.c       **** 			break;// wake up procedure is finished 
 294:RC522.c       **** 		}
 295:RC522.c       ****         i=i+1;
 912              		.loc 1 295 0
 913 0022 0134     		adds	r4, r4, #1
 914              	.LVL118:
 915 0024 A4B2     		uxth	r4, r4
 916              	.LVL119:
 296:RC522.c       ****         CyDelay(1);
 917              		.loc 1 296 0
 918 0026 0120     		movs	r0, #1
 919              	.LVL120:
 920 0028 FFF7FEFF 		bl	CyDelay
 921              	.LVL121:
 922              	.L59:
 290:RC522.c       **** 		val = PCD_ReadRegister(CommandReg);// Read state of the command register
 923              		.loc 1 290 0
 924 002c B4F5FA7F 		cmp	r4, #500
 925 0030 F1D9     		bls	.L61
 926              	.L58:
 927 0032 10BD     		pop	{r4, pc}
 928              		.cfi_endproc
 929              	.LFE79:
 930              		.size	PCD_SoftPowerUp, .-PCD_SoftPowerUp
 931              		.section	.text.PCD_CommunicateWithPICC,"ax",%progbits
 932              		.align	2
 933              		.global	PCD_CommunicateWithPICC
 934              		.thumb
 935              		.thumb_func
ARM GAS  C:\Users\nikod\AppData\Local\Temp\cc4NWLo4.s 			page 23


 936              		.type	PCD_CommunicateWithPICC, %function
 937              	PCD_CommunicateWithPICC:
 938              	.LFB81:
 297:RC522.c       **** 	}
 298:RC522.c       **** }
 299:RC522.c       **** 
 300:RC522.c       **** unsigned char PCD_TransceiveData(unsigned char *sendData,		///< Pointer to the data to transfer to 
 301:RC522.c       ****                                 unsigned char sendLen,		///< Number of bytes to transfer to the FIF
 302:RC522.c       **** 								unsigned char *backData,		///< nullptr or pointer to buffer if data should be read back aft
 303:RC522.c       **** 								unsigned char *backLen,		///< In: Max number of unsigned chars to write to *backData. Out: 
 304:RC522.c       **** 								unsigned char *validBits,	///< In/Out: The number of valid bits in the last byte. 0 for 8 v
 305:RC522.c       **** 								unsigned char rxAlign,		///< In: Defines the bit position in backData[0] for the first bit 
 306:RC522.c       **** 								bool checkCRC		///< In: True => The last two bytes of the response is assumed to be a CRC_A
 307:RC522.c       **** 								 ) {
 308:RC522.c       **** 	unsigned char waitIRq = 0x30;		// RxIRq and IdleIRq
 309:RC522.c       **** 	return PCD_CommunicateWithPICC(PCD_Transceive, waitIRq, sendData, sendLen, backData, backLen, vali
 310:RC522.c       **** } // End PCD_TransceiveData()
 311:RC522.c       **** 
 312:RC522.c       **** unsigned char PCD_CommunicateWithPICC(	unsigned char command,		///< The command to execute. One of 
 313:RC522.c       **** 														unsigned char waitIRq,		///< The bits in the ComIrqReg register that signals successf
 314:RC522.c       **** 														unsigned char *sendData,		///< Pointer to the data to transfer to the FIFO.
 315:RC522.c       **** 														unsigned char sendLen,		///< Number of unsigned chars to transfer to the FIFO.
 316:RC522.c       **** 														unsigned char *backData,		///< nullptr or pointer to buffer if data should be read ba
 317:RC522.c       **** 														unsigned char *backLen,		///< In: Max number of bytes to write to *backData. Out: The
 318:RC522.c       **** 														unsigned char *validBits,	///< In/Out: The number of valid bits in the last byte. 0 f
 319:RC522.c       **** 														unsigned char rxAlign,		///< In: Defines the bit position in backData[0] for the firs
 320:RC522.c       **** 														bool checkCRC		///< In: True => The last two bytes of the response is assumed to be a
 321:RC522.c       **** 									 ) {
 939              		.loc 1 321 0
 940              		.cfi_startproc
 941              		@ args = 20, pretend = 0, frame = 8
 942              		@ frame_needed = 0, uses_anonymous_args = 0
 943              	.LVL122:
 944 0000 2DE9F047 		push	{r4, r5, r6, r7, r8, r9, r10, lr}
 945              		.cfi_def_cfa_offset 32
 946              		.cfi_offset 4, -32
 947              		.cfi_offset 5, -28
 948              		.cfi_offset 6, -24
 949              		.cfi_offset 7, -20
 950              		.cfi_offset 8, -16
 951              		.cfi_offset 9, -12
 952              		.cfi_offset 10, -8
 953              		.cfi_offset 14, -4
 954 0004 82B0     		sub	sp, sp, #8
 955              		.cfi_def_cfa_offset 40
 956 0006 8046     		mov	r8, r0
 957 0008 9246     		mov	r10, r2
 958 000a 9946     		mov	r9, r3
 959 000c 0C9D     		ldr	r5, [sp, #48]
 960 000e 9DF83460 		ldrb	r6, [sp, #52]	@ zero_extendqisi2
 961 0012 9DF83870 		ldrb	r7, [sp, #56]	@ zero_extendqisi2
 322:RC522.c       **** 	// Prepare values for BitFramingReg
 323:RC522.c       **** 	unsigned char txLastBits = validBits ? *validBits : 0;
 962              		.loc 1 323 0
 963 0016 0DB1     		cbz	r5, .L73
 964              		.loc 1 323 0 is_stmt 0 discriminator 1
 965 0018 2C78     		ldrb	r4, [r5]	@ zero_extendqisi2
ARM GAS  C:\Users\nikod\AppData\Local\Temp\cc4NWLo4.s 			page 24


 966 001a 00E0     		b	.L64
 967              	.L73:
 968              		.loc 1 323 0
 969 001c 0024     		movs	r4, #0
 970              	.L64:
 971              	.LVL123:
 324:RC522.c       **** 	unsigned char bitFraming = (rxAlign << 4) + txLastBits;		// RxAlign = BitFramingReg[6..4]. TxLastB
 972              		.loc 1 324 0 is_stmt 1 discriminator 4
 973 001e 04EB0614 		add	r4, r4, r6, lsl #4
 974              	.LVL124:
 975 0022 E4B2     		uxtb	r4, r4
 976              	.LVL125:
 325:RC522.c       **** 	
 326:RC522.c       **** 	PCD_WriteRegister(CommandReg, PCD_Idle);			// Stop any active command.
 977              		.loc 1 326 0 discriminator 4
 978 0024 0021     		movs	r1, #0
 979              	.LVL126:
 980 0026 0120     		movs	r0, #1
 981              	.LVL127:
 982 0028 FFF7FEFF 		bl	PCD_WriteRegister
 983              	.LVL128:
 327:RC522.c       **** 	PCD_WriteRegister(ComIrqReg, 0x7F);					// Clear all seven interrupt request bits
 984              		.loc 1 327 0 discriminator 4
 985 002c 7F21     		movs	r1, #127
 986 002e 0420     		movs	r0, #4
 987 0030 FFF7FEFF 		bl	PCD_WriteRegister
 988              	.LVL129:
 328:RC522.c       **** 	PCD_WriteRegister(FIFOLevelReg, 0x80);				// FlushBuffer = 1, FIFO initialization
 989              		.loc 1 328 0 discriminator 4
 990 0034 8021     		movs	r1, #128
 991 0036 0A20     		movs	r0, #10
 992 0038 FFF7FEFF 		bl	PCD_WriteRegister
 993              	.LVL130:
 329:RC522.c       **** 	PCD_WriteRegisters(FIFODataReg, sendLen, sendData);	// Write sendData to the FIFO
 994              		.loc 1 329 0 discriminator 4
 995 003c 5246     		mov	r2, r10
 996 003e 4946     		mov	r1, r9
 997 0040 0920     		movs	r0, #9
 998 0042 FFF7FEFF 		bl	PCD_WriteRegisters
 999              	.LVL131:
 330:RC522.c       **** 	PCD_WriteRegister(BitFramingReg, bitFraming);		// Bit adjustments
 1000              		.loc 1 330 0 discriminator 4
 1001 0046 2146     		mov	r1, r4
 1002 0048 0D20     		movs	r0, #13
 1003 004a FFF7FEFF 		bl	PCD_WriteRegister
 1004              	.LVL132:
 331:RC522.c       **** 	PCD_WriteRegister(CommandReg, command);				// Execute the command
 1005              		.loc 1 331 0 discriminator 4
 1006 004e 4146     		mov	r1, r8
 1007 0050 0120     		movs	r0, #1
 1008 0052 FFF7FEFF 		bl	PCD_WriteRegister
 1009              	.LVL133:
 332:RC522.c       **** 	if (command == PCD_Transceive) {
 1010              		.loc 1 332 0 discriminator 4
 1011 0056 B8F10C0F 		cmp	r8, #12
 1012 005a 03D1     		bne	.L65
 333:RC522.c       **** 		PCD_SetRegisterBitMask(BitFramingReg, 0x80);	// StartSend=1, transmission of data starts
ARM GAS  C:\Users\nikod\AppData\Local\Temp\cc4NWLo4.s 			page 25


 1013              		.loc 1 333 0
 1014 005c 8021     		movs	r1, #128
 1015 005e 0D20     		movs	r0, #13
 1016 0060 FFF7FEFF 		bl	PCD_SetRegisterBitMask
 1017              	.LVL134:
 1018              	.L65:
 323:RC522.c       **** 	unsigned char bitFraming = (rxAlign << 4) + txLastBits;		// RxAlign = BitFramingReg[6..4]. TxLastB
 1019              		.loc 1 323 0 discriminator 1
 1020 0064 4FF4FA64 		mov	r4, #2000
 1021              	.LVL135:
 1022 0068 09E0     		b	.L66
 1023              	.LVL136:
 1024              	.L69:
 334:RC522.c       **** 	}
 335:RC522.c       **** 	
 336:RC522.c       **** 	// Wait for the command to complete.
 337:RC522.c       **** 	// In PCD_Init() we set the TAuto flag in TModeReg. This means the timer automatically starts when
 338:RC522.c       **** 	// Each iteration of the do-while-loop takes 17.86?s.
 339:RC522.c       **** 	// TODO check/modify for other architectures than Arduino Uno 16bit
 340:RC522.c       **** 	uint16_t i;
 341:RC522.c       ****     unsigned char n;
 342:RC522.c       **** 	for (i = 2000; i > 0; i--) {
 343:RC522.c       **** 		n = PCD_ReadRegister(ComIrqReg);	// ComIrqReg[7..0] bits are: Set1 TxIRq RxIRq IdleIRq HiAlertIRq
 1025              		.loc 1 343 0
 1026 006a 0420     		movs	r0, #4
 1027 006c FFF7FEFF 		bl	PCD_ReadRegister
 1028              	.LVL137:
 344:RC522.c       **** 		if (n == 0x64) {					// One of the interrupts that signal success has been set.
 1029              		.loc 1 344 0
 1030 0070 6428     		cmp	r0, #100
 1031 0072 06D0     		beq	.L67
 345:RC522.c       ****             break;
 346:RC522.c       **** 		}
 347:RC522.c       **** 		if (n & 0x01) {						// Timer interrupt - nothing received in 25ms
 1032              		.loc 1 347 0
 1033 0074 10F0010F 		tst	r0, #1
 1034 0078 64D1     		bne	.L74
 342:RC522.c       **** 		n = PCD_ReadRegister(ComIrqReg);	// ComIrqReg[7..0] bits are: Set1 TxIRq RxIRq IdleIRq HiAlertIRq
 1035              		.loc 1 342 0 discriminator 2
 1036 007a 013C     		subs	r4, r4, #1
 1037              	.LVL138:
 1038 007c A4B2     		uxth	r4, r4
 1039              	.LVL139:
 1040              	.L66:
 342:RC522.c       **** 		n = PCD_ReadRegister(ComIrqReg);	// ComIrqReg[7..0] bits are: Set1 TxIRq RxIRq IdleIRq HiAlertIRq
 1041              		.loc 1 342 0 is_stmt 0 discriminator 1
 1042 007e 002C     		cmp	r4, #0
 1043 0080 F3D1     		bne	.L69
 1044              	.L67:
 348:RC522.c       **** 			return STATUS_TIMEOUT;
 349:RC522.c       **** 		}
 350:RC522.c       **** 	}
 351:RC522.c       **** 	// 35.7ms and nothing happend. Communication with the MFRC522 might be down.
 352:RC522.c       **** 	if (i == 0) {
 1045              		.loc 1 352 0 is_stmt 1
 1046 0082 002C     		cmp	r4, #0
 1047 0084 60D0     		beq	.L75
ARM GAS  C:\Users\nikod\AppData\Local\Temp\cc4NWLo4.s 			page 26


 353:RC522.c       **** 		return STATUS_TIMEOUT;
 354:RC522.c       **** 	}
 355:RC522.c       **** 	
 356:RC522.c       **** 	// Stop now if any errors except collisions were detected.
 357:RC522.c       **** 	unsigned char errorRegValue = PCD_ReadRegister(ErrorReg); // ErrorReg[7..0] bits are: WrErr TempEr
 1048              		.loc 1 357 0
 1049 0086 0620     		movs	r0, #6
 1050 0088 FFF7FEFF 		bl	PCD_ReadRegister
 1051              	.LVL140:
 1052 008c 0446     		mov	r4, r0
 1053              	.LVL141:
 358:RC522.c       **** 	if (errorRegValue & 0x13) {	 // BufferOvfl ParityErr ProtocolErr
 1054              		.loc 1 358 0
 1055 008e 10F0130F 		tst	r0, #19
 1056 0092 5BD1     		bne	.L76
 1057              	.LVL142:
 359:RC522.c       **** 		return STATUS_ERROR;
 360:RC522.c       **** 	}
 361:RC522.c       ****   
 362:RC522.c       **** 	unsigned char _validBits = 0;
 363:RC522.c       **** 	
 364:RC522.c       **** 	// If the caller wants data back, get it from the MFRC522.
 365:RC522.c       **** 	if (backData && backLen) {
 1058              		.loc 1 365 0
 1059 0094 0A9B     		ldr	r3, [sp, #40]
 1060 0096 C3B1     		cbz	r3, .L77
 1061              		.loc 1 365 0 is_stmt 0 discriminator 1
 1062 0098 0B9B     		ldr	r3, [sp, #44]
 1063 009a C3B1     		cbz	r3, .L78
 1064              	.LBB7:
 366:RC522.c       **** 		unsigned char n = PCD_ReadRegister(FIFOLevelReg);	// Number of bytes in the FIFO
 1065              		.loc 1 366 0 is_stmt 1
 1066 009c 0A20     		movs	r0, #10
 1067              	.LVL143:
 1068 009e FFF7FEFF 		bl	PCD_ReadRegister
 1069              	.LVL144:
 367:RC522.c       **** 		if (n > *backLen) {
 1070              		.loc 1 367 0
 1071 00a2 0B9B     		ldr	r3, [sp, #44]
 1072 00a4 1B78     		ldrb	r3, [r3]	@ zero_extendqisi2
 1073 00a6 9842     		cmp	r0, r3
 1074 00a8 52D8     		bhi	.L79
 368:RC522.c       **** 			return STATUS_NO_ROOM;
 369:RC522.c       **** 		}
 370:RC522.c       **** 		*backLen = n;											// Number of bytes returned
 1075              		.loc 1 370 0
 1076 00aa 0B9B     		ldr	r3, [sp, #44]
 1077 00ac 1870     		strb	r0, [r3]
 371:RC522.c       **** 		PCD_ReadRegisters(FIFODataReg, n, backData, rxAlign);	// Get received data from FIFO
 1078              		.loc 1 371 0
 1079 00ae 3346     		mov	r3, r6
 1080 00b0 0A9A     		ldr	r2, [sp, #40]
 1081 00b2 0146     		mov	r1, r0
 1082 00b4 0920     		movs	r0, #9
 1083              	.LVL145:
 1084 00b6 FFF7FEFF 		bl	PCD_ReadRegisters
 1085              	.LVL146:
ARM GAS  C:\Users\nikod\AppData\Local\Temp\cc4NWLo4.s 			page 27


 372:RC522.c       **** 		_validBits = PCD_ReadRegister(ControlReg) & 0x07;		// RxLastBits[2:0] indicates the number of val
 1086              		.loc 1 372 0
 1087 00ba 0C20     		movs	r0, #12
 1088 00bc FFF7FEFF 		bl	PCD_ReadRegister
 1089              	.LVL147:
 1090 00c0 00F00700 		and	r0, r0, #7
 1091              	.LVL148:
 373:RC522.c       **** 		if (validBits) {
 1092              		.loc 1 373 0
 1093 00c4 25B1     		cbz	r5, .L70
 374:RC522.c       **** 			*validBits = _validBits;
 1094              		.loc 1 374 0
 1095 00c6 2870     		strb	r0, [r5]
 1096 00c8 02E0     		b	.L70
 1097              	.LVL149:
 1098              	.L77:
 1099              	.LBE7:
 362:RC522.c       **** 	
 1100              		.loc 1 362 0
 1101 00ca 0020     		movs	r0, #0
 1102              	.LVL150:
 1103 00cc 00E0     		b	.L70
 1104              	.LVL151:
 1105              	.L78:
 1106 00ce 0020     		movs	r0, #0
 1107              	.LVL152:
 1108              	.L70:
 1109 00d0 04F00803 		and	r3, r4, #8
 375:RC522.c       **** 		}
 376:RC522.c       **** 	}
 377:RC522.c       **** 	
 378:RC522.c       **** 	// Tell about collisions
 379:RC522.c       **** 	if (errorRegValue & 0x08) {		// CollErr
 1110              		.loc 1 379 0
 1111 00d4 03F0FF04 		and	r4, r3, #255
 1112 00d8 002B     		cmp	r3, #0
 1113 00da 3BD1     		bne	.L80
 380:RC522.c       **** 		return STATUS_COLLISION;
 381:RC522.c       **** 	}
 382:RC522.c       **** 	
 383:RC522.c       **** 	// Perform CRC_A validation if requested.
 384:RC522.c       **** 	if (backData && backLen && checkCRC) {
 1114              		.loc 1 384 0
 1115 00dc 0A9B     		ldr	r3, [sp, #40]
 1116 00de 002B     		cmp	r3, #0
 1117 00e0 39D0     		beq	.L68
 1118              		.loc 1 384 0 is_stmt 0 discriminator 1
 1119 00e2 0B9B     		ldr	r3, [sp, #44]
 1120 00e4 BBB3     		cbz	r3, .L68
 1121              		.loc 1 384 0 discriminator 2
 1122 00e6 B7B3     		cbz	r7, .L68
 1123              	.LBB8:
 385:RC522.c       **** 		// In this case a MIFARE Classic NAK is not OK.
 386:RC522.c       **** 		if (*backLen == 1 && _validBits == 4) {
 1124              		.loc 1 386 0 is_stmt 1
 1125 00e8 1B78     		ldrb	r3, [r3]	@ zero_extendqisi2
 1126 00ea 012B     		cmp	r3, #1
ARM GAS  C:\Users\nikod\AppData\Local\Temp\cc4NWLo4.s 			page 28


 1127 00ec 01D1     		bne	.L71
 1128              		.loc 1 386 0 is_stmt 0 discriminator 1
 1129 00ee 0428     		cmp	r0, #4
 1130 00f0 1CD0     		beq	.L81
 1131              	.L71:
 387:RC522.c       **** 			return STATUS_MIFARE_NACK;
 388:RC522.c       **** 		}
 389:RC522.c       **** 		// We need at least the CRC_A value and all 8 bits of the last byte must be received.
 390:RC522.c       **** 		if (*backLen < 2 || _validBits != 0) {
 1132              		.loc 1 390 0 is_stmt 1
 1133 00f2 012B     		cmp	r3, #1
 1134 00f4 1CD9     		bls	.L82
 1135              		.loc 1 390 0 is_stmt 0 discriminator 1
 1136 00f6 E8B9     		cbnz	r0, .L83
 391:RC522.c       **** 			return STATUS_CRC_WRONG;
 392:RC522.c       **** 		}
 393:RC522.c       **** 		// Verify CRC_A - do our own calculation and store the control in controlBuffer.
 394:RC522.c       **** 		unsigned char controlBuffer[2];
 395:RC522.c       **** 		unsigned char status = PCD_CalculateCRC(&backData[0], *backLen - 2, &controlBuffer[0]);
 1137              		.loc 1 395 0 is_stmt 1
 1138 00f8 991E     		subs	r1, r3, #2
 1139 00fa 01AA     		add	r2, sp, #4
 1140 00fc C9B2     		uxtb	r1, r1
 1141 00fe 0A98     		ldr	r0, [sp, #40]
 1142              	.LVL153:
 1143 0100 FFF7FEFF 		bl	PCD_CalculateCRC
 1144              	.LVL154:
 396:RC522.c       **** 		if (status != STATUS_OK) {
 1145              		.loc 1 396 0
 1146 0104 C0B9     		cbnz	r0, .L84
 397:RC522.c       **** 			return status;
 398:RC522.c       **** 		}
 399:RC522.c       **** 		if ((backData[*backLen - 2] != controlBuffer[0]) || (backData[*backLen - 1] != controlBuffer[1]))
 1147              		.loc 1 399 0
 1148 0106 0B9B     		ldr	r3, [sp, #44]
 1149 0108 1B78     		ldrb	r3, [r3]	@ zero_extendqisi2
 1150 010a 0A9A     		ldr	r2, [sp, #40]
 1151 010c 1A44     		add	r2, r2, r3
 1152 010e 12F8021C 		ldrb	r1, [r2, #-2]	@ zero_extendqisi2
 1153 0112 9DF80420 		ldrb	r2, [sp, #4]	@ zero_extendqisi2
 1154 0116 9142     		cmp	r1, r2
 1155 0118 10D1     		bne	.L85
 1156              		.loc 1 399 0 is_stmt 0 discriminator 1
 1157 011a 0A9A     		ldr	r2, [sp, #40]
 1158 011c 1344     		add	r3, r3, r2
 1159 011e 13F8012C 		ldrb	r2, [r3, #-1]	@ zero_extendqisi2
 1160 0122 9DF80530 		ldrb	r3, [sp, #5]	@ zero_extendqisi2
 1161 0126 9A42     		cmp	r2, r3
 1162 0128 0AD1     		bne	.L86
 1163 012a 14E0     		b	.L68
 1164              	.LVL155:
 1165              	.L81:
 387:RC522.c       **** 		}
 1166              		.loc 1 387 0 is_stmt 1
 1167 012c FF24     		movs	r4, #255
 1168 012e 12E0     		b	.L68
 1169              	.L82:
ARM GAS  C:\Users\nikod\AppData\Local\Temp\cc4NWLo4.s 			page 29


 391:RC522.c       **** 		}
 1170              		.loc 1 391 0
 1171 0130 0724     		movs	r4, #7
 1172 0132 10E0     		b	.L68
 1173              	.L83:
 1174 0134 0724     		movs	r4, #7
 1175 0136 0EE0     		b	.L68
 1176              	.LVL156:
 1177              	.L84:
 397:RC522.c       **** 			return status;
 1178              		.loc 1 397 0
 1179 0138 0446     		mov	r4, r0
 1180 013a 0CE0     		b	.L68
 1181              	.L85:
 400:RC522.c       **** 			return STATUS_CRC_WRONG;
 1182              		.loc 1 400 0
 1183 013c 0724     		movs	r4, #7
 1184 013e 0AE0     		b	.L68
 1185              	.L86:
 1186 0140 0724     		movs	r4, #7
 1187 0142 08E0     		b	.L68
 1188              	.LVL157:
 1189              	.L74:
 1190              	.LBE8:
 348:RC522.c       **** 		}
 1191              		.loc 1 348 0
 1192 0144 0324     		movs	r4, #3
 1193              	.LVL158:
 1194 0146 06E0     		b	.L68
 1195              	.LVL159:
 1196              	.L75:
 353:RC522.c       **** 	}
 1197              		.loc 1 353 0
 1198 0148 0324     		movs	r4, #3
 1199              	.LVL160:
 1200 014a 04E0     		b	.L68
 1201              	.LVL161:
 1202              	.L76:
 359:RC522.c       **** 	}
 1203              		.loc 1 359 0
 1204 014c 0124     		movs	r4, #1
 1205 014e 02E0     		b	.L68
 1206              	.LVL162:
 1207              	.L79:
 1208              	.LBB9:
 368:RC522.c       **** 		}
 1209              		.loc 1 368 0
 1210 0150 0424     		movs	r4, #4
 1211 0152 00E0     		b	.L68
 1212              	.LVL163:
 1213              	.L80:
 1214              	.LBE9:
 380:RC522.c       **** 	}
 1215              		.loc 1 380 0
 1216 0154 0224     		movs	r4, #2
 1217              	.LVL164:
 1218              	.L68:
ARM GAS  C:\Users\nikod\AppData\Local\Temp\cc4NWLo4.s 			page 30


 401:RC522.c       **** 		}
 402:RC522.c       **** 	}
 403:RC522.c       **** 	
 404:RC522.c       **** 	return STATUS_OK;
 405:RC522.c       **** } // End PCD_CommunicateWithPICC()
 1219              		.loc 1 405 0
 1220 0156 2046     		mov	r0, r4
 1221 0158 02B0     		add	sp, sp, #8
 1222              		.cfi_def_cfa_offset 32
 1223              		@ sp needed
 1224 015a BDE8F087 		pop	{r4, r5, r6, r7, r8, r9, r10, pc}
 1225              		.cfi_endproc
 1226              	.LFE81:
 1227              		.size	PCD_CommunicateWithPICC, .-PCD_CommunicateWithPICC
 1228 015e 00BF     		.section	.text.PCD_TransceiveData,"ax",%progbits
 1229              		.align	2
 1230              		.global	PCD_TransceiveData
 1231              		.thumb
 1232              		.thumb_func
 1233              		.type	PCD_TransceiveData, %function
 1234              	PCD_TransceiveData:
 1235              	.LFB80:
 307:RC522.c       **** 	unsigned char waitIRq = 0x30;		// RxIRq and IdleIRq
 1236              		.loc 1 307 0
 1237              		.cfi_startproc
 1238              		@ args = 12, pretend = 0, frame = 0
 1239              		@ frame_needed = 0, uses_anonymous_args = 0
 1240              	.LVL165:
 1241 0000 10B5     		push	{r4, lr}
 1242              		.cfi_def_cfa_offset 8
 1243              		.cfi_offset 4, -8
 1244              		.cfi_offset 14, -4
 1245 0002 86B0     		sub	sp, sp, #24
 1246              		.cfi_def_cfa_offset 32
 1247              	.LVL166:
 309:RC522.c       **** } // End PCD_TransceiveData()
 1248              		.loc 1 309 0
 1249 0004 9DF82840 		ldrb	r4, [sp, #40]	@ zero_extendqisi2
 1250 0008 0494     		str	r4, [sp, #16]
 1251 000a 9DF82440 		ldrb	r4, [sp, #36]	@ zero_extendqisi2
 1252 000e 0394     		str	r4, [sp, #12]
 1253 0010 089C     		ldr	r4, [sp, #32]
 1254 0012 0294     		str	r4, [sp, #8]
 1255 0014 0193     		str	r3, [sp, #4]
 1256 0016 0092     		str	r2, [sp]
 1257 0018 0B46     		mov	r3, r1
 1258              	.LVL167:
 1259 001a 0246     		mov	r2, r0
 1260              	.LVL168:
 1261 001c 3021     		movs	r1, #48
 1262              	.LVL169:
 1263 001e 0C20     		movs	r0, #12
 1264              	.LVL170:
 1265 0020 FFF7FEFF 		bl	PCD_CommunicateWithPICC
 1266              	.LVL171:
 310:RC522.c       **** 
 1267              		.loc 1 310 0
ARM GAS  C:\Users\nikod\AppData\Local\Temp\cc4NWLo4.s 			page 31


 1268 0024 06B0     		add	sp, sp, #24
 1269              		.cfi_def_cfa_offset 8
 1270              		@ sp needed
 1271 0026 10BD     		pop	{r4, pc}
 1272              		.cfi_endproc
 1273              	.LFE80:
 1274              		.size	PCD_TransceiveData, .-PCD_TransceiveData
 1275              		.section	.text.PICC_REQA_or_WUPA,"ax",%progbits
 1276              		.align	2
 1277              		.global	PICC_REQA_or_WUPA
 1278              		.thumb
 1279              		.thumb_func
 1280              		.type	PICC_REQA_or_WUPA, %function
 1281              	PICC_REQA_or_WUPA:
 1282              	.LFB84:
 406:RC522.c       **** 
 407:RC522.c       **** 
 408:RC522.c       **** unsigned char PICC_RequestA(	unsigned char *bufferATQA,	///< The buffer to store the ATQA (Answer t
 409:RC522.c       **** 								unsigned char *bufferSize	///< Buffer size, at least two bytes. Also number of bytes return
 410:RC522.c       **** 										) {
 411:RC522.c       **** 	return PICC_REQA_or_WUPA(PICC_CMD_REQA, bufferATQA, bufferSize);
 412:RC522.c       **** } // End PICC_RequestA()
 413:RC522.c       **** 
 414:RC522.c       **** unsigned char PICC_WakeupA(	unsigned char *bufferATQA,	///< The buffer to store the ATQA (Answer to
 415:RC522.c       **** 							unsigned char *bufferSize	///< Buffer size, at least two bytes. Also number of bytes returne
 416:RC522.c       **** 										) {
 417:RC522.c       **** 	return PICC_REQA_or_WUPA(PICC_CMD_WUPA, bufferATQA, bufferSize);
 418:RC522.c       **** } // End PICC_WakeupA()
 419:RC522.c       **** 
 420:RC522.c       **** unsigned char PICC_REQA_or_WUPA(	unsigned char command, 		///< The command to send - PICC_CMD_REQA 
 421:RC522.c       **** 									unsigned char *bufferATQA,	///< The buffer to store the ATQA (Answer to request) in
 422:RC522.c       **** 									unsigned char *bufferSize	///< Buffer size, at least two bytes. Also number of bytes retur
 423:RC522.c       **** 											) {
 1283              		.loc 1 423 0
 1284              		.cfi_startproc
 1285              		@ args = 0, pretend = 0, frame = 16
 1286              		@ frame_needed = 0, uses_anonymous_args = 0
 1287              	.LVL172:
 1288 0000 30B5     		push	{r4, r5, lr}
 1289              		.cfi_def_cfa_offset 12
 1290              		.cfi_offset 4, -12
 1291              		.cfi_offset 5, -8
 1292              		.cfi_offset 14, -4
 1293 0002 89B0     		sub	sp, sp, #36
 1294              		.cfi_def_cfa_offset 48
 1295 0004 8DF81700 		strb	r0, [sp, #23]
 424:RC522.c       **** 	unsigned char validBits;
 425:RC522.c       **** 	unsigned char status;
 426:RC522.c       **** 	
 427:RC522.c       **** 	if (bufferATQA == NULL || (*bufferSize < 2)) {	// The ATQA response is 2 bytes unsigned long.
 1296              		.loc 1 427 0
 1297 0008 11B3     		cbz	r1, .L92
 1298 000a 0B46     		mov	r3, r1
 1299              		.loc 1 427 0 is_stmt 0 discriminator 1
 1300 000c 1178     		ldrb	r1, [r2]	@ zero_extendqisi2
 1301              	.LVL173:
 1302 000e 0129     		cmp	r1, #1
ARM GAS  C:\Users\nikod\AppData\Local\Temp\cc4NWLo4.s 			page 32


 1303 0010 20D9     		bls	.L93
 1304 0012 1D46     		mov	r5, r3
 1305 0014 1446     		mov	r4, r2
 428:RC522.c       **** 		return STATUS_NO_ROOM;
 429:RC522.c       **** 	}
 430:RC522.c       **** 	PCD_ClearRegisterBitMask(CollReg, 0x80);		// ValuesAfterColl=1 => Bits received after collision ar
 1306              		.loc 1 430 0 is_stmt 1
 1307 0016 8021     		movs	r1, #128
 1308 0018 0E20     		movs	r0, #14
 1309              	.LVL174:
 1310 001a FFF7FEFF 		bl	PCD_ClearRegisterBitMask
 1311              	.LVL175:
 431:RC522.c       **** 	validBits = 7;									// For REQA and WUPA we need the short frame format - transmit only 7 bits 
 1312              		.loc 1 431 0
 1313 001e 0723     		movs	r3, #7
 1314 0020 8DF81F30 		strb	r3, [sp, #31]
 432:RC522.c       **** 	status = PCD_TransceiveData(&command, 1, bufferATQA, bufferSize, &validBits, 0x0 ,false);
 1315              		.loc 1 432 0
 1316 0024 0023     		movs	r3, #0
 1317 0026 0293     		str	r3, [sp, #8]
 1318 0028 0193     		str	r3, [sp, #4]
 1319 002a 0DF11F03 		add	r3, sp, #31
 1320 002e 0093     		str	r3, [sp]
 1321 0030 2346     		mov	r3, r4
 1322 0032 2A46     		mov	r2, r5
 1323 0034 0121     		movs	r1, #1
 1324 0036 0DF11700 		add	r0, sp, #23
 1325              	.LVL176:
 1326 003a FFF7FEFF 		bl	PCD_TransceiveData
 1327              	.LVL177:
 433:RC522.c       **** 	if (status != STATUS_OK) {
 1328              		.loc 1 433 0
 1329 003e 58B9     		cbnz	r0, .L94
 434:RC522.c       **** 		return status;
 435:RC522.c       **** 	}
 436:RC522.c       **** 	if (*bufferSize != 2 || validBits != 0) {		// ATQA must be exactly 16 bits.
 1330              		.loc 1 436 0
 1331 0040 2378     		ldrb	r3, [r4]	@ zero_extendqisi2
 1332 0042 022B     		cmp	r3, #2
 1333 0044 09D1     		bne	.L95
 1334              		.loc 1 436 0 is_stmt 0 discriminator 1
 1335 0046 9DF81F00 		ldrb	r0, [sp, #31]	@ zero_extendqisi2
 1336              	.LVL178:
 1337 004a 38B1     		cbz	r0, .L91
 437:RC522.c       **** 		return STATUS_ERROR;
 1338              		.loc 1 437 0 is_stmt 1
 1339 004c 0120     		movs	r0, #1
 1340 004e 05E0     		b	.L91
 1341              	.LVL179:
 1342              	.L92:
 428:RC522.c       **** 	}
 1343              		.loc 1 428 0
 1344 0050 0420     		movs	r0, #4
 1345              	.LVL180:
 1346 0052 03E0     		b	.L91
 1347              	.LVL181:
 1348              	.L93:
ARM GAS  C:\Users\nikod\AppData\Local\Temp\cc4NWLo4.s 			page 33


 1349 0054 0420     		movs	r0, #4
 1350              	.LVL182:
 1351 0056 01E0     		b	.L91
 1352              	.LVL183:
 1353              	.L94:
 1354 0058 00E0     		b	.L91
 1355              	.L95:
 1356              		.loc 1 437 0
 1357 005a 0120     		movs	r0, #1
 1358              	.LVL184:
 1359              	.L91:
 438:RC522.c       **** 	}
 439:RC522.c       **** 	return STATUS_OK;
 440:RC522.c       **** } // End PICC_REQA_or_WUPA()
 1360              		.loc 1 440 0
 1361 005c 09B0     		add	sp, sp, #36
 1362              		.cfi_def_cfa_offset 12
 1363              		@ sp needed
 1364 005e 30BD     		pop	{r4, r5, pc}
 1365              		.cfi_endproc
 1366              	.LFE84:
 1367              		.size	PICC_REQA_or_WUPA, .-PICC_REQA_or_WUPA
 1368              		.section	.text.PICC_RequestA,"ax",%progbits
 1369              		.align	2
 1370              		.global	PICC_RequestA
 1371              		.thumb
 1372              		.thumb_func
 1373              		.type	PICC_RequestA, %function
 1374              	PICC_RequestA:
 1375              	.LFB82:
 410:RC522.c       **** 	return PICC_REQA_or_WUPA(PICC_CMD_REQA, bufferATQA, bufferSize);
 1376              		.loc 1 410 0
 1377              		.cfi_startproc
 1378              		@ args = 0, pretend = 0, frame = 0
 1379              		@ frame_needed = 0, uses_anonymous_args = 0
 1380              	.LVL185:
 1381 0000 08B5     		push	{r3, lr}
 1382              		.cfi_def_cfa_offset 8
 1383              		.cfi_offset 3, -8
 1384              		.cfi_offset 14, -4
 411:RC522.c       **** } // End PICC_RequestA()
 1385              		.loc 1 411 0
 1386 0002 0A46     		mov	r2, r1
 1387 0004 0146     		mov	r1, r0
 1388              	.LVL186:
 1389 0006 2620     		movs	r0, #38
 1390              	.LVL187:
 1391 0008 FFF7FEFF 		bl	PICC_REQA_or_WUPA
 1392              	.LVL188:
 412:RC522.c       **** 
 1393              		.loc 1 412 0
 1394 000c 08BD     		pop	{r3, pc}
 1395              		.cfi_endproc
 1396              	.LFE82:
 1397              		.size	PICC_RequestA, .-PICC_RequestA
 1398 000e 00BF     		.section	.text.PICC_WakeupA,"ax",%progbits
 1399              		.align	2
ARM GAS  C:\Users\nikod\AppData\Local\Temp\cc4NWLo4.s 			page 34


 1400              		.global	PICC_WakeupA
 1401              		.thumb
 1402              		.thumb_func
 1403              		.type	PICC_WakeupA, %function
 1404              	PICC_WakeupA:
 1405              	.LFB83:
 416:RC522.c       **** 	return PICC_REQA_or_WUPA(PICC_CMD_WUPA, bufferATQA, bufferSize);
 1406              		.loc 1 416 0
 1407              		.cfi_startproc
 1408              		@ args = 0, pretend = 0, frame = 0
 1409              		@ frame_needed = 0, uses_anonymous_args = 0
 1410              	.LVL189:
 1411 0000 08B5     		push	{r3, lr}
 1412              		.cfi_def_cfa_offset 8
 1413              		.cfi_offset 3, -8
 1414              		.cfi_offset 14, -4
 417:RC522.c       **** } // End PICC_WakeupA()
 1415              		.loc 1 417 0
 1416 0002 0A46     		mov	r2, r1
 1417 0004 0146     		mov	r1, r0
 1418              	.LVL190:
 1419 0006 5220     		movs	r0, #82
 1420              	.LVL191:
 1421 0008 FFF7FEFF 		bl	PICC_REQA_or_WUPA
 1422              	.LVL192:
 418:RC522.c       **** 
 1423              		.loc 1 418 0
 1424 000c 08BD     		pop	{r3, pc}
 1425              		.cfi_endproc
 1426              	.LFE83:
 1427              		.size	PICC_WakeupA, .-PICC_WakeupA
 1428 000e 00BF     		.section	.text.PICC_Select,"ax",%progbits
 1429              		.align	2
 1430              		.global	PICC_Select
 1431              		.thumb
 1432              		.thumb_func
 1433              		.type	PICC_Select, %function
 1434              	PICC_Select:
 1435              	.LFB85:
 441:RC522.c       **** 
 442:RC522.c       **** 
 443:RC522.c       **** 
 444:RC522.c       **** unsigned char PICC_Select(	Uid *uid,			///< Pointer to Uid struct. Normally output, but can also be
 445:RC522.c       **** 											unsigned char validBits		///< The number of known UID bits supplied in *uid. Normally 0.
 446:RC522.c       **** 										 ) {
 1436              		.loc 1 446 0
 1437              		.cfi_startproc
 1438              		@ args = 0, pretend = 0, frame = 24
 1439              		@ frame_needed = 0, uses_anonymous_args = 0
 1440              	.LVL193:
 447:RC522.c       **** 	bool uidComplete;
 448:RC522.c       **** 	bool selectDone;
 449:RC522.c       **** 	bool useCascadeTag;
 450:RC522.c       **** 	unsigned char cascadeLevel = 1;
 451:RC522.c       **** 	unsigned char result;
 452:RC522.c       **** 	unsigned char count;
 453:RC522.c       **** 	unsigned char checkBit;
ARM GAS  C:\Users\nikod\AppData\Local\Temp\cc4NWLo4.s 			page 35


 454:RC522.c       **** 	unsigned char index;
 455:RC522.c       ****     unsigned char uidIndex;					// The first index in uid->uidByte[] that is used in the current Ca
 456:RC522.c       **** 	int8_t currentLevelKnownBits;		// The number of known UID bits in the current Cascade Level.
 457:RC522.c       **** 	unsigned char buffer[9];					// The SELECT/ANTICOLLISION commands uses a 7 byte standard frame + 2
 458:RC522.c       **** 	unsigned char bufferUsed;				// The number of bytes used in the buffer, ie the number of bytes to 
 459:RC522.c       **** 	unsigned char rxAlign;					// Used in BitFramingReg. Defines the bit position for the first bit re
 460:RC522.c       **** 	unsigned char txLastBits;				// Used in BitFramingReg. The number of valid bits in the last transm
 461:RC522.c       **** 	unsigned char *responseBuffer;
 462:RC522.c       **** 	unsigned char responseLength;
 463:RC522.c       **** 	
 464:RC522.c       **** 	// Description of buffer structure:
 465:RC522.c       **** 	//		Byte 0: SEL 				Indicates the Cascade Level: PICC_CMD_SEL_CL1, PICC_CMD_SEL_CL2 or PICC_CMD_SE
 466:RC522.c       **** 	//		Byte 1: NVB					Number of Valid Bits (in complete command, not just the UID): High nibble: com
 467:RC522.c       **** 	//		Byte 2: UID-data or CT		See explanation below. CT means Cascade Tag.
 468:RC522.c       **** 	//		Byte 3: UID-data
 469:RC522.c       **** 	//		Byte 4: UID-data
 470:RC522.c       **** 	//		Byte 5: UID-data
 471:RC522.c       **** 	//		Byte 6: BCC					Block Check Character - XOR of bytes 2-5
 472:RC522.c       **** 	//		Byte 7: CRC_A
 473:RC522.c       **** 	//		Byte 8: CRC_A
 474:RC522.c       **** 	// The BCC and CRC_A are only transmitted if we know all the UID bits of the current Cascade Level
 475:RC522.c       **** 	//
 476:RC522.c       **** 	// Description of bytes 2-5: (Section 6.5.4 of the ISO/IEC 14443-3 draft: UID contents and cascade
 477:RC522.c       **** 	//		UID size	Cascade level	Byte2	Byte3	Byte4	Byte5
 478:RC522.c       **** 	//		========	=============	=====	=====	=====	=====
 479:RC522.c       **** 	//		 4 bytes		1			uid0	uid1	uid2	uid3
 480:RC522.c       **** 	//		 7 bytes		1			CT		uid0	uid1	uid2
 481:RC522.c       **** 	//						2			uid3	uid4	uid5	uid6
 482:RC522.c       **** 	//		10 bytes		1			CT		uid0	uid1	uid2
 483:RC522.c       **** 	//						2			CT		uid3	uid4	uid5
 484:RC522.c       **** 	//						3			uid6	uid7	uid8	uid9
 485:RC522.c       **** 	
 486:RC522.c       **** 	// Sanity checks
 487:RC522.c       **** 	if (validBits > 80) {
 1441              		.loc 1 487 0
 1442 0000 5029     		cmp	r1, #80
 1443 0002 00F26481 		bhi	.L138
 446:RC522.c       **** 	bool uidComplete;
 1444              		.loc 1 446 0
 1445 0006 2DE9F04F 		push	{r4, r5, r6, r7, r8, r9, r10, fp, lr}
 1446              		.cfi_def_cfa_offset 36
 1447              		.cfi_offset 4, -36
 1448              		.cfi_offset 5, -32
 1449              		.cfi_offset 6, -28
 1450              		.cfi_offset 7, -24
 1451              		.cfi_offset 8, -20
 1452              		.cfi_offset 9, -16
 1453              		.cfi_offset 10, -12
 1454              		.cfi_offset 11, -8
 1455              		.cfi_offset 14, -4
 1456 000a 8BB0     		sub	sp, sp, #44
 1457              		.cfi_def_cfa_offset 80
 1458 000c 0491     		str	r1, [sp, #16]
 1459 000e 8146     		mov	r9, r0
 488:RC522.c       **** 		return STATUS_INVALID;
 489:RC522.c       **** 	}
 490:RC522.c       **** 	
ARM GAS  C:\Users\nikod\AppData\Local\Temp\cc4NWLo4.s 			page 36


 491:RC522.c       **** 	// Prepare MFRC522
 492:RC522.c       **** 	PCD_ClearRegisterBitMask(CollReg, 0x80);		// ValuesAfterColl=1 => Bits received after collision ar
 1460              		.loc 1 492 0
 1461 0010 8021     		movs	r1, #128
 1462              	.LVL194:
 1463 0012 0E20     		movs	r0, #14
 1464              	.LVL195:
 1465 0014 FFF7FEFF 		bl	PCD_ClearRegisterBitMask
 1466              	.LVL196:
 450:RC522.c       **** 	unsigned char result;
 1467              		.loc 1 450 0
 1468 0018 4FF0010B 		mov	fp, #1
 493:RC522.c       **** 	
 494:RC522.c       **** 	// Repeat Cascade Level loop until we have a complete UID.
 495:RC522.c       **** 	uidComplete = false;
 1469              		.loc 1 495 0
 1470 001c 0023     		movs	r3, #0
 1471 001e 0593     		str	r3, [sp, #20]
 496:RC522.c       **** 	while (!uidComplete) {
 1472              		.loc 1 496 0
 1473 0020 49E1     		b	.L103
 1474              	.LVL197:
 1475              	.L137:
 1476              	.LBB10:
 497:RC522.c       **** 		// Set the Cascade Level in the SEL byte, find out if we need to use the Cascade Tag in byte 2.
 498:RC522.c       **** 		switch (cascadeLevel) {
 1477              		.loc 1 498 0
 1478 0022 BBF1020F 		cmp	fp, #2
 1479 0026 17D0     		beq	.L104
 1480 0028 BBF1030F 		cmp	fp, #3
 1481 002c 25D0     		beq	.L105
 1482 002e BBF1010F 		cmp	fp, #1
 1483 0032 40F04E81 		bne	.L160
 499:RC522.c       **** 			case 1:
 500:RC522.c       **** 				buffer[0] = PICC_CMD_SEL_CL1;
 1484              		.loc 1 500 0
 1485 0036 9323     		movs	r3, #147
 1486 0038 8DF81C30 		strb	r3, [sp, #28]
 1487              	.LVL198:
 501:RC522.c       **** 				uidIndex = 0;
 502:RC522.c       **** 				useCascadeTag = validBits && uid->size > 4;	// When we know that the UID has more than 4 bytes
 1488              		.loc 1 502 0
 1489 003c 049B     		ldr	r3, [sp, #16]
 1490 003e 2BB1     		cbz	r3, .L140
 1491              		.loc 1 502 0 is_stmt 0 discriminator 1
 1492 0040 99F80030 		ldrb	r3, [r9]	@ zero_extendqisi2
 1493 0044 042B     		cmp	r3, #4
 1494 0046 03D8     		bhi	.L141
 1495              		.loc 1 502 0
 1496 0048 0026     		movs	r6, #0
 1497 004a 02E0     		b	.L107
 1498              	.L140:
 1499 004c 0026     		movs	r6, #0
 1500 004e 00E0     		b	.L107
 1501              	.L141:
 1502 0050 0126     		movs	r6, #1
 1503              	.L107:
ARM GAS  C:\Users\nikod\AppData\Local\Temp\cc4NWLo4.s 			page 37


 1504              	.LVL199:
 501:RC522.c       **** 				uidIndex = 0;
 1505              		.loc 1 501 0 is_stmt 1 discriminator 6
 1506 0052 4FF0000A 		mov	r10, #0
 503:RC522.c       **** 				break;
 1507              		.loc 1 503 0 discriminator 6
 1508 0056 16E0     		b	.L108
 1509              	.LVL200:
 1510              	.L104:
 504:RC522.c       **** 			
 505:RC522.c       **** 			case 2:
 506:RC522.c       **** 				buffer[0] = PICC_CMD_SEL_CL2;
 1511              		.loc 1 506 0
 1512 0058 9523     		movs	r3, #149
 1513 005a 8DF81C30 		strb	r3, [sp, #28]
 1514              	.LVL201:
 507:RC522.c       **** 				uidIndex = 3;
 508:RC522.c       **** 				useCascadeTag = validBits && uid->size > 7;	// When we know that the UID has more than 7 bytes
 1515              		.loc 1 508 0
 1516 005e 049B     		ldr	r3, [sp, #16]
 1517 0060 2BB1     		cbz	r3, .L142
 1518              		.loc 1 508 0 is_stmt 0 discriminator 1
 1519 0062 99F80030 		ldrb	r3, [r9]	@ zero_extendqisi2
 1520 0066 072B     		cmp	r3, #7
 1521 0068 03D8     		bhi	.L143
 1522              		.loc 1 508 0
 1523 006a 0026     		movs	r6, #0
 1524 006c 02E0     		b	.L109
 1525              	.L142:
 1526 006e 0026     		movs	r6, #0
 1527 0070 00E0     		b	.L109
 1528              	.L143:
 1529 0072 0126     		movs	r6, #1
 1530              	.L109:
 1531              	.LVL202:
 507:RC522.c       **** 				uidIndex = 3;
 1532              		.loc 1 507 0 is_stmt 1 discriminator 6
 1533 0074 4FF0030A 		mov	r10, #3
 509:RC522.c       **** 				break;
 1534              		.loc 1 509 0 discriminator 6
 1535 0078 05E0     		b	.L108
 1536              	.LVL203:
 1537              	.L105:
 510:RC522.c       **** 			
 511:RC522.c       **** 			case 3:
 512:RC522.c       **** 				buffer[0] = PICC_CMD_SEL_CL3;
 1538              		.loc 1 512 0
 1539 007a 9723     		movs	r3, #151
 1540 007c 8DF81C30 		strb	r3, [sp, #28]
 1541              	.LVL204:
 513:RC522.c       **** 				uidIndex = 6;
 1542              		.loc 1 513 0
 1543 0080 4FF0060A 		mov	r10, #6
 514:RC522.c       **** 				useCascadeTag = false;						// Never used in CL3.
 1544              		.loc 1 514 0
 1545 0084 0026     		movs	r6, #0
 1546              	.LVL205:
ARM GAS  C:\Users\nikod\AppData\Local\Temp\cc4NWLo4.s 			page 38


 1547              	.L108:
 515:RC522.c       **** 				break;
 516:RC522.c       **** 			
 517:RC522.c       **** 			default:
 518:RC522.c       **** 				return STATUS_INTERNAL_ERROR;
 519:RC522.c       **** 				break;
 520:RC522.c       **** 		}
 521:RC522.c       **** 		
 522:RC522.c       **** 		// How many UID bits are known in this Cascade Level?
 523:RC522.c       **** 		currentLevelKnownBits = validBits - (8 * uidIndex);
 1548              		.loc 1 523 0
 1549 0086 049B     		ldr	r3, [sp, #16]
 1550 0088 A3EBCA05 		sub	r5, r3, r10, lsl #3
 1551 008c 6DB2     		sxtb	r5, r5
 1552              	.LVL206:
 524:RC522.c       **** 		if (currentLevelKnownBits < 0) {
 1553              		.loc 1 524 0
 1554 008e 002D     		cmp	r5, #0
 1555 0090 00DA     		bge	.L110
 525:RC522.c       **** 			currentLevelKnownBits = 0;
 1556              		.loc 1 525 0
 1557 0092 0025     		movs	r5, #0
 1558              	.LVL207:
 1559              	.L110:
 526:RC522.c       **** 		}
 527:RC522.c       **** 		// Copy the known bits from uid->uidByte[] to buffer[]
 528:RC522.c       **** 		index = 2; // destination index in buffer[]
 529:RC522.c       **** 		if (useCascadeTag) {
 1560              		.loc 1 529 0
 1561 0094 26B1     		cbz	r6, .L145
 1562              	.LVL208:
 530:RC522.c       **** 			buffer[index++] = PICC_CMD_CT;
 1563              		.loc 1 530 0
 1564 0096 8823     		movs	r3, #136
 1565 0098 8DF81E30 		strb	r3, [sp, #30]
 1566 009c 0322     		movs	r2, #3
 1567 009e 00E0     		b	.L111
 1568              	.LVL209:
 1569              	.L145:
 528:RC522.c       **** 		if (useCascadeTag) {
 1570              		.loc 1 528 0
 1571 00a0 0222     		movs	r2, #2
 1572              	.LVL210:
 1573              	.L111:
 531:RC522.c       **** 		}
 532:RC522.c       **** 		unsigned char bytesToCopy = currentLevelKnownBits / 8 + (currentLevelKnownBits % 8 ? 1 : 0); // T
 1574              		.loc 1 532 0
 1575 00a2 5FFA85FE 		uxtb	lr, r5
 1576 00a6 1EF00703 		ands	r3, lr, #7
 1577 00aa 18BF     		it	ne
 1578 00ac 0123     		movne	r3, #1
 1579 00ae 2946     		mov	r1, r5
 1580 00b0 002D     		cmp	r5, #0
 1581 00b2 00DA     		bge	.L112
 1582 00b4 E91D     		adds	r1, r5, #7
 1583              	.L112:
 1584 00b6 03EBE103 		add	r3, r3, r1, asr #3
ARM GAS  C:\Users\nikod\AppData\Local\Temp\cc4NWLo4.s 			page 39


 1585              	.LVL211:
 533:RC522.c       **** 		if (bytesToCopy) {
 1586              		.loc 1 533 0
 1587 00ba 13F0FF03 		ands	r3, r3, #255
 1588              	.LVL212:
 1589 00be 17D0     		beq	.L113
 1590              	.LBB11:
 534:RC522.c       **** 			unsigned char maxBytes = useCascadeTag ? 3 : 4; // Max 4 bytes in each Cascade Level. Only 3 lef
 1591              		.loc 1 534 0
 1592 00c0 0EB1     		cbz	r6, .L146
 1593 00c2 0324     		movs	r4, #3
 1594 00c4 00E0     		b	.L114
 1595              	.L146:
 1596 00c6 0424     		movs	r4, #4
 1597              	.L114:
 1598              	.LVL213:
 535:RC522.c       **** 			if (bytesToCopy > maxBytes) {
 1599              		.loc 1 535 0 discriminator 4
 1600 00c8 9C42     		cmp	r4, r3
 1601 00ca 00D3     		bcc	.L115
 1602              	.LBE11:
 532:RC522.c       **** 		if (bytesToCopy) {
 1603              		.loc 1 532 0
 1604 00cc 1C46     		mov	r4, r3
 1605              	.LVL214:
 1606              	.L115:
 1607              	.LBB12:
 536:RC522.c       **** 				bytesToCopy = maxBytes;
 537:RC522.c       **** 			}
 538:RC522.c       **** 			for (count = 0; count < bytesToCopy; count++) {
 1608              		.loc 1 538 0
 1609 00ce 0023     		movs	r3, #0
 1610 00d0 0CE0     		b	.L116
 1611              	.LVL215:
 1612              	.L117:
 539:RC522.c       **** 				buffer[index++] = uid->uidByte[uidIndex + count];
 1613              		.loc 1 539 0 discriminator 3
 1614 00d2 501C     		adds	r0, r2, #1
 1615              	.LVL216:
 1616 00d4 0AEB0301 		add	r1, r10, r3
 1617 00d8 4944     		add	r1, r1, r9
 1618 00da 4978     		ldrb	r1, [r1, #1]	@ zero_extendqisi2
 1619 00dc 0DF1280C 		add	ip, sp, #40
 1620 00e0 6244     		add	r2, r2, ip
 1621 00e2 02F80C1C 		strb	r1, [r2, #-12]
 538:RC522.c       **** 				buffer[index++] = uid->uidByte[uidIndex + count];
 1622              		.loc 1 538 0 discriminator 3
 1623 00e6 0133     		adds	r3, r3, #1
 1624              	.LVL217:
 1625 00e8 DBB2     		uxtb	r3, r3
 1626              	.LVL218:
 1627              		.loc 1 539 0 discriminator 3
 1628 00ea C2B2     		uxtb	r2, r0
 1629              	.LVL219:
 1630              	.L116:
 538:RC522.c       **** 				buffer[index++] = uid->uidByte[uidIndex + count];
 1631              		.loc 1 538 0 discriminator 1
ARM GAS  C:\Users\nikod\AppData\Local\Temp\cc4NWLo4.s 			page 40


 1632 00ec A342     		cmp	r3, r4
 1633 00ee F0D3     		bcc	.L117
 1634              	.LVL220:
 1635              	.L113:
 1636              	.LBE12:
 540:RC522.c       **** 			}
 541:RC522.c       **** 		}
 542:RC522.c       **** 		// Now that the data has been copied we need to include the 8 bits in CT in currentLevelKnownBits
 543:RC522.c       **** 		if (useCascadeTag) {
 1637              		.loc 1 543 0
 1638 00f0 16B1     		cbz	r6, .L118
 544:RC522.c       **** 			currentLevelKnownBits += 8;
 1639              		.loc 1 544 0
 1640 00f2 0EF10805 		add	r5, lr, #8
 1641              	.LVL221:
 1642 00f6 6DB2     		sxtb	r5, r5
 1643              	.LVL222:
 1644              	.L118:
 545:RC522.c       **** 		}
 546:RC522.c       **** 		
 547:RC522.c       **** 		// Repeat anti collision loop until we can transmit all UID bits + BCC and receive a SAK - max 32
 548:RC522.c       **** 		selectDone = false;
 549:RC522.c       **** 		while (!selectDone) {
 550:RC522.c       **** 			// Find out how many bits and bytes to send and receive.
 551:RC522.c       **** 			if (currentLevelKnownBits >= 32) { // All UID bits in this Cascade Level are known. This is a SE
 552:RC522.c       **** 				//Serial.print(F("SELECT: currentLevelKnownBits=")); Serial.println(currentLevelKnownBits, DEC)
 553:RC522.c       **** 				buffer[1] = 0x70; // NVB - Number of Valid Bits: Seven whole bytes
 554:RC522.c       **** 				// Calculate BCC - Block Check Character
 555:RC522.c       **** 				buffer[6] = buffer[2] ^ buffer[3] ^ buffer[4] ^ buffer[5];
 556:RC522.c       **** 				// Calculate CRC_A
 557:RC522.c       **** 				result = PCD_CalculateCRC(buffer, 7, &buffer[7]);
 558:RC522.c       **** 				if (result != STATUS_OK) {
 559:RC522.c       **** 					return result;
 560:RC522.c       **** 				}
 561:RC522.c       **** 				txLastBits		= 0; // 0 => All 8 bits are valid.
 562:RC522.c       **** 				bufferUsed		= 9;
 563:RC522.c       **** 				// Store response in the last 3 bytes of buffer (BCC and CRC_A - not needed after tx)
 564:RC522.c       **** 				responseBuffer	= &buffer[6];
 565:RC522.c       **** 				responseLength	= 3;
 566:RC522.c       **** 			}
 567:RC522.c       **** 			else { // This is an ANTICOLLISION.
 568:RC522.c       **** 				//Serial.print(F("ANTICOLLISION: currentLevelKnownBits=")); Serial.println(currentLevelKnownBit
 569:RC522.c       **** 				txLastBits		= currentLevelKnownBits % 8;
 570:RC522.c       **** 				count			= currentLevelKnownBits / 8;	// Number of whole bytes in the UID part.
 571:RC522.c       **** 				index			= 2 + count;					// Number of whole bytes: SEL + NVB + UIDs
 572:RC522.c       **** 				buffer[1]		= (index << 4) + txLastBits;	// NVB - Number of Valid Bits
 573:RC522.c       **** 				bufferUsed		= index + (txLastBits ? 1 : 0);
 574:RC522.c       **** 				// Store response in the unused part of buffer
 575:RC522.c       **** 				responseBuffer	= &buffer[index];
 576:RC522.c       **** 				responseLength	= sizeof(buffer) - index;
 577:RC522.c       **** 			}
 578:RC522.c       **** 			
 579:RC522.c       **** 			// Set bit adjustments
 580:RC522.c       **** 			rxAlign = txLastBits;											// Having a separate variable is overkill. But it makes the next
 581:RC522.c       **** 			PCD_WriteRegister(BitFramingReg, (rxAlign << 4) + txLastBits);	// RxAlign = BitFramingReg[6..4].
 582:RC522.c       **** 			
 583:RC522.c       **** 			// Transmit the buffer and receive the response.
ARM GAS  C:\Users\nikod\AppData\Local\Temp\cc4NWLo4.s 			page 41


 584:RC522.c       **** 			result = PCD_TransceiveData(buffer, bufferUsed, responseBuffer, &responseLength, &txLastBits, rx
 585:RC522.c       **** 			if (result == STATUS_COLLISION) { // More than one PICC in the field => collision.
 586:RC522.c       **** 				unsigned char valueOfCollReg = PCD_ReadRegister(CollReg); // CollReg[7..0] bits are: ValuesAfte
 587:RC522.c       **** 				if (valueOfCollReg & 0x20) { // CollPosNotValid
 588:RC522.c       **** 					return STATUS_COLLISION; // Without a valid collision position we cannot continue
 589:RC522.c       **** 				}
 590:RC522.c       **** 				unsigned char collisionPos = valueOfCollReg & 0x1F; // Values 0-31, 0 means bit 32.
 591:RC522.c       **** 				if (collisionPos == 0) {
 592:RC522.c       **** 					collisionPos = 32;
 593:RC522.c       **** 				}
 594:RC522.c       **** 				if (collisionPos <= currentLevelKnownBits) { // No progress - should not happen 
 595:RC522.c       **** 					return STATUS_INTERNAL_ERROR;
 596:RC522.c       **** 				}
 597:RC522.c       **** 				// Choose the PICC with the bit set.
 598:RC522.c       **** 				currentLevelKnownBits	= collisionPos;
 599:RC522.c       **** 				count			= currentLevelKnownBits % 8; // The bit to modify
 600:RC522.c       **** 				checkBit		= (currentLevelKnownBits - 1) % 8;
 601:RC522.c       **** 				index			= 1 + (currentLevelKnownBits / 8) + (count ? 1 : 0); // First byte is index 0.
 602:RC522.c       **** 				buffer[index]	|= (1 << checkBit);
 603:RC522.c       **** 			}
 604:RC522.c       **** 			else if (result != STATUS_OK) {
 605:RC522.c       **** 				return result;
 606:RC522.c       **** 			}
 607:RC522.c       **** 			else { // STATUS_OK
 608:RC522.c       **** 				if (currentLevelKnownBits >= 32) { // This was a SELECT.
 609:RC522.c       **** 					selectDone = true; // No more anticollision 
 1645              		.loc 1 609 0
 1646 00f8 4FF00008 		mov	r8, #0
 1647 00fc 95E0     		b	.L119
 1648              	.LVL223:
 1649              	.L130:
 551:RC522.c       **** 				//Serial.print(F("SELECT: currentLevelKnownBits=")); Serial.println(currentLevelKnownBits, DEC)
 1650              		.loc 1 551 0
 1651 00fe 1F2D     		cmp	r5, #31
 1652 0100 22DD     		ble	.L120
 553:RC522.c       **** 				// Calculate BCC - Block Check Character
 1653              		.loc 1 553 0
 1654 0102 7023     		movs	r3, #112
 1655 0104 8DF81D30 		strb	r3, [sp, #29]
 555:RC522.c       **** 				// Calculate CRC_A
 1656              		.loc 1 555 0
 1657 0108 9DF81E00 		ldrb	r0, [sp, #30]	@ zero_extendqisi2
 1658 010c 9DF81F20 		ldrb	r2, [sp, #31]	@ zero_extendqisi2
 1659 0110 9DF82030 		ldrb	r3, [sp, #32]	@ zero_extendqisi2
 1660 0114 9DF82110 		ldrb	r1, [sp, #33]	@ zero_extendqisi2
 1661 0118 4240     		eors	r2, r2, r0
 1662 011a 5340     		eors	r3, r3, r2
 1663 011c 4B40     		eors	r3, r3, r1
 1664 011e 8DF82230 		strb	r3, [sp, #34]
 557:RC522.c       **** 				if (result != STATUS_OK) {
 1665              		.loc 1 557 0
 1666 0122 0DF12302 		add	r2, sp, #35
 1667 0126 0721     		movs	r1, #7
 1668 0128 07A8     		add	r0, sp, #28
 1669 012a FFF7FEFF 		bl	PCD_CalculateCRC
 1670              	.LVL224:
 558:RC522.c       **** 					return result;
ARM GAS  C:\Users\nikod\AppData\Local\Temp\cc4NWLo4.s 			page 42


 1671              		.loc 1 558 0
 1672 012e 0028     		cmp	r0, #0
 1673 0130 40F0D180 		bne	.L147
 561:RC522.c       **** 				bufferUsed		= 9;
 1674              		.loc 1 561 0
 1675 0134 0023     		movs	r3, #0
 1676 0136 8DF81B30 		strb	r3, [sp, #27]
 1677              	.LVL225:
 565:RC522.c       **** 			}
 1678              		.loc 1 565 0
 1679 013a 0323     		movs	r3, #3
 1680 013c 8DF81A30 		strb	r3, [sp, #26]
 564:RC522.c       **** 				responseLength	= 3;
 1681              		.loc 1 564 0
 1682 0140 0DF12207 		add	r7, sp, #34
 1683              	.LVL226:
 562:RC522.c       **** 				// Store response in the last 3 bytes of buffer (BCC and CRC_A - not needed after tx)
 1684              		.loc 1 562 0
 1685 0144 0924     		movs	r4, #9
 1686 0146 20E0     		b	.L121
 1687              	.LVL227:
 1688              	.L120:
 569:RC522.c       **** 				count			= currentLevelKnownBits / 8;	// Number of whole bytes in the UID part.
 1689              		.loc 1 569 0
 1690 0148 6B4C     		ldr	r4, .L162
 1691 014a 2C40     		ands	r4, r5, r4
 1692 014c 03D5     		bpl	.L122
 1693 014e 013C     		subs	r4, r4, #1
 1694 0150 64F00704 		orn	r4, r4, #7
 1695 0154 0134     		adds	r4, r4, #1
 1696              	.L122:
 1697 0156 E4B2     		uxtb	r4, r4
 1698 0158 8DF81B40 		strb	r4, [sp, #27]
 570:RC522.c       **** 				index			= 2 + count;					// Number of whole bytes: SEL + NVB + UIDs
 1699              		.loc 1 570 0
 1700 015c 2B46     		mov	r3, r5
 1701 015e 002D     		cmp	r5, #0
 1702 0160 00DA     		bge	.L123
 1703 0162 EB1D     		adds	r3, r5, #7
 1704              	.L123:
 1705 0164 C3F3C703 		ubfx	r3, r3, #3, #8
 1706              	.LVL228:
 571:RC522.c       **** 				buffer[1]		= (index << 4) + txLastBits;	// NVB - Number of Valid Bits
 1707              		.loc 1 571 0
 1708 0168 0233     		adds	r3, r3, #2
 1709              	.LVL229:
 1710 016a DBB2     		uxtb	r3, r3
 1711              	.LVL230:
 572:RC522.c       **** 				bufferUsed		= index + (txLastBits ? 1 : 0);
 1712              		.loc 1 572 0
 1713 016c 04EB0312 		add	r2, r4, r3, lsl #4
 1714 0170 8DF81D20 		strb	r2, [sp, #29]
 573:RC522.c       **** 				// Store response in the unused part of buffer
 1715              		.loc 1 573 0
 1716 0174 002C     		cmp	r4, #0
 1717 0176 0CBF     		ite	eq
 1718 0178 1C46     		moveq	r4, r3
ARM GAS  C:\Users\nikod\AppData\Local\Temp\cc4NWLo4.s 			page 43


 1719 017a 5C1C     		addne	r4, r3, #1
 1720 017c E4B2     		uxtb	r4, r4
 1721              	.LVL231:
 575:RC522.c       **** 				responseLength	= sizeof(buffer) - index;
 1722              		.loc 1 575 0
 1723 017e 07AA     		add	r2, sp, #28
 1724 0180 D718     		adds	r7, r2, r3
 1725              	.LVL232:
 576:RC522.c       **** 			}
 1726              		.loc 1 576 0
 1727 0182 C3F10903 		rsb	r3, r3, #9
 1728              	.LVL233:
 1729 0186 8DF81A30 		strb	r3, [sp, #26]
 1730              	.LVL234:
 1731              	.L121:
 580:RC522.c       **** 			PCD_WriteRegister(BitFramingReg, (rxAlign << 4) + txLastBits);	// RxAlign = BitFramingReg[6..4].
 1732              		.loc 1 580 0
 1733 018a 9DF81B60 		ldrb	r6, [sp, #27]	@ zero_extendqisi2
 1734              	.LVL235:
 581:RC522.c       **** 			
 1735              		.loc 1 581 0
 1736 018e 06EB0611 		add	r1, r6, r6, lsl #4
 1737 0192 C9B2     		uxtb	r1, r1
 1738 0194 0D20     		movs	r0, #13
 1739 0196 FFF7FEFF 		bl	PCD_WriteRegister
 1740              	.LVL236:
 584:RC522.c       **** 			if (result == STATUS_COLLISION) { // More than one PICC in the field => collision.
 1741              		.loc 1 584 0
 1742 019a 0023     		movs	r3, #0
 1743 019c 0293     		str	r3, [sp, #8]
 1744 019e 0196     		str	r6, [sp, #4]
 1745 01a0 0DF11B03 		add	r3, sp, #27
 1746 01a4 0093     		str	r3, [sp]
 1747 01a6 0DF11A03 		add	r3, sp, #26
 1748 01aa 3A46     		mov	r2, r7
 1749 01ac 2146     		mov	r1, r4
 1750 01ae 07A8     		add	r0, sp, #28
 1751 01b0 FFF7FEFF 		bl	PCD_TransceiveData
 1752              	.LVL237:
 585:RC522.c       **** 				unsigned char valueOfCollReg = PCD_ReadRegister(CollReg); // CollReg[7..0] bits are: ValuesAfte
 1753              		.loc 1 585 0
 1754 01b4 0228     		cmp	r0, #2
 1755 01b6 30D1     		bne	.L124
 1756              	.LBB13:
 586:RC522.c       **** 				if (valueOfCollReg & 0x20) { // CollPosNotValid
 1757              		.loc 1 586 0
 1758 01b8 0E20     		movs	r0, #14
 1759              	.LVL238:
 1760 01ba FFF7FEFF 		bl	PCD_ReadRegister
 1761              	.LVL239:
 587:RC522.c       **** 					return STATUS_COLLISION; // Without a valid collision position we cannot continue
 1762              		.loc 1 587 0
 1763 01be 10F0200F 		tst	r0, #32
 1764 01c2 40F08980 		bne	.L148
 1765              	.LVL240:
 591:RC522.c       **** 					collisionPos = 32;
 1766              		.loc 1 591 0
ARM GAS  C:\Users\nikod\AppData\Local\Temp\cc4NWLo4.s 			page 44


 1767 01c6 10F01F00 		ands	r0, r0, #31
 1768              	.LVL241:
 1769 01ca 00D1     		bne	.L125
 592:RC522.c       **** 				}
 1770              		.loc 1 592 0
 1771 01cc 2020     		movs	r0, #32
 1772              	.L125:
 1773              	.LVL242:
 594:RC522.c       **** 					return STATUS_INTERNAL_ERROR;
 1774              		.loc 1 594 0
 1775 01ce A842     		cmp	r0, r5
 1776 01d0 40F38480 		ble	.L150
 598:RC522.c       **** 				count			= currentLevelKnownBits % 8; // The bit to modify
 1777              		.loc 1 598 0
 1778 01d4 45B2     		sxtb	r5, r0
 1779              	.LVL243:
 599:RC522.c       **** 				checkBit		= (currentLevelKnownBits - 1) % 8;
 1780              		.loc 1 599 0
 1781 01d6 05F00703 		and	r3, r5, #7
 1782 01da 5BB2     		sxtb	r3, r3
 1783              	.LVL244:
 600:RC522.c       **** 				index			= 1 + (currentLevelKnownBits / 8) + (count ? 1 : 0); // First byte is index 0.
 1784              		.loc 1 600 0
 1785 01dc 6A1E     		subs	r2, r5, #1
 1786 01de 4649     		ldr	r1, .L162
 1787 01e0 0A40     		ands	r2, r2, r1
 1788 01e2 03D5     		bpl	.L127
 1789 01e4 013A     		subs	r2, r2, #1
 1790 01e6 62F00702 		orn	r2, r2, #7
 1791 01ea 0132     		adds	r2, r2, #1
 1792              	.L127:
 1793              	.LVL245:
 601:RC522.c       **** 				buffer[index]	|= (1 << checkBit);
 1794              		.loc 1 601 0
 1795 01ec 0033     		adds	r3, r3, #0
 1796 01ee 18BF     		it	ne
 1797 01f0 0123     		movne	r3, #1
 1798              	.LVL246:
 1799 01f2 2946     		mov	r1, r5
 1800 01f4 002D     		cmp	r5, #0
 1801 01f6 00DA     		bge	.L128
 1802              	.LVL247:
 1803 01f8 E91D     		adds	r1, r5, #7
 1804              	.LVL248:
 1805              	.L128:
 1806 01fa 03EBE103 		add	r3, r3, r1, asr #3
 1807 01fe 0133     		adds	r3, r3, #1
 1808 0200 DBB2     		uxtb	r3, r3
 1809              	.LVL249:
 602:RC522.c       **** 			}
 1810              		.loc 1 602 0
 1811 0202 D2B2     		uxtb	r2, r2
 1812              	.LVL250:
 1813 0204 0121     		movs	r1, #1
 1814 0206 01FA02F2 		lsl	r2, r1, r2
 1815 020a 0AA9     		add	r1, sp, #40
 1816 020c 0B44     		add	r3, r3, r1
ARM GAS  C:\Users\nikod\AppData\Local\Temp\cc4NWLo4.s 			page 45


 1817              	.LVL251:
 1818 020e 13F80C1C 		ldrb	r1, [r3, #-12]	@ zero_extendqisi2
 1819 0212 0A43     		orrs	r2, r2, r1
 1820 0214 03F80C2C 		strb	r2, [r3, #-12]
 1821              	.LBE13:
 1822 0218 07E0     		b	.L119
 1823              	.LVL252:
 1824              	.L124:
 604:RC522.c       **** 				return result;
 1825              		.loc 1 604 0
 1826 021a 0028     		cmp	r0, #0
 1827 021c 68D1     		bne	.L102
 608:RC522.c       **** 					selectDone = true; // No more anticollision 
 1828              		.loc 1 608 0
 1829 021e 1F2D     		cmp	r5, #31
 1830 0220 02DD     		ble	.L152
 1831              		.loc 1 609 0
 1832 0222 4FF00108 		mov	r8, #1
 1833              	.LVL253:
 1834 0226 00E0     		b	.L119
 1835              	.LVL254:
 1836              	.L152:
 610:RC522.c       **** 					// We continue below outside the while.
 611:RC522.c       **** 				}
 612:RC522.c       **** 				else { // This was an ANTICOLLISION.
 613:RC522.c       **** 					// We now have all 32 bits of the UID in this Cascade Level
 614:RC522.c       **** 					currentLevelKnownBits = 32;
 1837              		.loc 1 614 0
 1838 0228 2025     		movs	r5, #32
 1839              	.LVL255:
 1840              	.L119:
 549:RC522.c       **** 			// Find out how many bits and bytes to send and receive.
 1841              		.loc 1 549 0
 1842 022a B8F1000F 		cmp	r8, #0
 1843 022e 3FF466AF 		beq	.L130
 615:RC522.c       **** 					// Run loop again to do the SELECT.
 616:RC522.c       **** 				}
 617:RC522.c       **** 			}
 618:RC522.c       **** 		} // End of while (!selectDone)
 619:RC522.c       **** 		
 620:RC522.c       **** 		// We do not check the CBB - it was constructed by us above.
 621:RC522.c       **** 		
 622:RC522.c       **** 		// Copy the found UID bytes from buffer[] to uid->uidByte[]
 623:RC522.c       **** 		index			= (buffer[2] == PICC_CMD_CT) ? 3 : 2; // source index in buffer[]
 1844              		.loc 1 623 0
 1845 0232 9DF81E30 		ldrb	r3, [sp, #30]	@ zero_extendqisi2
 1846 0236 882B     		cmp	r3, #136
 1847 0238 01D1     		bne	.L153
 1848 023a 0322     		movs	r2, #3
 1849 023c 00E0     		b	.L131
 1850              	.L153:
 1851 023e 0222     		movs	r2, #2
 1852              	.L131:
 1853              	.LVL256:
 624:RC522.c       **** 		bytesToCopy		= (buffer[2] == PICC_CMD_CT) ? 3 : 4;
 1854              		.loc 1 624 0 discriminator 4
 1855 0240 882B     		cmp	r3, #136
ARM GAS  C:\Users\nikod\AppData\Local\Temp\cc4NWLo4.s 			page 46


 1856 0242 01D1     		bne	.L154
 1857              		.loc 1 624 0 is_stmt 0
 1858 0244 0324     		movs	r4, #3
 1859 0246 00E0     		b	.L132
 1860              	.L154:
 1861 0248 0424     		movs	r4, #4
 1862              	.L132:
 1863              	.LVL257:
 625:RC522.c       **** 		for (count = 0; count < bytesToCopy; count++) {
 1864              		.loc 1 625 0 is_stmt 1 discriminator 4
 1865 024a 0023     		movs	r3, #0
 1866 024c 0CE0     		b	.L133
 1867              	.LVL258:
 1868              	.L134:
 626:RC522.c       **** 			uid->uidByte[uidIndex + count] = buffer[index++];
 1869              		.loc 1 626 0 discriminator 3
 1870 024e 0AEB0301 		add	r1, r10, r3
 1871 0252 501C     		adds	r0, r2, #1
 1872              	.LVL259:
 1873 0254 0AAD     		add	r5, sp, #40
 1874 0256 2A44     		add	r2, r2, r5
 1875 0258 12F80C5C 		ldrb	r5, [r2, #-12]	@ zero_extendqisi2
 1876 025c 09EB0102 		add	r2, r9, r1
 1877 0260 5570     		strb	r5, [r2, #1]
 625:RC522.c       **** 		for (count = 0; count < bytesToCopy; count++) {
 1878              		.loc 1 625 0 discriminator 3
 1879 0262 0133     		adds	r3, r3, #1
 1880              	.LVL260:
 1881 0264 DBB2     		uxtb	r3, r3
 1882              	.LVL261:
 1883              		.loc 1 626 0 discriminator 3
 1884 0266 C2B2     		uxtb	r2, r0
 1885              	.LVL262:
 1886              	.L133:
 625:RC522.c       **** 		for (count = 0; count < bytesToCopy; count++) {
 1887              		.loc 1 625 0 discriminator 1
 1888 0268 A342     		cmp	r3, r4
 1889 026a F0D3     		bcc	.L134
 627:RC522.c       **** 		}
 628:RC522.c       **** 		
 629:RC522.c       **** 		// Check response SAK (Select Acknowledge)
 630:RC522.c       **** 		if (responseLength != 3 || txLastBits != 0) { // SAK must be exactly 24 bits (1 byte + CRC_A).
 1890              		.loc 1 630 0
 1891 026c 9DF81A30 		ldrb	r3, [sp, #26]	@ zero_extendqisi2
 1892              	.LVL263:
 1893 0270 032B     		cmp	r3, #3
 1894 0272 35D1     		bne	.L155
 1895              		.loc 1 630 0 is_stmt 0 discriminator 1
 1896 0274 9DF81B30 		ldrb	r3, [sp, #27]	@ zero_extendqisi2
 1897 0278 A3BB     		cbnz	r3, .L156
 631:RC522.c       **** 			return STATUS_ERROR;
 632:RC522.c       **** 		}
 633:RC522.c       **** 		// Verify CRC_A - do our own calculation and store the control in buffer[2..3] - those bytes are 
 634:RC522.c       **** 		result = PCD_CalculateCRC(responseBuffer, 1, &buffer[2]);
 1898              		.loc 1 634 0 is_stmt 1
 1899 027a 0DF11E02 		add	r2, sp, #30
 1900              	.LVL264:
ARM GAS  C:\Users\nikod\AppData\Local\Temp\cc4NWLo4.s 			page 47


 1901 027e 0121     		movs	r1, #1
 1902 0280 3846     		mov	r0, r7
 1903 0282 FFF7FEFF 		bl	PCD_CalculateCRC
 1904              	.LVL265:
 635:RC522.c       **** 		if (result != STATUS_OK) {
 1905              		.loc 1 635 0
 1906 0286 78BB     		cbnz	r0, .L157
 636:RC522.c       **** 			return result;
 637:RC522.c       **** 		}
 638:RC522.c       **** 		if ((buffer[2] != responseBuffer[1]) || (buffer[3] != responseBuffer[2])) {
 1907              		.loc 1 638 0
 1908 0288 9DF81E20 		ldrb	r2, [sp, #30]	@ zero_extendqisi2
 1909 028c 7B78     		ldrb	r3, [r7, #1]	@ zero_extendqisi2
 1910 028e 9A42     		cmp	r2, r3
 1911 0290 2BD1     		bne	.L158
 1912              		.loc 1 638 0 is_stmt 0 discriminator 1
 1913 0292 9DF81F20 		ldrb	r2, [sp, #31]	@ zero_extendqisi2
 1914 0296 BB78     		ldrb	r3, [r7, #2]	@ zero_extendqisi2
 1915 0298 9A42     		cmp	r2, r3
 1916 029a 28D1     		bne	.L159
 639:RC522.c       **** 			return STATUS_CRC_WRONG;
 640:RC522.c       **** 		}
 641:RC522.c       **** 		if (responseBuffer[0] & 0x04) { // Cascade bit set - UID not complete yes
 1917              		.loc 1 641 0 is_stmt 1
 1918 029c 3B78     		ldrb	r3, [r7]	@ zero_extendqisi2
 1919 029e 13F0040F 		tst	r3, #4
 1920 02a2 04D0     		beq	.L135
 642:RC522.c       **** 			cascadeLevel++;
 1921              		.loc 1 642 0
 1922 02a4 0BF1010B 		add	fp, fp, #1
 1923              	.LVL266:
 1924 02a8 5FFA8BFB 		uxtb	fp, fp
 1925              	.LVL267:
 1926 02ac 03E0     		b	.L103
 1927              	.L135:
 1928              	.LVL268:
 643:RC522.c       **** 		}
 644:RC522.c       **** 		else {
 645:RC522.c       **** 			uidComplete = true;
 646:RC522.c       **** 			uid->sak = responseBuffer[0];
 1929              		.loc 1 646 0
 1930 02ae 89F80B30 		strb	r3, [r9, #11]
 645:RC522.c       **** 			uid->sak = responseBuffer[0];
 1931              		.loc 1 645 0
 1932 02b2 0123     		movs	r3, #1
 1933 02b4 0593     		str	r3, [sp, #20]
 1934              	.LVL269:
 1935              	.L103:
 1936              	.LBE10:
 496:RC522.c       **** 		// Set the Cascade Level in the SEL byte, find out if we need to use the Cascade Tag in byte 2.
 1937              		.loc 1 496 0
 1938 02b6 059B     		ldr	r3, [sp, #20]
 1939 02b8 002B     		cmp	r3, #0
 1940 02ba 3FF4B2AE 		beq	.L137
 647:RC522.c       **** 		}
 648:RC522.c       **** 	} // End of while (!uidComplete)
 649:RC522.c       **** 	
ARM GAS  C:\Users\nikod\AppData\Local\Temp\cc4NWLo4.s 			page 48


 650:RC522.c       **** 	// Set correct uid->size
 651:RC522.c       **** 	uid->size = 3 * cascadeLevel + 1;
 1941              		.loc 1 651 0
 1942 02be 0BEB4B0B 		add	fp, fp, fp, lsl #1
 1943              	.LVL270:
 1944 02c2 0BF10103 		add	r3, fp, #1
 1945 02c6 89F80030 		strb	r3, [r9]
 652:RC522.c       **** 
 653:RC522.c       **** 	return STATUS_OK;
 1946              		.loc 1 653 0
 1947 02ca 0020     		movs	r0, #0
 1948 02cc 10E0     		b	.L102
 1949              	.LVL271:
 1950              	.L138:
 1951              		.cfi_def_cfa_offset 0
 1952              		.cfi_restore 4
 1953              		.cfi_restore 5
 1954              		.cfi_restore 6
 1955              		.cfi_restore 7
 1956              		.cfi_restore 8
 1957              		.cfi_restore 9
 1958              		.cfi_restore 10
 1959              		.cfi_restore 11
 1960              		.cfi_restore 14
 488:RC522.c       **** 	}
 1961              		.loc 1 488 0
 1962 02ce 0620     		movs	r0, #6
 1963              	.LVL272:
 654:RC522.c       **** } // End PICC_Select()
 1964              		.loc 1 654 0
 1965 02d0 7047     		bx	lr
 1966              	.LVL273:
 1967              	.L160:
 1968              		.cfi_def_cfa_offset 80
 1969              		.cfi_offset 4, -36
 1970              		.cfi_offset 5, -32
 1971              		.cfi_offset 6, -28
 1972              		.cfi_offset 7, -24
 1973              		.cfi_offset 8, -20
 1974              		.cfi_offset 9, -16
 1975              		.cfi_offset 10, -12
 1976              		.cfi_offset 11, -8
 1977              		.cfi_offset 14, -4
 1978              	.LBB15:
 518:RC522.c       **** 				break;
 1979              		.loc 1 518 0
 1980 02d2 0520     		movs	r0, #5
 1981 02d4 0CE0     		b	.L102
 1982              	.LVL274:
 1983              	.L147:
 1984 02d6 0BE0     		b	.L102
 1985              	.LVL275:
 1986              	.L148:
 1987              	.LBB14:
 588:RC522.c       **** 				}
 1988              		.loc 1 588 0
 1989 02d8 0220     		movs	r0, #2
ARM GAS  C:\Users\nikod\AppData\Local\Temp\cc4NWLo4.s 			page 49


 1990              	.LVL276:
 1991 02da 09E0     		b	.L102
 1992              	.LVL277:
 1993              	.L150:
 595:RC522.c       **** 				}
 1994              		.loc 1 595 0
 1995 02dc 0520     		movs	r0, #5
 1996              	.LVL278:
 1997 02de 07E0     		b	.L102
 1998              	.LVL279:
 1999              	.L155:
 2000              	.LBE14:
 631:RC522.c       **** 		}
 2001              		.loc 1 631 0
 2002 02e0 0120     		movs	r0, #1
 2003 02e2 05E0     		b	.L102
 2004              	.L156:
 2005 02e4 0120     		movs	r0, #1
 2006 02e6 03E0     		b	.L102
 2007              	.LVL280:
 2008              	.L157:
 2009 02e8 02E0     		b	.L102
 2010              	.L158:
 639:RC522.c       **** 		}
 2011              		.loc 1 639 0
 2012 02ea 0720     		movs	r0, #7
 2013              	.LVL281:
 2014 02ec 00E0     		b	.L102
 2015              	.LVL282:
 2016              	.L159:
 2017 02ee 0720     		movs	r0, #7
 2018              	.LVL283:
 2019              	.L102:
 2020              	.LBE15:
 2021              		.loc 1 654 0
 2022 02f0 0BB0     		add	sp, sp, #44
 2023              		.cfi_def_cfa_offset 36
 2024              		@ sp needed
 2025 02f2 BDE8F08F 		pop	{r4, r5, r6, r7, r8, r9, r10, fp, pc}
 2026              	.LVL284:
 2027              	.L163:
 2028 02f6 00BF     		.align	2
 2029              	.L162:
 2030 02f8 07000080 		.word	-2147483641
 2031              		.cfi_endproc
 2032              	.LFE85:
 2033              		.size	PICC_Select, .-PICC_Select
 2034              		.section	.text.PICC_HaltA,"ax",%progbits
 2035              		.align	2
 2036              		.global	PICC_HaltA
 2037              		.thumb
 2038              		.thumb_func
 2039              		.type	PICC_HaltA, %function
 2040              	PICC_HaltA:
 2041              	.LFB86:
 655:RC522.c       **** 
 656:RC522.c       **** unsigned char PICC_HaltA(void) {
ARM GAS  C:\Users\nikod\AppData\Local\Temp\cc4NWLo4.s 			page 50


 2042              		.loc 1 656 0
 2043              		.cfi_startproc
 2044              		@ args = 0, pretend = 0, frame = 8
 2045              		@ frame_needed = 0, uses_anonymous_args = 0
 2046 0000 00B5     		push	{lr}
 2047              		.cfi_def_cfa_offset 4
 2048              		.cfi_offset 14, -4
 2049 0002 87B0     		sub	sp, sp, #28
 2050              		.cfi_def_cfa_offset 32
 657:RC522.c       **** 	unsigned char result;
 658:RC522.c       **** 	unsigned char buffer[4];
 659:RC522.c       **** 	
 660:RC522.c       **** 	// Build command buffer
 661:RC522.c       **** 	buffer[0] = PICC_CMD_HLTA;
 2051              		.loc 1 661 0
 2052 0004 5023     		movs	r3, #80
 2053 0006 8DF81430 		strb	r3, [sp, #20]
 662:RC522.c       **** 	buffer[1] = 0;
 2054              		.loc 1 662 0
 2055 000a 0023     		movs	r3, #0
 2056 000c 8DF81530 		strb	r3, [sp, #21]
 663:RC522.c       **** 	// Calculate CRC_A
 664:RC522.c       **** 	result = PCD_CalculateCRC(buffer, 2, &buffer[2]);
 2057              		.loc 1 664 0
 2058 0010 0DF11602 		add	r2, sp, #22
 2059 0014 0221     		movs	r1, #2
 2060 0016 05A8     		add	r0, sp, #20
 2061 0018 FFF7FEFF 		bl	PCD_CalculateCRC
 2062              	.LVL285:
 665:RC522.c       **** 	if (result != STATUS_OK) {
 2063              		.loc 1 665 0
 2064 001c 68B9     		cbnz	r0, .L166
 666:RC522.c       **** 		return result;
 667:RC522.c       **** 	}
 668:RC522.c       **** 	
 669:RC522.c       **** 	// Send the command.
 670:RC522.c       **** 	// The standard says:
 671:RC522.c       **** 	//		If the PICC responds with any modulation during a period of 1 ms after the end of the frame co
 672:RC522.c       **** 	//		HLTA command, this response shall be interpreted as 'not acknowledge'.
 673:RC522.c       **** 	// We interpret that this way: Only STATUS_TIMEOUT is a success.
 674:RC522.c       **** 	result =  PCD_TransceiveData(buffer, sizeof(buffer), NULL, 0,NULL,0,false);
 2065              		.loc 1 674 0
 2066 001e 0022     		movs	r2, #0
 2067 0020 0292     		str	r2, [sp, #8]
 2068 0022 0192     		str	r2, [sp, #4]
 2069 0024 0092     		str	r2, [sp]
 2070 0026 1346     		mov	r3, r2
 2071 0028 0421     		movs	r1, #4
 2072 002a 05A8     		add	r0, sp, #20
 2073              	.LVL286:
 2074 002c FFF7FEFF 		bl	PCD_TransceiveData
 2075              	.LVL287:
 675:RC522.c       **** 	if (result == STATUS_TIMEOUT) {
 2076              		.loc 1 675 0
 2077 0030 0328     		cmp	r0, #3
 2078 0032 03D0     		beq	.L167
 676:RC522.c       **** 		return STATUS_OK;
ARM GAS  C:\Users\nikod\AppData\Local\Temp\cc4NWLo4.s 			page 51


 677:RC522.c       **** 	}
 678:RC522.c       **** 	if (result == STATUS_OK) { // That is ironically NOT ok in this case ;-)
 2079              		.loc 1 678 0
 2080 0034 18B9     		cbnz	r0, .L165
 679:RC522.c       **** 		return STATUS_ERROR;
 2081              		.loc 1 679 0
 2082 0036 0120     		movs	r0, #1
 2083              	.LVL288:
 2084 0038 01E0     		b	.L165
 2085              	.LVL289:
 2086              	.L166:
 2087 003a 00E0     		b	.L165
 2088              	.L167:
 676:RC522.c       **** 		return STATUS_OK;
 2089              		.loc 1 676 0
 2090 003c 0020     		movs	r0, #0
 2091              	.LVL290:
 2092              	.L165:
 680:RC522.c       **** 	}
 681:RC522.c       **** 	return result;
 682:RC522.c       **** } // End PICC_HaltA()
 2093              		.loc 1 682 0
 2094 003e 07B0     		add	sp, sp, #28
 2095              		.cfi_def_cfa_offset 4
 2096              		@ sp needed
 2097 0040 5DF804FB 		ldr	pc, [sp], #4
 2098              		.cfi_endproc
 2099              	.LFE86:
 2100              		.size	PICC_HaltA, .-PICC_HaltA
 2101              		.section	.text.PCD_Authenticate,"ax",%progbits
 2102              		.align	2
 2103              		.global	PCD_Authenticate
 2104              		.thumb
 2105              		.thumb_func
 2106              		.type	PCD_Authenticate, %function
 2107              	PCD_Authenticate:
 2108              	.LFB87:
 683:RC522.c       **** 
 684:RC522.c       **** unsigned char PCD_Authenticate(unsigned char command,		///< PICC_CMD_MF_AUTH_KEY_A or PICC_CMD_MF_A
 685:RC522.c       **** 											unsigned char blockAddr, 	///< The block number. See numbering in the comments in the .h
 686:RC522.c       **** 											MIFARE_Key *key,	///< Pointer to the Crypteo1 key to use (6 bytes)
 687:RC522.c       **** 											Uid *uid			///< Pointer to Uid struct. The first 4 bytes of the UID is used.
 688:RC522.c       **** 											) {
 2109              		.loc 1 688 0
 2110              		.cfi_startproc
 2111              		@ args = 0, pretend = 0, frame = 16
 2112              		@ frame_needed = 0, uses_anonymous_args = 0
 2113              	.LVL291:
 2114 0000 10B5     		push	{r4, lr}
 2115              		.cfi_def_cfa_offset 8
 2116              		.cfi_offset 4, -8
 2117              		.cfi_offset 14, -4
 2118 0002 8AB0     		sub	sp, sp, #40
 2119              		.cfi_def_cfa_offset 48
 2120              	.LVL292:
 689:RC522.c       **** 	unsigned char waitIRq = 0x10;		// IdleIRq
 690:RC522.c       **** 	
ARM GAS  C:\Users\nikod\AppData\Local\Temp\cc4NWLo4.s 			page 52


 691:RC522.c       **** 	// Build command buffer
 692:RC522.c       **** 	unsigned char sendData[12];
 693:RC522.c       **** 	sendData[0] = command;
 2121              		.loc 1 693 0
 2122 0004 8DF81C00 		strb	r0, [sp, #28]
 694:RC522.c       **** 	sendData[1] = blockAddr;
 2123              		.loc 1 694 0
 2124 0008 8DF81D10 		strb	r1, [sp, #29]
 2125              	.LVL293:
 2126              	.LBB16:
 695:RC522.c       **** 	for (unsigned char i = 0; i < 6; i++) {	// 6 key bytes
 2127              		.loc 1 695 0
 2128 000c 0021     		movs	r1, #0
 2129              	.LVL294:
 2130 000e 08E0     		b	.L171
 2131              	.LVL295:
 2132              	.L172:
 696:RC522.c       **** 		sendData[2+i] = key->keyByte[i];
 2133              		.loc 1 696 0 discriminator 3
 2134 0010 881C     		adds	r0, r1, #2
 2135 0012 545C     		ldrb	r4, [r2, r1]	@ zero_extendqisi2
 2136 0014 0DF1280E 		add	lr, sp, #40
 2137 0018 7044     		add	r0, r0, lr
 2138 001a 00F80C4C 		strb	r4, [r0, #-12]
 695:RC522.c       **** 	for (unsigned char i = 0; i < 6; i++) {	// 6 key bytes
 2139              		.loc 1 695 0 discriminator 3
 2140 001e 0131     		adds	r1, r1, #1
 2141              	.LVL296:
 2142 0020 C9B2     		uxtb	r1, r1
 2143              	.LVL297:
 2144              	.L171:
 695:RC522.c       **** 	for (unsigned char i = 0; i < 6; i++) {	// 6 key bytes
 2145              		.loc 1 695 0 is_stmt 0 discriminator 1
 2146 0022 0529     		cmp	r1, #5
 2147 0024 F4D9     		bls	.L172
 2148 0026 0021     		movs	r1, #0
 2149              	.LVL298:
 2150 0028 0CE0     		b	.L173
 2151              	.LVL299:
 2152              	.L174:
 2153              	.LBE16:
 2154              	.LBB17:
 697:RC522.c       **** 	}
 698:RC522.c       **** 	// Use the last uid bytes as specified in http://cache.nxp.com/documents/application_note/AN10927.
 699:RC522.c       **** 	// section 3.2.5 "MIFARE Classic Authentication".
 700:RC522.c       **** 	// The only missed case is the MF1Sxxxx shortcut activation,
 701:RC522.c       **** 	// but it requires cascade tag (CT) byte, that is not part of uid.
 702:RC522.c       **** 	for (unsigned char i = 0; i < 4; i++) {				// The last 4 bytes of the UID
 703:RC522.c       **** 		sendData[8+i] = uid->uidByte[i+uid->size-4];
 2155              		.loc 1 703 0 is_stmt 1 discriminator 3
 2156 002a 01F10800 		add	r0, r1, #8
 2157 002e 1A78     		ldrb	r2, [r3]	@ zero_extendqisi2
 2158 0030 0A44     		add	r2, r2, r1
 2159 0032 043A     		subs	r2, r2, #4
 2160 0034 1A44     		add	r2, r2, r3
 2161 0036 5478     		ldrb	r4, [r2, #1]	@ zero_extendqisi2
 2162 0038 0AAA     		add	r2, sp, #40
ARM GAS  C:\Users\nikod\AppData\Local\Temp\cc4NWLo4.s 			page 53


 2163 003a 0244     		add	r2, r2, r0
 2164 003c 02F80C4C 		strb	r4, [r2, #-12]
 702:RC522.c       **** 		sendData[8+i] = uid->uidByte[i+uid->size-4];
 2165              		.loc 1 702 0 discriminator 3
 2166 0040 0131     		adds	r1, r1, #1
 2167              	.LVL300:
 2168 0042 C9B2     		uxtb	r1, r1
 2169              	.LVL301:
 2170              	.L173:
 702:RC522.c       **** 		sendData[8+i] = uid->uidByte[i+uid->size-4];
 2171              		.loc 1 702 0 is_stmt 0 discriminator 1
 2172 0044 0329     		cmp	r1, #3
 2173 0046 F0D9     		bls	.L174
 2174              	.LBE17:
 704:RC522.c       **** 	}
 705:RC522.c       **** 	
 706:RC522.c       **** 	// Start the authentication.
 707:RC522.c       **** 	return PCD_CommunicateWithPICC(PCD_MFAuthent, waitIRq, &sendData[0], sizeof(sendData),NULL,NULL,NU
 2175              		.loc 1 707 0 is_stmt 1
 2176 0048 0023     		movs	r3, #0
 2177              	.LVL302:
 2178 004a 0493     		str	r3, [sp, #16]
 2179 004c 0393     		str	r3, [sp, #12]
 2180 004e 0293     		str	r3, [sp, #8]
 2181 0050 0193     		str	r3, [sp, #4]
 2182 0052 0093     		str	r3, [sp]
 2183 0054 0C23     		movs	r3, #12
 2184 0056 07AA     		add	r2, sp, #28
 2185 0058 1021     		movs	r1, #16
 2186              	.LVL303:
 2187 005a 0E20     		movs	r0, #14
 2188 005c FFF7FEFF 		bl	PCD_CommunicateWithPICC
 2189              	.LVL304:
 708:RC522.c       **** } // End PCD_Authenticate()
 2190              		.loc 1 708 0
 2191 0060 0AB0     		add	sp, sp, #40
 2192              		.cfi_def_cfa_offset 8
 2193              		@ sp needed
 2194 0062 10BD     		pop	{r4, pc}
 2195              		.cfi_endproc
 2196              	.LFE87:
 2197              		.size	PCD_Authenticate, .-PCD_Authenticate
 2198              		.section	.text.PCD_StopCrypto1,"ax",%progbits
 2199              		.align	2
 2200              		.global	PCD_StopCrypto1
 2201              		.thumb
 2202              		.thumb_func
 2203              		.type	PCD_StopCrypto1, %function
 2204              	PCD_StopCrypto1:
 2205              	.LFB88:
 709:RC522.c       **** 
 710:RC522.c       **** 
 711:RC522.c       **** void PCD_StopCrypto1(void) {
 2206              		.loc 1 711 0
 2207              		.cfi_startproc
 2208              		@ args = 0, pretend = 0, frame = 0
 2209              		@ frame_needed = 0, uses_anonymous_args = 0
ARM GAS  C:\Users\nikod\AppData\Local\Temp\cc4NWLo4.s 			page 54


 2210 0000 08B5     		push	{r3, lr}
 2211              		.cfi_def_cfa_offset 8
 2212              		.cfi_offset 3, -8
 2213              		.cfi_offset 14, -4
 712:RC522.c       **** 	// Clear MFCrypto1On bit
 713:RC522.c       **** 	PCD_ClearRegisterBitMask(Status2Reg, 0x08); // Status2Reg[7..0] bits are: TempSensClear I2CForceHS
 2214              		.loc 1 713 0
 2215 0002 0821     		movs	r1, #8
 2216 0004 0846     		mov	r0, r1
 2217 0006 FFF7FEFF 		bl	PCD_ClearRegisterBitMask
 2218              	.LVL305:
 2219 000a 08BD     		pop	{r3, pc}
 2220              		.cfi_endproc
 2221              	.LFE88:
 2222              		.size	PCD_StopCrypto1, .-PCD_StopCrypto1
 2223              		.section	.text.MIFARE_Read,"ax",%progbits
 2224              		.align	2
 2225              		.global	MIFARE_Read
 2226              		.thumb
 2227              		.thumb_func
 2228              		.type	MIFARE_Read, %function
 2229              	MIFARE_Read:
 2230              	.LFB89:
 714:RC522.c       **** } // End PCD_StopCrypto1()
 715:RC522.c       **** 
 716:RC522.c       **** 
 717:RC522.c       **** unsigned char MIFARE_Read(	unsigned char blockAddr, 	///< MIFARE Classic: The block (0-0xff) number
 718:RC522.c       **** 							unsigned char *buffer,		///< The buffer to store the data in
 719:RC522.c       ****                             unsigned char *bufferSize	///< Buffer size, at least 18 bytes. Also num
 720:RC522.c       **** 										) {
 2231              		.loc 1 720 0
 2232              		.cfi_startproc
 2233              		@ args = 0, pretend = 0, frame = 0
 2234              		@ frame_needed = 0, uses_anonymous_args = 0
 2235              	.LVL306:
 721:RC522.c       **** 	unsigned char result;
 722:RC522.c       **** 	
 723:RC522.c       **** 	// Sanity check
 724:RC522.c       **** 	if (buffer == NULL || *bufferSize < 18) {
 2236              		.loc 1 724 0
 2237 0000 D9B1     		cbz	r1, .L180
 720:RC522.c       **** 	unsigned char result;
 2238              		.loc 1 720 0 discriminator 1
 2239 0002 30B5     		push	{r4, r5, lr}
 2240              		.cfi_def_cfa_offset 12
 2241              		.cfi_offset 4, -12
 2242              		.cfi_offset 5, -8
 2243              		.cfi_offset 14, -4
 2244 0004 85B0     		sub	sp, sp, #20
 2245              		.cfi_def_cfa_offset 32
 2246              		.loc 1 724 0 discriminator 1
 2247 0006 1378     		ldrb	r3, [r2]	@ zero_extendqisi2
 2248 0008 112B     		cmp	r3, #17
 2249 000a 18D9     		bls	.L181
 2250 000c 0D46     		mov	r5, r1
 2251 000e 1446     		mov	r4, r2
 725:RC522.c       **** 		return STATUS_NO_ROOM;
ARM GAS  C:\Users\nikod\AppData\Local\Temp\cc4NWLo4.s 			page 55


 726:RC522.c       **** 	}
 727:RC522.c       **** 	
 728:RC522.c       **** 	// Build command buffer
 729:RC522.c       **** 	buffer[0] = PICC_CMD_MF_READ;
 2252              		.loc 1 729 0
 2253 0010 3023     		movs	r3, #48
 2254 0012 0B70     		strb	r3, [r1]
 730:RC522.c       **** 	buffer[1] = blockAddr;
 2255              		.loc 1 730 0
 2256 0014 4870     		strb	r0, [r1, #1]
 731:RC522.c       **** 	// Calculate CRC_A
 732:RC522.c       **** 	result = PCD_CalculateCRC(buffer, 2, &buffer[2]);
 2257              		.loc 1 732 0
 2258 0016 8A1C     		adds	r2, r1, #2
 2259              	.LVL307:
 2260 0018 0221     		movs	r1, #2
 2261              	.LVL308:
 2262 001a 2846     		mov	r0, r5
 2263              	.LVL309:
 2264 001c FFF7FEFF 		bl	PCD_CalculateCRC
 2265              	.LVL310:
 733:RC522.c       **** 	if (result != STATUS_OK) {
 2266              		.loc 1 733 0
 2267 0020 78B9     		cbnz	r0, .L182
 734:RC522.c       **** 		return result;
 735:RC522.c       **** 	}
 736:RC522.c       **** 	
 737:RC522.c       **** 	// Transmit the buffer and receive the response, validate CRC_A.
 738:RC522.c       **** 	return PCD_TransceiveData(buffer, 4, buffer, bufferSize, NULL, 0, true);
 2268              		.loc 1 738 0
 2269 0022 0123     		movs	r3, #1
 2270 0024 0293     		str	r3, [sp, #8]
 2271 0026 0023     		movs	r3, #0
 2272 0028 0193     		str	r3, [sp, #4]
 2273 002a 0093     		str	r3, [sp]
 2274 002c 2346     		mov	r3, r4
 2275 002e 2A46     		mov	r2, r5
 2276 0030 0421     		movs	r1, #4
 2277 0032 2846     		mov	r0, r5
 2278              	.LVL311:
 2279 0034 FFF7FEFF 		bl	PCD_TransceiveData
 2280              	.LVL312:
 2281 0038 03E0     		b	.L179
 2282              	.LVL313:
 2283              	.L180:
 2284              		.cfi_def_cfa_offset 0
 2285              		.cfi_restore 4
 2286              		.cfi_restore 5
 2287              		.cfi_restore 14
 725:RC522.c       **** 	}
 2288              		.loc 1 725 0
 2289 003a 0420     		movs	r0, #4
 2290              	.LVL314:
 739:RC522.c       **** } // End MIFARE_Read()
 2291              		.loc 1 739 0
 2292 003c 7047     		bx	lr
 2293              	.LVL315:
ARM GAS  C:\Users\nikod\AppData\Local\Temp\cc4NWLo4.s 			page 56


 2294              	.L181:
 2295              		.cfi_def_cfa_offset 32
 2296              		.cfi_offset 4, -12
 2297              		.cfi_offset 5, -8
 2298              		.cfi_offset 14, -4
 725:RC522.c       **** 	}
 2299              		.loc 1 725 0
 2300 003e 0420     		movs	r0, #4
 2301              	.LVL316:
 2302 0040 FFE7     		b	.L179
 2303              	.LVL317:
 2304              	.L182:
 2305              	.L179:
 2306              		.loc 1 739 0
 2307 0042 05B0     		add	sp, sp, #20
 2308              		.cfi_def_cfa_offset 12
 2309              		@ sp needed
 2310 0044 30BD     		pop	{r4, r5, pc}
 2311              		.cfi_endproc
 2312              	.LFE89:
 2313              		.size	MIFARE_Read, .-MIFARE_Read
 2314 0046 00BF     		.section	.text.MIFARE_GetValue,"ax",%progbits
 2315              		.align	2
 2316              		.global	MIFARE_GetValue
 2317              		.thumb
 2318              		.thumb_func
 2319              		.type	MIFARE_GetValue, %function
 2320              	MIFARE_GetValue:
 2321              	.LFB97:
 740:RC522.c       **** 
 741:RC522.c       **** 
 742:RC522.c       **** unsigned char MIFARE_Write(	unsigned char blockAddr, ///< MIFARE Classic: The block (0-0xff) number
 743:RC522.c       **** 							unsigned char *buffer,	///< The 16 bytes to write to the PICC
 744:RC522.c       **** 							unsigned char bufferSize	///< Buffer size, must be at least 16 bytes. Exactly 16 bytes are w
 745:RC522.c       **** 										) {
 746:RC522.c       **** 	unsigned char result;
 747:RC522.c       **** 	
 748:RC522.c       **** 	// Sanity check
 749:RC522.c       **** 	if (buffer == NULL || bufferSize < 16) {
 750:RC522.c       **** 		return STATUS_INVALID;
 751:RC522.c       **** }
 752:RC522.c       ****     
 753:RC522.c       ****     
 754:RC522.c       **** // Mifare Classic protocol requires two communications to perform a write.
 755:RC522.c       **** 	// Step 1: Tell the PICC we want to write to block blockAddr.
 756:RC522.c       **** 	unsigned char cmdBuffer[2];
 757:RC522.c       **** 	cmdBuffer[0] = PICC_CMD_MF_WRITE;
 758:RC522.c       **** 	cmdBuffer[1] = blockAddr;
 759:RC522.c       **** 	result = PCD_MIFARE_Transceive(cmdBuffer, 2,false); // Adds CRC_A and checks that the response is 
 760:RC522.c       **** 	if (result != STATUS_OK) {
 761:RC522.c       **** 		return result;
 762:RC522.c       **** 	}
 763:RC522.c       **** 	
 764:RC522.c       **** 	// Step 2: Transfer the data
 765:RC522.c       **** 	result = PCD_MIFARE_Transceive(buffer, bufferSize,false); // Adds CRC_A and checks that the respon
 766:RC522.c       **** 	if (result != STATUS_OK) {
 767:RC522.c       **** 		return result;
ARM GAS  C:\Users\nikod\AppData\Local\Temp\cc4NWLo4.s 			page 57


 768:RC522.c       **** 	}
 769:RC522.c       **** 	
 770:RC522.c       **** 	return STATUS_OK;
 771:RC522.c       **** } // End MIFARE_Write()
 772:RC522.c       **** 
 773:RC522.c       **** 
 774:RC522.c       **** unsigned char MIFARE_Ultralight_Write(	unsigned char page, 		///< The page (2-15) to write to.
 775:RC522.c       **** 										unsigned char *buffer,	///< The 4 bytes to write to the PICC
 776:RC522.c       **** 										unsigned char bufferSize	///< Buffer size, must be at least 4 bytes. Exactly 4 bytes are 
 777:RC522.c       **** 													) {
 778:RC522.c       **** 	unsigned char result;
 779:RC522.c       **** 	
 780:RC522.c       **** 	// Sanity check
 781:RC522.c       **** 	if (buffer == NULL || bufferSize < 4) {
 782:RC522.c       **** 		return STATUS_INVALID;
 783:RC522.c       **** 	}
 784:RC522.c       **** 	
 785:RC522.c       **** 	// Build commmand buffer
 786:RC522.c       **** 	unsigned char cmdBuffer[6];
 787:RC522.c       **** 	cmdBuffer[0] = PICC_CMD_UL_WRITE;
 788:RC522.c       **** 	cmdBuffer[1] = page;
 789:RC522.c       **** 	memcpy(&cmdBuffer[2], buffer, 4);
 790:RC522.c       **** 	
 791:RC522.c       **** 	// Perform the write
 792:RC522.c       **** 	result = PCD_MIFARE_Transceive(cmdBuffer, 6,false); // Adds CRC_A and checks that the response is 
 793:RC522.c       **** 	if (result != STATUS_OK) {
 794:RC522.c       **** 		return result;
 795:RC522.c       **** 	}
 796:RC522.c       **** 	return STATUS_OK;
 797:RC522.c       **** } // End MIFARE_Ultralight_Write()
 798:RC522.c       **** 
 799:RC522.c       **** unsigned char MIFARE_Decrement(	unsigned char blockAddr, ///< The block (0-0xff) number.
 800:RC522.c       **** 								uint32_t delta		///< This number is subtracted from the value of block blockAddr.
 801:RC522.c       **** 											) {
 802:RC522.c       **** 	return MIFARE_TwoStepHelper(PICC_CMD_MF_DECREMENT, blockAddr, delta);
 803:RC522.c       **** }
 804:RC522.c       **** 
 805:RC522.c       **** unsigned char MIFARE_Increment(	unsigned char blockAddr, ///< The block (0-0xff) number.
 806:RC522.c       **** 								uint32_t delta		///< This number is added to the value of block blockAddr.
 807:RC522.c       **** 											) {
 808:RC522.c       **** 	return MIFARE_TwoStepHelper(PICC_CMD_MF_INCREMENT, blockAddr, delta);
 809:RC522.c       **** } // End MIFARE_Increment()
 810:RC522.c       **** 
 811:RC522.c       **** 
 812:RC522.c       **** unsigned char  MIFARE_Restore(	unsigned char  blockAddr ///< The block (0-0xff) number.
 813:RC522.c       **** ) {
 814:RC522.c       **** 	// The datasheet describes Restore as a two step operation, but does not explain what data to tran
 815:RC522.c       **** 	// Doing only a single step does not work, so I chose to transfer 0L in step two.
 816:RC522.c       **** 	return MIFARE_TwoStepHelper(PICC_CMD_MF_RESTORE, blockAddr, 0L);
 817:RC522.c       **** } // End MIFARE_Restore()
 818:RC522.c       **** 
 819:RC522.c       **** 
 820:RC522.c       **** unsigned char MIFARE_TwoStepHelper(	unsigned char command,	///< The command to use
 821:RC522.c       **** 									unsigned char blockAddr,	///< The block (0-0xff) number.
 822:RC522.c       **** 									uint32_t data		///< The data to transfer in step 2
 823:RC522.c       **** 													) {
 824:RC522.c       **** 	unsigned char result;
ARM GAS  C:\Users\nikod\AppData\Local\Temp\cc4NWLo4.s 			page 58


 825:RC522.c       **** 	unsigned char cmdBuffer[2]; // We only need room for 2 bytes.
 826:RC522.c       **** 	
 827:RC522.c       **** 	// Step 1: Tell the PICC the command and block address
 828:RC522.c       **** 	cmdBuffer[0] = command;
 829:RC522.c       **** 	cmdBuffer[1] = blockAddr;
 830:RC522.c       **** 	result = PCD_MIFARE_Transceive(	cmdBuffer, 2, false); // Adds CRC_A and checks that the response i
 831:RC522.c       **** 	if (result != STATUS_OK) {
 832:RC522.c       **** 		return result;
 833:RC522.c       **** 	}
 834:RC522.c       **** 	// Step 2: Transfer the data
 835:RC522.c       **** 	result = PCD_MIFARE_Transceive(	(unsigned char *)&data, 4, true); // Adds CRC_A and accept timeout
 836:RC522.c       **** 	if (result != STATUS_OK) {
 837:RC522.c       **** 		return result;
 838:RC522.c       **** 	}
 839:RC522.c       **** 	
 840:RC522.c       **** 	return STATUS_OK;
 841:RC522.c       **** } // End MIFARE_TwoStepHelper()
 842:RC522.c       **** 
 843:RC522.c       **** 
 844:RC522.c       **** unsigned char MIFARE_Transfer(	unsigned char blockAddr ///< The block (0-0xff) number.
 845:RC522.c       **** 											) {
 846:RC522.c       **** 	unsigned char result;
 847:RC522.c       **** 	unsigned char cmdBuffer[2]; // We only need room for 2 bytes.
 848:RC522.c       **** 	
 849:RC522.c       **** 	// Tell the PICC we want to transfer the result into block blockAddr.
 850:RC522.c       **** 	cmdBuffer[0] = PICC_CMD_MF_TRANSFER;
 851:RC522.c       **** 	cmdBuffer[1] = blockAddr;
 852:RC522.c       **** 	result = PCD_MIFARE_Transceive(	cmdBuffer, 2, false); // Adds CRC_A and checks that the response i
 853:RC522.c       **** 	if (result != STATUS_OK) {
 854:RC522.c       **** 		return result;
 855:RC522.c       **** 	}
 856:RC522.c       **** 	return STATUS_OK;
 857:RC522.c       **** } // End MIFARE_Transfer()
 858:RC522.c       **** 
 859:RC522.c       **** unsigned char MIFARE_GetValue(unsigned char blockAddr, uint32_t *value) {
 2322              		.loc 1 859 0
 2323              		.cfi_startproc
 2324              		@ args = 0, pretend = 0, frame = 24
 2325              		@ frame_needed = 0, uses_anonymous_args = 0
 2326              	.LVL318:
 2327 0000 10B5     		push	{r4, lr}
 2328              		.cfi_def_cfa_offset 8
 2329              		.cfi_offset 4, -8
 2330              		.cfi_offset 14, -4
 2331 0002 86B0     		sub	sp, sp, #24
 2332              		.cfi_def_cfa_offset 32
 2333 0004 0C46     		mov	r4, r1
 860:RC522.c       **** 	unsigned char status;
 861:RC522.c       **** 	unsigned char buffer[18];
 862:RC522.c       **** 	unsigned char size = sizeof(buffer);
 2334              		.loc 1 862 0
 2335 0006 06AA     		add	r2, sp, #24
 2336 0008 1223     		movs	r3, #18
 2337 000a 02F8153D 		strb	r3, [r2, #-21]!
 863:RC522.c       **** 	
 864:RC522.c       **** 	// Read the block
 865:RC522.c       **** 	status = MIFARE_Read(blockAddr, buffer, &size);
ARM GAS  C:\Users\nikod\AppData\Local\Temp\cc4NWLo4.s 			page 59


 2338              		.loc 1 865 0
 2339 000e 01A9     		add	r1, sp, #4
 2340              	.LVL319:
 2341 0010 FFF7FEFF 		bl	MIFARE_Read
 2342              	.LVL320:
 866:RC522.c       **** 	if (status == STATUS_OK) {
 2343              		.loc 1 866 0
 2344 0014 0146     		mov	r1, r0
 2345 0016 70B9     		cbnz	r0, .L185
 2346              	.LBB18:
 867:RC522.c       **** 		// Extract the value
 868:RC522.c       ****         uint32_t aux;
 869:RC522.c       ****         aux=(uint32_t)(buffer[3]<<8);
 2347              		.loc 1 869 0
 2348 0018 9DF80720 		ldrb	r2, [sp, #7]	@ zero_extendqisi2
 2349              	.LVL321:
 870:RC522.c       ****         aux= (uint32_t)((buffer[2]|aux)<<8);
 2350              		.loc 1 870 0
 2351 001c 9DF80630 		ldrb	r3, [sp, #6]	@ zero_extendqisi2
 2352 0020 43EA0222 		orr	r2, r3, r2, lsl #8
 2353              	.LVL322:
 871:RC522.c       ****         aux= (uint32_t)((buffer[1]|aux)<<8);
 2354              		.loc 1 871 0
 2355 0024 9DF80530 		ldrb	r3, [sp, #5]	@ zero_extendqisi2
 2356 0028 43EA0222 		orr	r2, r3, r2, lsl #8
 2357              	.LVL323:
 872:RC522.c       **** 		*value = aux | buffer[0];
 2358              		.loc 1 872 0
 2359 002c 9DF80430 		ldrb	r3, [sp, #4]	@ zero_extendqisi2
 2360 0030 43EA0223 		orr	r3, r3, r2, lsl #8
 2361 0034 2360     		str	r3, [r4]
 2362              	.LVL324:
 2363              	.L185:
 2364              	.LBE18:
 873:RC522.c       **** 	}
 874:RC522.c       **** 	return status;
 875:RC522.c       **** } // End MIFARE_GetValue()
 2365              		.loc 1 875 0
 2366 0036 0846     		mov	r0, r1
 2367              	.LVL325:
 2368 0038 06B0     		add	sp, sp, #24
 2369              		.cfi_def_cfa_offset 8
 2370              		@ sp needed
 2371 003a 10BD     		pop	{r4, pc}
 2372              		.cfi_endproc
 2373              	.LFE97:
 2374              		.size	MIFARE_GetValue, .-MIFARE_GetValue
 2375              		.section	.text.PCD_NTAG216_AUTH,"ax",%progbits
 2376              		.align	2
 2377              		.global	PCD_NTAG216_AUTH
 2378              		.thumb
 2379              		.thumb_func
 2380              		.type	PCD_NTAG216_AUTH, %function
 2381              	PCD_NTAG216_AUTH:
 2382              	.LFB99:
 876:RC522.c       **** 
 877:RC522.c       **** 
ARM GAS  C:\Users\nikod\AppData\Local\Temp\cc4NWLo4.s 			page 60


 878:RC522.c       **** unsigned char MIFARE_SetValue(unsigned char blockAddr, uint32_t value) {
 879:RC522.c       **** 	unsigned char buffer[18];
 880:RC522.c       **** 	// Translate the unsigned long into 4 bytes; repeated 2x in value block
 881:RC522.c       **** 	buffer[0] = buffer[ 8] = (value & 0xFF);
 882:RC522.c       **** 	buffer[1] = buffer[ 9] = (value & 0xFF00) >> 8;
 883:RC522.c       **** 	buffer[2] = buffer[10] = (value & 0xFF0000) >> 16;
 884:RC522.c       **** 	buffer[3] = buffer[11] = (value & 0xFF000000) >> 24;
 885:RC522.c       **** 	// Inverse 4 bytes also found in value block
 886:RC522.c       **** 	buffer[4] = ~buffer[0];
 887:RC522.c       **** 	buffer[5] = ~buffer[1];
 888:RC522.c       **** 	buffer[6] = ~buffer[2];
 889:RC522.c       **** 	buffer[7] = ~buffer[3];
 890:RC522.c       **** 	// Address 2x with inverse address 2x
 891:RC522.c       **** 	buffer[12] = buffer[14] = blockAddr;
 892:RC522.c       **** 	buffer[13] = buffer[15] = ~blockAddr;
 893:RC522.c       **** 	
 894:RC522.c       **** 	// Write the whole data block
 895:RC522.c       **** 	return MIFARE_Write(blockAddr, buffer, 16);
 896:RC522.c       **** } // End MIFARE_SetValue()
 897:RC522.c       **** 
 898:RC522.c       **** unsigned char PCD_NTAG216_AUTH(unsigned char *passWord, unsigned char pACK[]) //Authenticate with 3
 899:RC522.c       **** {
 2383              		.loc 1 899 0
 2384              		.cfi_startproc
 2385              		@ args = 0, pretend = 0, frame = 24
 2386              		@ frame_needed = 0, uses_anonymous_args = 0
 2387              	.LVL326:
 2388 0000 10B5     		push	{r4, lr}
 2389              		.cfi_def_cfa_offset 8
 2390              		.cfi_offset 4, -8
 2391              		.cfi_offset 14, -4
 2392 0002 8CB0     		sub	sp, sp, #48
 2393              		.cfi_def_cfa_offset 56
 2394 0004 0C46     		mov	r4, r1
 900:RC522.c       **** 	// TODO: Fix cmdBuffer length and rxlength. They really should match.
 901:RC522.c       **** 	//       (Better still, rxlength should not even be necessary.)
 902:RC522.c       **** 
 903:RC522.c       **** 	unsigned char  result;
 904:RC522.c       **** 	unsigned char cmdBuffer[18]; // We need room for 16 bytes data and 2 bytes CRC_A.
 905:RC522.c       **** 	
 906:RC522.c       **** 	cmdBuffer[0] = 0x1B; //Comando de autentificacion
 2395              		.loc 1 906 0
 2396 0006 1B23     		movs	r3, #27
 2397 0008 8DF81C30 		strb	r3, [sp, #28]
 2398              	.LVL327:
 2399              	.LBB19:
 907:RC522.c       **** 	
 908:RC522.c       **** 	for (unsigned char i = 0; i<4; i++)
 2400              		.loc 1 908 0
 2401 000c 0023     		movs	r3, #0
 2402 000e 06E0     		b	.L188
 2403              	.LVL328:
 2404              	.L189:
 909:RC522.c       **** 		cmdBuffer[i+1] = passWord[i];
 2405              		.loc 1 909 0 discriminator 3
 2406 0010 5A1C     		adds	r2, r3, #1
 2407 0012 C15C     		ldrb	r1, [r0, r3]	@ zero_extendqisi2
ARM GAS  C:\Users\nikod\AppData\Local\Temp\cc4NWLo4.s 			page 61


 2408 0014 0CAB     		add	r3, sp, #48
 2409              	.LVL329:
 2410 0016 1344     		add	r3, r3, r2
 2411 0018 03F8141C 		strb	r1, [r3, #-20]
 908:RC522.c       **** 		cmdBuffer[i+1] = passWord[i];
 2412              		.loc 1 908 0 discriminator 3
 2413 001c D3B2     		uxtb	r3, r2
 2414              	.LVL330:
 2415              	.L188:
 908:RC522.c       **** 		cmdBuffer[i+1] = passWord[i];
 2416              		.loc 1 908 0 is_stmt 0 discriminator 1
 2417 001e 032B     		cmp	r3, #3
 2418 0020 F6D9     		bls	.L189
 2419              	.LBE19:
 910:RC522.c       **** 	
 911:RC522.c       **** 	result = PCD_CalculateCRC(cmdBuffer, 5, &cmdBuffer[5]);
 2420              		.loc 1 911 0 is_stmt 1
 2421 0022 0DF12102 		add	r2, sp, #33
 2422 0026 0521     		movs	r1, #5
 2423 0028 07A8     		add	r0, sp, #28
 2424              	.LVL331:
 2425 002a FFF7FEFF 		bl	PCD_CalculateCRC
 2426              	.LVL332:
 912:RC522.c       **** 	
 913:RC522.c       **** 	if (result!=STATUS_OK) {
 2427              		.loc 1 913 0
 2428 002e E0B9     		cbnz	r0, .L191
 2429              	.LVL333:
 914:RC522.c       **** 		return result;
 915:RC522.c       **** 	}
 916:RC522.c       **** 	// Transceive the data, store the reply in cmdBuffer[]
 917:RC522.c       **** 	unsigned char waitIRq		= 0x30;	// RxIRq and IdleIRq
 918:RC522.c       **** //	unsigned char cmdBufferSize	= sizeof(cmdBuffer);
 919:RC522.c       **** 	unsigned char validBits		= 0;
 2430              		.loc 1 919 0
 2431 0030 0023     		movs	r3, #0
 2432 0032 8DF81B30 		strb	r3, [sp, #27]
 920:RC522.c       **** 	unsigned char rxlength		= 5;
 2433              		.loc 1 920 0
 2434 0036 0522     		movs	r2, #5
 2435 0038 8DF81A20 		strb	r2, [sp, #26]
 921:RC522.c       **** 	result = PCD_CommunicateWithPICC(PCD_Transceive, waitIRq, cmdBuffer, 7, cmdBuffer, &rxlength, &val
 2436              		.loc 1 921 0
 2437 003c 07AA     		add	r2, sp, #28
 2438 003e 0493     		str	r3, [sp, #16]
 2439 0040 0393     		str	r3, [sp, #12]
 2440 0042 0DF11B03 		add	r3, sp, #27
 2441 0046 0293     		str	r3, [sp, #8]
 2442 0048 0DF11A03 		add	r3, sp, #26
 2443 004c 0193     		str	r3, [sp, #4]
 2444 004e 0092     		str	r2, [sp]
 2445 0050 0723     		movs	r3, #7
 2446 0052 3021     		movs	r1, #48
 2447 0054 0C20     		movs	r0, #12
 2448              	.LVL334:
 2449 0056 FFF7FEFF 		bl	PCD_CommunicateWithPICC
 2450              	.LVL335:
ARM GAS  C:\Users\nikod\AppData\Local\Temp\cc4NWLo4.s 			page 62


 922:RC522.c       **** 	
 923:RC522.c       **** 	pACK[0] = cmdBuffer[0];
 2451              		.loc 1 923 0
 2452 005a 9DF81C30 		ldrb	r3, [sp, #28]	@ zero_extendqisi2
 2453 005e 2370     		strb	r3, [r4]
 924:RC522.c       **** 	pACK[1] = cmdBuffer[1];
 2454              		.loc 1 924 0
 2455 0060 9DF81D30 		ldrb	r3, [sp, #29]	@ zero_extendqisi2
 2456 0064 6370     		strb	r3, [r4, #1]
 925:RC522.c       **** 	
 926:RC522.c       **** 	if (result!=STATUS_OK) {
 2457              		.loc 1 926 0
 2458 0066 08B9     		cbnz	r0, .L192
 2459 0068 00E0     		b	.L190
 2460              	.LVL336:
 2461              	.L191:
 2462 006a FFE7     		b	.L190
 2463              	.LVL337:
 2464              	.L192:
 2465              	.L190:
 927:RC522.c       **** 		return result;
 928:RC522.c       **** 	}
 929:RC522.c       **** 	
 930:RC522.c       **** 	return STATUS_OK;
 931:RC522.c       **** } // End PCD_NTAG216_AUTH()
 2466              		.loc 1 931 0
 2467 006c 0CB0     		add	sp, sp, #48
 2468              		.cfi_def_cfa_offset 8
 2469              		@ sp needed
 2470 006e 10BD     		pop	{r4, pc}
 2471              		.cfi_endproc
 2472              	.LFE99:
 2473              		.size	PCD_NTAG216_AUTH, .-PCD_NTAG216_AUTH
 2474              		.section	.text.PCD_MIFARE_Transceive,"ax",%progbits
 2475              		.align	2
 2476              		.global	PCD_MIFARE_Transceive
 2477              		.thumb
 2478              		.thumb_func
 2479              		.type	PCD_MIFARE_Transceive, %function
 2480              	PCD_MIFARE_Transceive:
 2481              	.LFB100:
 932:RC522.c       **** 
 933:RC522.c       **** unsigned char PCD_MIFARE_Transceive(	unsigned char *sendData,		///< Pointer to the data to transfer
 934:RC522.c       **** 										unsigned char sendLen,		///< Number of bytes in sendData.
 935:RC522.c       **** 										bool acceptTimeout	///< True => A timeout is also success
 936:RC522.c       **** 												) {
 2482              		.loc 1 936 0
 2483              		.cfi_startproc
 2484              		@ args = 0, pretend = 0, frame = 24
 2485              		@ frame_needed = 0, uses_anonymous_args = 0
 2486              	.LVL338:
 937:RC522.c       **** 	unsigned char result;
 938:RC522.c       **** 	unsigned char cmdBuffer[18]; // We need room for 16 bytes data and 2 bytes CRC_A.
 939:RC522.c       **** 	
 940:RC522.c       **** 	// Sanity check
 941:RC522.c       **** 	if (sendData == NULL || sendLen > 16) {
 2487              		.loc 1 941 0
ARM GAS  C:\Users\nikod\AppData\Local\Temp\cc4NWLo4.s 			page 63


 2488 0000 0028     		cmp	r0, #0
 2489 0002 39D0     		beq	.L197
 2490              		.loc 1 941 0 is_stmt 0 discriminator 1
 2491 0004 1029     		cmp	r1, #16
 2492 0006 39D8     		bhi	.L198
 936:RC522.c       **** 	unsigned char result;
 2493              		.loc 1 936 0 is_stmt 1
 2494 0008 30B5     		push	{r4, r5, lr}
 2495              		.cfi_def_cfa_offset 12
 2496              		.cfi_offset 4, -12
 2497              		.cfi_offset 5, -8
 2498              		.cfi_offset 14, -4
 2499 000a 8DB0     		sub	sp, sp, #52
 2500              		.cfi_def_cfa_offset 64
 2501 000c 1546     		mov	r5, r2
 2502 000e 0C46     		mov	r4, r1
 942:RC522.c       **** 		return STATUS_INVALID;
 943:RC522.c       **** 	}
 944:RC522.c       **** 	
 945:RC522.c       **** 	// Copy sendData[] to cmdBuffer[] and add CRC_A
 946:RC522.c       **** 	memcpy(cmdBuffer, sendData, sendLen);
 2503              		.loc 1 946 0
 2504 0010 0A46     		mov	r2, r1
 2505              	.LVL339:
 2506 0012 0146     		mov	r1, r0
 2507              	.LVL340:
 2508 0014 07A8     		add	r0, sp, #28
 2509              	.LVL341:
 2510 0016 FFF7FEFF 		bl	memcpy
 2511              	.LVL342:
 947:RC522.c       **** 	result = PCD_CalculateCRC(cmdBuffer, sendLen, &cmdBuffer[sendLen]);
 2512              		.loc 1 947 0
 2513 001a 07AB     		add	r3, sp, #28
 2514 001c 1A19     		adds	r2, r3, r4
 2515 001e 2146     		mov	r1, r4
 2516 0020 1846     		mov	r0, r3
 2517 0022 FFF7FEFF 		bl	PCD_CalculateCRC
 2518              	.LVL343:
 948:RC522.c       **** 	if (result != STATUS_OK) { 
 2519              		.loc 1 948 0
 2520 0026 58BB     		cbnz	r0, .L199
 949:RC522.c       **** 		return result;
 950:RC522.c       **** 	}
 951:RC522.c       **** 	sendLen += 2;
 2521              		.loc 1 951 0
 2522 0028 A11C     		adds	r1, r4, #2
 2523              	.LVL344:
 952:RC522.c       **** 	
 953:RC522.c       **** 	// Transceive the data, store the reply in cmdBuffer[]
 954:RC522.c       **** 	unsigned char waitIRq = 0x30;		// RxIRq and IdleIRq
 955:RC522.c       **** 	unsigned char cmdBufferSize = sizeof(cmdBuffer);
 2524              		.loc 1 955 0
 2525 002a 1223     		movs	r3, #18
 2526 002c 8DF81B30 		strb	r3, [sp, #27]
 956:RC522.c       **** 	unsigned char validBits = 0;
 2527              		.loc 1 956 0
 2528 0030 0023     		movs	r3, #0
ARM GAS  C:\Users\nikod\AppData\Local\Temp\cc4NWLo4.s 			page 64


 2529 0032 8DF81A30 		strb	r3, [sp, #26]
 957:RC522.c       **** 	result = PCD_CommunicateWithPICC(PCD_Transceive, waitIRq, cmdBuffer, sendLen, cmdBuffer, &cmdBuffe
 2530              		.loc 1 957 0
 2531 0036 07AA     		add	r2, sp, #28
 2532 0038 0493     		str	r3, [sp, #16]
 2533 003a 0393     		str	r3, [sp, #12]
 2534 003c 0DF11A03 		add	r3, sp, #26
 2535 0040 0293     		str	r3, [sp, #8]
 2536 0042 0DF11B03 		add	r3, sp, #27
 2537 0046 0193     		str	r3, [sp, #4]
 2538 0048 0092     		str	r2, [sp]
 2539 004a CBB2     		uxtb	r3, r1
 2540 004c 3021     		movs	r1, #48
 2541              	.LVL345:
 2542 004e 0C20     		movs	r0, #12
 2543              	.LVL346:
 2544 0050 FFF7FEFF 		bl	PCD_CommunicateWithPICC
 2545              	.LVL347:
 958:RC522.c       **** 	if (acceptTimeout && result == STATUS_TIMEOUT) {
 2546              		.loc 1 958 0
 2547 0054 0DB1     		cbz	r5, .L196
 2548              		.loc 1 958 0 is_stmt 0 discriminator 1
 2549 0056 0328     		cmp	r0, #3
 2550 0058 13D0     		beq	.L200
 2551              	.L196:
 959:RC522.c       **** 		return STATUS_OK;
 960:RC522.c       **** 	}
 961:RC522.c       **** 	if (result != STATUS_OK) {
 2552              		.loc 1 961 0 is_stmt 1
 2553 005a B8B9     		cbnz	r0, .L195
 962:RC522.c       **** 		return result;
 963:RC522.c       **** 	}
 964:RC522.c       **** 	// The PICC must reply with a 4 bit ACK
 965:RC522.c       **** 	if (cmdBufferSize != 1 || validBits != 4) {
 2554              		.loc 1 965 0
 2555 005c 9DF81B00 		ldrb	r0, [sp, #27]	@ zero_extendqisi2
 2556              	.LVL348:
 2557 0060 0128     		cmp	r0, #1
 2558 0062 10D1     		bne	.L202
 2559              		.loc 1 965 0 is_stmt 0 discriminator 1
 2560 0064 9DF81A30 		ldrb	r3, [sp, #26]	@ zero_extendqisi2
 2561 0068 042B     		cmp	r3, #4
 2562 006a 0FD1     		bne	.L195
 966:RC522.c       **** 		return STATUS_ERROR;
 967:RC522.c       **** 	}
 968:RC522.c       **** 	if (cmdBuffer[0] != 0xA) { //MI_ACK
 2563              		.loc 1 968 0 is_stmt 1
 2564 006c 9DF81C30 		ldrb	r3, [sp, #28]	@ zero_extendqisi2
 2565 0070 0A2B     		cmp	r3, #10
 2566 0072 0AD0     		beq	.L203
 969:RC522.c       **** 		return STATUS_MIFARE_NACK;
 2567              		.loc 1 969 0
 2568 0074 FF20     		movs	r0, #255
 2569 0076 09E0     		b	.L195
 2570              	.LVL349:
 2571              	.L197:
 2572              		.cfi_def_cfa_offset 0
ARM GAS  C:\Users\nikod\AppData\Local\Temp\cc4NWLo4.s 			page 65


 2573              		.cfi_restore 4
 2574              		.cfi_restore 5
 2575              		.cfi_restore 14
 942:RC522.c       **** 	}
 2576              		.loc 1 942 0
 2577 0078 0620     		movs	r0, #6
 2578              	.LVL350:
 970:RC522.c       **** 	}
 971:RC522.c       **** 	return STATUS_OK;
 972:RC522.c       **** } // End PCD_MIFARE_Transceive()
 2579              		.loc 1 972 0
 2580 007a 7047     		bx	lr
 2581              	.LVL351:
 2582              	.L198:
 942:RC522.c       **** 	}
 2583              		.loc 1 942 0
 2584 007c 0620     		movs	r0, #6
 2585              	.LVL352:
 2586 007e 7047     		bx	lr
 2587              	.LVL353:
 2588              	.L199:
 2589              		.cfi_def_cfa_offset 64
 2590              		.cfi_offset 4, -12
 2591              		.cfi_offset 5, -8
 2592              		.cfi_offset 14, -4
 2593 0080 04E0     		b	.L195
 2594              	.LVL354:
 2595              	.L200:
 959:RC522.c       **** 	}
 2596              		.loc 1 959 0
 2597 0082 0020     		movs	r0, #0
 2598              	.LVL355:
 2599 0084 02E0     		b	.L195
 2600              	.L202:
 966:RC522.c       **** 	}
 2601              		.loc 1 966 0
 2602 0086 0120     		movs	r0, #1
 2603 0088 00E0     		b	.L195
 2604              	.L203:
 971:RC522.c       **** } // End PCD_MIFARE_Transceive()
 2605              		.loc 1 971 0
 2606 008a 0020     		movs	r0, #0
 2607              	.LVL356:
 2608              	.L195:
 2609              		.loc 1 972 0
 2610 008c 0DB0     		add	sp, sp, #52
 2611              		.cfi_def_cfa_offset 12
 2612              		@ sp needed
 2613 008e 30BD     		pop	{r4, r5, pc}
 2614              		.cfi_endproc
 2615              	.LFE100:
 2616              		.size	PCD_MIFARE_Transceive, .-PCD_MIFARE_Transceive
 2617              		.section	.text.MIFARE_Write,"ax",%progbits
 2618              		.align	2
 2619              		.global	MIFARE_Write
 2620              		.thumb
 2621              		.thumb_func
ARM GAS  C:\Users\nikod\AppData\Local\Temp\cc4NWLo4.s 			page 66


 2622              		.type	MIFARE_Write, %function
 2623              	MIFARE_Write:
 2624              	.LFB90:
 745:RC522.c       **** 	unsigned char result;
 2625              		.loc 1 745 0
 2626              		.cfi_startproc
 2627              		@ args = 0, pretend = 0, frame = 8
 2628              		@ frame_needed = 0, uses_anonymous_args = 0
 2629              	.LVL357:
 749:RC522.c       **** 		return STATUS_INVALID;
 2630              		.loc 1 749 0
 2631 0000 B9B1     		cbz	r1, .L208
 749:RC522.c       **** 		return STATUS_INVALID;
 2632              		.loc 1 749 0 is_stmt 0 discriminator 1
 2633 0002 0F2A     		cmp	r2, #15
 2634 0004 17D9     		bls	.L209
 745:RC522.c       **** 	unsigned char result;
 2635              		.loc 1 745 0 is_stmt 1
 2636 0006 30B5     		push	{r4, r5, lr}
 2637              		.cfi_def_cfa_offset 12
 2638              		.cfi_offset 4, -12
 2639              		.cfi_offset 5, -8
 2640              		.cfi_offset 14, -4
 2641 0008 83B0     		sub	sp, sp, #12
 2642              		.cfi_def_cfa_offset 24
 2643 000a 0D46     		mov	r5, r1
 2644 000c 1446     		mov	r4, r2
 757:RC522.c       **** 	cmdBuffer[1] = blockAddr;
 2645              		.loc 1 757 0
 2646 000e A023     		movs	r3, #160
 2647 0010 8DF80430 		strb	r3, [sp, #4]
 758:RC522.c       **** 	result = PCD_MIFARE_Transceive(cmdBuffer, 2,false); // Adds CRC_A and checks that the response is 
 2648              		.loc 1 758 0
 2649 0014 8DF80500 		strb	r0, [sp, #5]
 759:RC522.c       **** 	if (result != STATUS_OK) {
 2650              		.loc 1 759 0
 2651 0018 0022     		movs	r2, #0
 2652              	.LVL358:
 2653 001a 0221     		movs	r1, #2
 2654              	.LVL359:
 2655 001c 01A8     		add	r0, sp, #4
 2656              	.LVL360:
 2657 001e FFF7FEFF 		bl	PCD_MIFARE_Transceive
 2658              	.LVL361:
 760:RC522.c       **** 		return result;
 2659              		.loc 1 760 0
 2660 0022 50B9     		cbnz	r0, .L210
 765:RC522.c       **** 	if (result != STATUS_OK) {
 2661              		.loc 1 765 0
 2662 0024 0022     		movs	r2, #0
 2663 0026 2146     		mov	r1, r4
 2664 0028 2846     		mov	r0, r5
 2665              	.LVL362:
 2666 002a FFF7FEFF 		bl	PCD_MIFARE_Transceive
 2667              	.LVL363:
 766:RC522.c       **** 		return result;
 2668              		.loc 1 766 0
ARM GAS  C:\Users\nikod\AppData\Local\Temp\cc4NWLo4.s 			page 67


 2669 002e 28B9     		cbnz	r0, .L211
 2670 0030 04E0     		b	.L207
 2671              	.LVL364:
 2672              	.L208:
 2673              		.cfi_def_cfa_offset 0
 2674              		.cfi_restore 4
 2675              		.cfi_restore 5
 2676              		.cfi_restore 14
 750:RC522.c       **** }
 2677              		.loc 1 750 0
 2678 0032 0620     		movs	r0, #6
 2679              	.LVL365:
 771:RC522.c       **** 
 2680              		.loc 1 771 0
 2681 0034 7047     		bx	lr
 2682              	.LVL366:
 2683              	.L209:
 750:RC522.c       **** }
 2684              		.loc 1 750 0
 2685 0036 0620     		movs	r0, #6
 2686              	.LVL367:
 2687 0038 7047     		bx	lr
 2688              	.LVL368:
 2689              	.L210:
 2690              		.cfi_def_cfa_offset 24
 2691              		.cfi_offset 4, -12
 2692              		.cfi_offset 5, -8
 2693              		.cfi_offset 14, -4
 2694 003a FFE7     		b	.L207
 2695              	.L211:
 2696              	.L207:
 771:RC522.c       **** 
 2697              		.loc 1 771 0
 2698 003c 03B0     		add	sp, sp, #12
 2699              		.cfi_def_cfa_offset 12
 2700              		@ sp needed
 2701 003e 30BD     		pop	{r4, r5, pc}
 2702              		.cfi_endproc
 2703              	.LFE90:
 2704              		.size	MIFARE_Write, .-MIFARE_Write
 2705              		.section	.text.MIFARE_SetValue,"ax",%progbits
 2706              		.align	2
 2707              		.global	MIFARE_SetValue
 2708              		.thumb
 2709              		.thumb_func
 2710              		.type	MIFARE_SetValue, %function
 2711              	MIFARE_SetValue:
 2712              	.LFB98:
 878:RC522.c       **** 	unsigned char buffer[18];
 2713              		.loc 1 878 0
 2714              		.cfi_startproc
 2715              		@ args = 0, pretend = 0, frame = 24
 2716              		@ frame_needed = 0, uses_anonymous_args = 0
 2717              	.LVL369:
 2718 0000 30B5     		push	{r4, r5, lr}
 2719              		.cfi_def_cfa_offset 12
 2720              		.cfi_offset 4, -12
ARM GAS  C:\Users\nikod\AppData\Local\Temp\cc4NWLo4.s 			page 68


 2721              		.cfi_offset 5, -8
 2722              		.cfi_offset 14, -4
 2723 0002 87B0     		sub	sp, sp, #28
 2724              		.cfi_def_cfa_offset 40
 881:RC522.c       **** 	buffer[1] = buffer[ 9] = (value & 0xFF00) >> 8;
 2725              		.loc 1 881 0
 2726 0004 CDB2     		uxtb	r5, r1
 2727 0006 8DF80C50 		strb	r5, [sp, #12]
 2728 000a 8DF80450 		strb	r5, [sp, #4]
 882:RC522.c       **** 	buffer[2] = buffer[10] = (value & 0xFF0000) >> 16;
 2729              		.loc 1 882 0
 2730 000e C1F30724 		ubfx	r4, r1, #8, #8
 2731 0012 8DF80D40 		strb	r4, [sp, #13]
 2732 0016 8DF80540 		strb	r4, [sp, #5]
 883:RC522.c       **** 	buffer[3] = buffer[11] = (value & 0xFF000000) >> 24;
 2733              		.loc 1 883 0
 2734 001a C1F30742 		ubfx	r2, r1, #16, #8
 2735 001e 8DF80E20 		strb	r2, [sp, #14]
 2736 0022 8DF80620 		strb	r2, [sp, #6]
 884:RC522.c       **** 	// Inverse 4 bytes also found in value block
 2737              		.loc 1 884 0
 2738 0026 090E     		lsrs	r1, r1, #24
 2739              	.LVL370:
 2740 0028 8DF80F10 		strb	r1, [sp, #15]
 2741 002c 8DF80710 		strb	r1, [sp, #7]
 886:RC522.c       **** 	buffer[5] = ~buffer[1];
 2742              		.loc 1 886 0
 2743 0030 ED43     		mvns	r5, r5
 2744 0032 8DF80850 		strb	r5, [sp, #8]
 887:RC522.c       **** 	buffer[6] = ~buffer[2];
 2745              		.loc 1 887 0
 2746 0036 E443     		mvns	r4, r4
 2747 0038 8DF80940 		strb	r4, [sp, #9]
 888:RC522.c       **** 	buffer[7] = ~buffer[3];
 2748              		.loc 1 888 0
 2749 003c D243     		mvns	r2, r2
 2750 003e 8DF80A20 		strb	r2, [sp, #10]
 889:RC522.c       **** 	// Address 2x with inverse address 2x
 2751              		.loc 1 889 0
 2752 0042 C943     		mvns	r1, r1
 2753 0044 8DF80B10 		strb	r1, [sp, #11]
 891:RC522.c       **** 	buffer[13] = buffer[15] = ~blockAddr;
 2754              		.loc 1 891 0
 2755 0048 8DF81200 		strb	r0, [sp, #18]
 2756 004c 8DF81000 		strb	r0, [sp, #16]
 892:RC522.c       **** 	
 2757              		.loc 1 892 0
 2758 0050 C343     		mvns	r3, r0
 2759 0052 DBB2     		uxtb	r3, r3
 2760 0054 8DF81330 		strb	r3, [sp, #19]
 2761 0058 8DF81130 		strb	r3, [sp, #17]
 895:RC522.c       **** } // End MIFARE_SetValue()
 2762              		.loc 1 895 0
 2763 005c 1022     		movs	r2, #16
 2764 005e 01A9     		add	r1, sp, #4
 2765 0060 FFF7FEFF 		bl	MIFARE_Write
 2766              	.LVL371:
ARM GAS  C:\Users\nikod\AppData\Local\Temp\cc4NWLo4.s 			page 69


 896:RC522.c       **** 
 2767              		.loc 1 896 0
 2768 0064 07B0     		add	sp, sp, #28
 2769              		.cfi_def_cfa_offset 12
 2770              		@ sp needed
 2771 0066 30BD     		pop	{r4, r5, pc}
 2772              		.cfi_endproc
 2773              	.LFE98:
 2774              		.size	MIFARE_SetValue, .-MIFARE_SetValue
 2775              		.section	.text.MIFARE_Ultralight_Write,"ax",%progbits
 2776              		.align	2
 2777              		.global	MIFARE_Ultralight_Write
 2778              		.thumb
 2779              		.thumb_func
 2780              		.type	MIFARE_Ultralight_Write, %function
 2781              	MIFARE_Ultralight_Write:
 2782              	.LFB91:
 777:RC522.c       **** 	unsigned char result;
 2783              		.loc 1 777 0
 2784              		.cfi_startproc
 2785              		@ args = 0, pretend = 0, frame = 8
 2786              		@ frame_needed = 0, uses_anonymous_args = 0
 2787              	.LVL372:
 781:RC522.c       **** 		return STATUS_INVALID;
 2788              		.loc 1 781 0
 2789 0000 91B1     		cbz	r1, .L218
 781:RC522.c       **** 		return STATUS_INVALID;
 2790              		.loc 1 781 0 is_stmt 0 discriminator 1
 2791 0002 032A     		cmp	r2, #3
 2792 0004 12D9     		bls	.L219
 777:RC522.c       **** 	unsigned char result;
 2793              		.loc 1 777 0 is_stmt 1
 2794 0006 00B5     		push	{lr}
 2795              		.cfi_def_cfa_offset 4
 2796              		.cfi_offset 14, -4
 2797 0008 83B0     		sub	sp, sp, #12
 2798              		.cfi_def_cfa_offset 16
 787:RC522.c       **** 	cmdBuffer[1] = page;
 2799              		.loc 1 787 0
 2800 000a A222     		movs	r2, #162
 2801              	.LVL373:
 2802 000c 8DF80020 		strb	r2, [sp]
 788:RC522.c       **** 	memcpy(&cmdBuffer[2], buffer, 4);
 2803              		.loc 1 788 0
 2804 0010 8DF80100 		strb	r0, [sp, #1]
 789:RC522.c       **** 	
 2805              		.loc 1 789 0
 2806 0014 0B68     		ldr	r3, [r1]	@ unaligned
 2807 0016 CDF80230 		str	r3, [sp, #2]	@ unaligned
 792:RC522.c       **** 	if (result != STATUS_OK) {
 2808              		.loc 1 792 0
 2809 001a 0022     		movs	r2, #0
 2810 001c 0621     		movs	r1, #6
 2811              	.LVL374:
 2812 001e 6846     		mov	r0, sp
 2813              	.LVL375:
 2814 0020 FFF7FEFF 		bl	PCD_MIFARE_Transceive
ARM GAS  C:\Users\nikod\AppData\Local\Temp\cc4NWLo4.s 			page 70


 2815              	.LVL376:
 793:RC522.c       **** 		return result;
 2816              		.loc 1 793 0
 2817 0024 20B9     		cbnz	r0, .L220
 2818 0026 03E0     		b	.L217
 2819              	.LVL377:
 2820              	.L218:
 2821              		.cfi_def_cfa_offset 0
 2822              		.cfi_restore 14
 782:RC522.c       **** 	}
 2823              		.loc 1 782 0
 2824 0028 0620     		movs	r0, #6
 2825              	.LVL378:
 797:RC522.c       **** 
 2826              		.loc 1 797 0
 2827 002a 7047     		bx	lr
 2828              	.LVL379:
 2829              	.L219:
 782:RC522.c       **** 	}
 2830              		.loc 1 782 0
 2831 002c 0620     		movs	r0, #6
 2832              	.LVL380:
 2833 002e 7047     		bx	lr
 2834              	.LVL381:
 2835              	.L220:
 2836              		.cfi_def_cfa_offset 16
 2837              		.cfi_offset 14, -4
 2838              	.L217:
 797:RC522.c       **** 
 2839              		.loc 1 797 0
 2840 0030 03B0     		add	sp, sp, #12
 2841              		.cfi_def_cfa_offset 4
 2842              		@ sp needed
 2843 0032 5DF804FB 		ldr	pc, [sp], #4
 2844              		.cfi_endproc
 2845              	.LFE91:
 2846              		.size	MIFARE_Ultralight_Write, .-MIFARE_Ultralight_Write
 2847 0036 00BF     		.section	.text.MIFARE_TwoStepHelper,"ax",%progbits
 2848              		.align	2
 2849              		.global	MIFARE_TwoStepHelper
 2850              		.thumb
 2851              		.thumb_func
 2852              		.type	MIFARE_TwoStepHelper, %function
 2853              	MIFARE_TwoStepHelper:
 2854              	.LFB95:
 823:RC522.c       **** 	unsigned char result;
 2855              		.loc 1 823 0
 2856              		.cfi_startproc
 2857              		@ args = 0, pretend = 0, frame = 16
 2858              		@ frame_needed = 0, uses_anonymous_args = 0
 2859              	.LVL382:
 2860 0000 00B5     		push	{lr}
 2861              		.cfi_def_cfa_offset 4
 2862              		.cfi_offset 14, -4
 2863 0002 85B0     		sub	sp, sp, #20
 2864              		.cfi_def_cfa_offset 24
 2865 0004 0192     		str	r2, [sp, #4]
ARM GAS  C:\Users\nikod\AppData\Local\Temp\cc4NWLo4.s 			page 71


 828:RC522.c       **** 	cmdBuffer[1] = blockAddr;
 2866              		.loc 1 828 0
 2867 0006 8DF80C00 		strb	r0, [sp, #12]
 829:RC522.c       **** 	result = PCD_MIFARE_Transceive(	cmdBuffer, 2, false); // Adds CRC_A and checks that the response i
 2868              		.loc 1 829 0
 2869 000a 8DF80D10 		strb	r1, [sp, #13]
 830:RC522.c       **** 	if (result != STATUS_OK) {
 2870              		.loc 1 830 0
 2871 000e 0022     		movs	r2, #0
 2872              	.LVL383:
 2873 0010 0221     		movs	r1, #2
 2874              	.LVL384:
 2875 0012 03A8     		add	r0, sp, #12
 2876              	.LVL385:
 2877 0014 FFF7FEFF 		bl	PCD_MIFARE_Transceive
 2878              	.LVL386:
 831:RC522.c       **** 		return result;
 2879              		.loc 1 831 0
 2880 0018 38B9     		cbnz	r0, .L225
 835:RC522.c       **** 	if (result != STATUS_OK) {
 2881              		.loc 1 835 0
 2882 001a 0122     		movs	r2, #1
 2883 001c 0421     		movs	r1, #4
 2884 001e 0DEB0100 		add	r0, sp, r1
 2885              	.LVL387:
 2886 0022 FFF7FEFF 		bl	PCD_MIFARE_Transceive
 2887              	.LVL388:
 836:RC522.c       **** 		return result;
 2888              		.loc 1 836 0
 2889 0026 08B9     		cbnz	r0, .L226
 2890 0028 00E0     		b	.L224
 2891              	.L225:
 2892 002a FFE7     		b	.L224
 2893              	.L226:
 2894              	.L224:
 841:RC522.c       **** 
 2895              		.loc 1 841 0
 2896 002c 05B0     		add	sp, sp, #20
 2897              		.cfi_def_cfa_offset 4
 2898              		@ sp needed
 2899 002e 5DF804FB 		ldr	pc, [sp], #4
 2900              		.cfi_endproc
 2901              	.LFE95:
 2902              		.size	MIFARE_TwoStepHelper, .-MIFARE_TwoStepHelper
 2903 0032 00BF     		.section	.text.MIFARE_Decrement,"ax",%progbits
 2904              		.align	2
 2905              		.global	MIFARE_Decrement
 2906              		.thumb
 2907              		.thumb_func
 2908              		.type	MIFARE_Decrement, %function
 2909              	MIFARE_Decrement:
 2910              	.LFB92:
 801:RC522.c       **** 	return MIFARE_TwoStepHelper(PICC_CMD_MF_DECREMENT, blockAddr, delta);
 2911              		.loc 1 801 0
 2912              		.cfi_startproc
 2913              		@ args = 0, pretend = 0, frame = 0
 2914              		@ frame_needed = 0, uses_anonymous_args = 0
ARM GAS  C:\Users\nikod\AppData\Local\Temp\cc4NWLo4.s 			page 72


 2915              	.LVL389:
 2916 0000 08B5     		push	{r3, lr}
 2917              		.cfi_def_cfa_offset 8
 2918              		.cfi_offset 3, -8
 2919              		.cfi_offset 14, -4
 802:RC522.c       **** }
 2920              		.loc 1 802 0
 2921 0002 0A46     		mov	r2, r1
 2922 0004 0146     		mov	r1, r0
 2923              	.LVL390:
 2924 0006 C020     		movs	r0, #192
 2925              	.LVL391:
 2926 0008 FFF7FEFF 		bl	MIFARE_TwoStepHelper
 2927              	.LVL392:
 803:RC522.c       **** 
 2928              		.loc 1 803 0
 2929 000c 08BD     		pop	{r3, pc}
 2930              		.cfi_endproc
 2931              	.LFE92:
 2932              		.size	MIFARE_Decrement, .-MIFARE_Decrement
 2933 000e 00BF     		.section	.text.MIFARE_Increment,"ax",%progbits
 2934              		.align	2
 2935              		.global	MIFARE_Increment
 2936              		.thumb
 2937              		.thumb_func
 2938              		.type	MIFARE_Increment, %function
 2939              	MIFARE_Increment:
 2940              	.LFB93:
 807:RC522.c       **** 	return MIFARE_TwoStepHelper(PICC_CMD_MF_INCREMENT, blockAddr, delta);
 2941              		.loc 1 807 0
 2942              		.cfi_startproc
 2943              		@ args = 0, pretend = 0, frame = 0
 2944              		@ frame_needed = 0, uses_anonymous_args = 0
 2945              	.LVL393:
 2946 0000 08B5     		push	{r3, lr}
 2947              		.cfi_def_cfa_offset 8
 2948              		.cfi_offset 3, -8
 2949              		.cfi_offset 14, -4
 808:RC522.c       **** } // End MIFARE_Increment()
 2950              		.loc 1 808 0
 2951 0002 0A46     		mov	r2, r1
 2952 0004 0146     		mov	r1, r0
 2953              	.LVL394:
 2954 0006 C120     		movs	r0, #193
 2955              	.LVL395:
 2956 0008 FFF7FEFF 		bl	MIFARE_TwoStepHelper
 2957              	.LVL396:
 809:RC522.c       **** 
 2958              		.loc 1 809 0
 2959 000c 08BD     		pop	{r3, pc}
 2960              		.cfi_endproc
 2961              	.LFE93:
 2962              		.size	MIFARE_Increment, .-MIFARE_Increment
 2963 000e 00BF     		.section	.text.MIFARE_Restore,"ax",%progbits
 2964              		.align	2
 2965              		.global	MIFARE_Restore
 2966              		.thumb
ARM GAS  C:\Users\nikod\AppData\Local\Temp\cc4NWLo4.s 			page 73


 2967              		.thumb_func
 2968              		.type	MIFARE_Restore, %function
 2969              	MIFARE_Restore:
 2970              	.LFB94:
 813:RC522.c       **** 	// The datasheet describes Restore as a two step operation, but does not explain what data to tran
 2971              		.loc 1 813 0
 2972              		.cfi_startproc
 2973              		@ args = 0, pretend = 0, frame = 0
 2974              		@ frame_needed = 0, uses_anonymous_args = 0
 2975              	.LVL397:
 2976 0000 08B5     		push	{r3, lr}
 2977              		.cfi_def_cfa_offset 8
 2978              		.cfi_offset 3, -8
 2979              		.cfi_offset 14, -4
 816:RC522.c       **** } // End MIFARE_Restore()
 2980              		.loc 1 816 0
 2981 0002 0022     		movs	r2, #0
 2982 0004 0146     		mov	r1, r0
 2983 0006 C220     		movs	r0, #194
 2984              	.LVL398:
 2985 0008 FFF7FEFF 		bl	MIFARE_TwoStepHelper
 2986              	.LVL399:
 817:RC522.c       **** 
 2987              		.loc 1 817 0
 2988 000c 08BD     		pop	{r3, pc}
 2989              		.cfi_endproc
 2990              	.LFE94:
 2991              		.size	MIFARE_Restore, .-MIFARE_Restore
 2992 000e 00BF     		.section	.text.MIFARE_Transfer,"ax",%progbits
 2993              		.align	2
 2994              		.global	MIFARE_Transfer
 2995              		.thumb
 2996              		.thumb_func
 2997              		.type	MIFARE_Transfer, %function
 2998              	MIFARE_Transfer:
 2999              	.LFB96:
 845:RC522.c       **** 	unsigned char result;
 3000              		.loc 1 845 0
 3001              		.cfi_startproc
 3002              		@ args = 0, pretend = 0, frame = 8
 3003              		@ frame_needed = 0, uses_anonymous_args = 0
 3004              	.LVL400:
 3005 0000 00B5     		push	{lr}
 3006              		.cfi_def_cfa_offset 4
 3007              		.cfi_offset 14, -4
 3008 0002 83B0     		sub	sp, sp, #12
 3009              		.cfi_def_cfa_offset 16
 850:RC522.c       **** 	cmdBuffer[1] = blockAddr;
 3010              		.loc 1 850 0
 3011 0004 B023     		movs	r3, #176
 3012 0006 8DF80430 		strb	r3, [sp, #4]
 851:RC522.c       **** 	result = PCD_MIFARE_Transceive(	cmdBuffer, 2, false); // Adds CRC_A and checks that the response i
 3013              		.loc 1 851 0
 3014 000a 8DF80500 		strb	r0, [sp, #5]
 852:RC522.c       **** 	if (result != STATUS_OK) {
 3015              		.loc 1 852 0
 3016 000e 0022     		movs	r2, #0
ARM GAS  C:\Users\nikod\AppData\Local\Temp\cc4NWLo4.s 			page 74


 3017 0010 0221     		movs	r1, #2
 3018 0012 01A8     		add	r0, sp, #4
 3019              	.LVL401:
 3020 0014 FFF7FEFF 		bl	PCD_MIFARE_Transceive
 3021              	.LVL402:
 853:RC522.c       **** 		return result;
 3022              		.loc 1 853 0
 3023 0018 0028     		cmp	r0, #0
 3024 001a FFD0     		beq	.L235
 3025              	.L235:
 857:RC522.c       **** 
 3026              		.loc 1 857 0
 3027 001c 03B0     		add	sp, sp, #12
 3028              		.cfi_def_cfa_offset 4
 3029              		@ sp needed
 3030 001e 5DF804FB 		ldr	pc, [sp], #4
 3031              		.cfi_endproc
 3032              	.LFE96:
 3033              		.size	MIFARE_Transfer, .-MIFARE_Transfer
 3034 0022 00BF     		.section	.text.PICC_IsNewCardPresent,"ax",%progbits
 3035              		.align	2
 3036              		.global	PICC_IsNewCardPresent
 3037              		.thumb
 3038              		.thumb_func
 3039              		.type	PICC_IsNewCardPresent, %function
 3040              	PICC_IsNewCardPresent:
 3041              	.LFB101:
 973:RC522.c       **** 
 974:RC522.c       **** 
 975:RC522.c       **** bool PICC_IsNewCardPresent(void) {
 3042              		.loc 1 975 0
 3043              		.cfi_startproc
 3044              		@ args = 0, pretend = 0, frame = 8
 3045              		@ frame_needed = 0, uses_anonymous_args = 0
 3046 0000 10B5     		push	{r4, lr}
 3047              		.cfi_def_cfa_offset 8
 3048              		.cfi_offset 4, -8
 3049              		.cfi_offset 14, -4
 3050 0002 82B0     		sub	sp, sp, #8
 3051              		.cfi_def_cfa_offset 16
 976:RC522.c       **** 	unsigned char bufferATQA[2];
 977:RC522.c       **** 	unsigned char bufferSize = sizeof(bufferATQA);
 3052              		.loc 1 977 0
 3053 0004 02AC     		add	r4, sp, #8
 3054 0006 0223     		movs	r3, #2
 3055 0008 04F8053D 		strb	r3, [r4, #-5]!
 978:RC522.c       **** 	// Reset baud rates
 979:RC522.c       **** 	PCD_WriteRegister(TxModeReg, 0x00);
 3056              		.loc 1 979 0
 3057 000c 0021     		movs	r1, #0
 3058 000e 1220     		movs	r0, #18
 3059 0010 FFF7FEFF 		bl	PCD_WriteRegister
 3060              	.LVL403:
 980:RC522.c       **** 	PCD_WriteRegister(RxModeReg, 0x00);
 3061              		.loc 1 980 0
 3062 0014 0021     		movs	r1, #0
 3063 0016 1320     		movs	r0, #19
ARM GAS  C:\Users\nikod\AppData\Local\Temp\cc4NWLo4.s 			page 75


 3064 0018 FFF7FEFF 		bl	PCD_WriteRegister
 3065              	.LVL404:
 981:RC522.c       **** 	// Reset ModWidthReg
 982:RC522.c       **** 	PCD_WriteRegister(ModWidthReg, 0x26);
 3066              		.loc 1 982 0
 3067 001c 2621     		movs	r1, #38
 3068 001e 2420     		movs	r0, #36
 3069 0020 FFF7FEFF 		bl	PCD_WriteRegister
 3070              	.LVL405:
 983:RC522.c       **** 
 984:RC522.c       **** 	unsigned char result = PICC_RequestA(bufferATQA, &bufferSize);
 3071              		.loc 1 984 0
 3072 0024 2146     		mov	r1, r4
 3073 0026 01A8     		add	r0, sp, #4
 3074 0028 FFF7FEFF 		bl	PICC_RequestA
 3075              	.LVL406:
 985:RC522.c       **** 	
 986:RC522.c       ****     if((result == STATUS_OK || result == STATUS_COLLISION)){
 3076              		.loc 1 986 0
 3077 002c 18B1     		cbz	r0, .L240
 3078              		.loc 1 986 0 is_stmt 0 discriminator 1
 3079 002e 0228     		cmp	r0, #2
 3080 0030 03D1     		bne	.L241
 987:RC522.c       ****         return true;
 3081              		.loc 1 987 0 is_stmt 1
 3082 0032 0120     		movs	r0, #1
 3083              	.LVL407:
 3084 0034 02E0     		b	.L239
 3085              	.LVL408:
 3086              	.L240:
 3087 0036 0120     		movs	r0, #1
 3088              	.LVL409:
 3089 0038 00E0     		b	.L239
 3090              	.LVL410:
 3091              	.L241:
 988:RC522.c       ****     }else{        
 989:RC522.c       ****         return false;
 3092              		.loc 1 989 0
 3093 003a 0020     		movs	r0, #0
 3094              	.LVL411:
 3095              	.L239:
 990:RC522.c       ****     }
 991:RC522.c       **** } // End PICC_IsNewCardPresent()
 3096              		.loc 1 991 0
 3097 003c 02B0     		add	sp, sp, #8
 3098              		.cfi_def_cfa_offset 8
 3099              		@ sp needed
 3100 003e 10BD     		pop	{r4, pc}
 3101              		.cfi_endproc
 3102              	.LFE101:
 3103              		.size	PICC_IsNewCardPresent, .-PICC_IsNewCardPresent
 3104              		.section	.text.PICC_ReadCardSerial,"ax",%progbits
 3105              		.align	2
 3106              		.global	PICC_ReadCardSerial
 3107              		.thumb
 3108              		.thumb_func
 3109              		.type	PICC_ReadCardSerial, %function
ARM GAS  C:\Users\nikod\AppData\Local\Temp\cc4NWLo4.s 			page 76


 3110              	PICC_ReadCardSerial:
 3111              	.LFB102:
 992:RC522.c       **** 
 993:RC522.c       **** bool PICC_ReadCardSerial(void) {
 3112              		.loc 1 993 0
 3113              		.cfi_startproc
 3114              		@ args = 0, pretend = 0, frame = 0
 3115              		@ frame_needed = 0, uses_anonymous_args = 0
 3116 0000 08B5     		push	{r3, lr}
 3117              		.cfi_def_cfa_offset 8
 3118              		.cfi_offset 3, -8
 3119              		.cfi_offset 14, -4
 994:RC522.c       **** 	unsigned char result = PICC_Select(&uid,0);
 3120              		.loc 1 994 0
 3121 0002 0021     		movs	r1, #0
 3122 0004 0348     		ldr	r0, .L245
 3123 0006 FFF7FEFF 		bl	PICC_Select
 3124              	.LVL412:
 995:RC522.c       **** 	return (result == STATUS_OK);
 996:RC522.c       **** } // End 
 3125              		.loc 1 996 0
 3126 000a B0FA80F0 		clz	r0, r0
 3127              	.LVL413:
 3128 000e 4009     		lsrs	r0, r0, #5
 3129 0010 08BD     		pop	{r3, pc}
 3130              	.L246:
 3131 0012 00BF     		.align	2
 3132              	.L245:
 3133 0014 00000000 		.word	uid
 3134              		.cfi_endproc
 3135              	.LFE102:
 3136              		.size	PICC_ReadCardSerial, .-PICC_ReadCardSerial
 3137              		.comm	readDummy,1,1
 3138              		.comm	readData,1,1
 3139              		.comm	uid,12,4
 3140              		.text
 3141              	.Letext0:
 3142              		.file 2 "c:\\program files (x86)\\cypress\\psoc creator\\4.2\\psoc creator\\import\\gnu\\arm\\5.4.
 3143              		.file 3 "c:\\program files (x86)\\cypress\\psoc creator\\4.2\\psoc creator\\import\\gnu\\arm\\5.4.
 3144              		.file 4 "Generated_Source\\PSoC5/cytypes.h"
 3145              		.file 5 "RC522.h"
 3146              		.file 6 "Generated_Source\\PSoC5/core_cm3.h"
 3147              		.file 7 "Generated_Source\\PSoC5/SPI.h"
 3148              		.file 8 "Generated_Source\\PSoC5/CyLib.h"
 3149              		.section	.debug_info,"",%progbits
 3150              	.Ldebug_info0:
 3151 0000 451C0000 		.4byte	0x1c45
 3152 0004 0400     		.2byte	0x4
 3153 0006 00000000 		.4byte	.Ldebug_abbrev0
 3154 000a 04       		.byte	0x4
 3155 000b 01       		.uleb128 0x1
 3156 000c 1A020000 		.4byte	.LASF128
 3157 0010 0C       		.byte	0xc
 3158 0011 EB000000 		.4byte	.LASF129
 3159 0015 19060000 		.4byte	.LASF130
 3160 0019 60000000 		.4byte	.Ldebug_ranges0+0x60
 3161 001d 00000000 		.4byte	0
ARM GAS  C:\Users\nikod\AppData\Local\Temp\cc4NWLo4.s 			page 77


 3162 0021 00000000 		.4byte	.Ldebug_line0
 3163 0025 02       		.uleb128 0x2
 3164 0026 4F040000 		.4byte	.LASF0
 3165 002a 02       		.byte	0x2
 3166 002b 1B       		.byte	0x1b
 3167 002c 30000000 		.4byte	0x30
 3168 0030 03       		.uleb128 0x3
 3169 0031 01       		.byte	0x1
 3170 0032 06       		.byte	0x6
 3171 0033 5C060000 		.4byte	.LASF2
 3172 0037 02       		.uleb128 0x2
 3173 0038 1D050000 		.4byte	.LASF1
 3174 003c 02       		.byte	0x2
 3175 003d 1D       		.byte	0x1d
 3176 003e 42000000 		.4byte	0x42
 3177 0042 03       		.uleb128 0x3
 3178 0043 01       		.byte	0x1
 3179 0044 08       		.byte	0x8
 3180 0045 CD050000 		.4byte	.LASF3
 3181 0049 03       		.uleb128 0x3
 3182 004a 02       		.byte	0x2
 3183 004b 05       		.byte	0x5
 3184 004c AD040000 		.4byte	.LASF4
 3185 0050 02       		.uleb128 0x2
 3186 0051 E2010000 		.4byte	.LASF5
 3187 0055 02       		.byte	0x2
 3188 0056 2B       		.byte	0x2b
 3189 0057 5B000000 		.4byte	0x5b
 3190 005b 03       		.uleb128 0x3
 3191 005c 02       		.byte	0x2
 3192 005d 07       		.byte	0x7
 3193 005e 6E060000 		.4byte	.LASF6
 3194 0062 02       		.uleb128 0x2
 3195 0063 CC000000 		.4byte	.LASF7
 3196 0067 02       		.byte	0x2
 3197 0068 3F       		.byte	0x3f
 3198 0069 6D000000 		.4byte	0x6d
 3199 006d 03       		.uleb128 0x3
 3200 006e 04       		.byte	0x4
 3201 006f 05       		.byte	0x5
 3202 0070 B7040000 		.4byte	.LASF8
 3203 0074 02       		.uleb128 0x2
 3204 0075 DB050000 		.4byte	.LASF9
 3205 0079 02       		.byte	0x2
 3206 007a 41       		.byte	0x41
 3207 007b 7F000000 		.4byte	0x7f
 3208 007f 03       		.uleb128 0x3
 3209 0080 04       		.byte	0x4
 3210 0081 07       		.byte	0x7
 3211 0082 4E050000 		.4byte	.LASF10
 3212 0086 03       		.uleb128 0x3
 3213 0087 08       		.byte	0x8
 3214 0088 05       		.byte	0x5
 3215 0089 B0030000 		.4byte	.LASF11
 3216 008d 03       		.uleb128 0x3
 3217 008e 08       		.byte	0x8
 3218 008f 07       		.byte	0x7
ARM GAS  C:\Users\nikod\AppData\Local\Temp\cc4NWLo4.s 			page 78


 3219 0090 96010000 		.4byte	.LASF12
 3220 0094 04       		.uleb128 0x4
 3221 0095 04       		.byte	0x4
 3222 0096 05       		.byte	0x5
 3223 0097 696E7400 		.ascii	"int\000"
 3224 009b 03       		.uleb128 0x3
 3225 009c 04       		.byte	0x4
 3226 009d 07       		.byte	0x7
 3227 009e BF000000 		.4byte	.LASF13
 3228 00a2 02       		.uleb128 0x2
 3229 00a3 2D010000 		.4byte	.LASF14
 3230 00a7 03       		.byte	0x3
 3231 00a8 14       		.byte	0x14
 3232 00a9 25000000 		.4byte	0x25
 3233 00ad 02       		.uleb128 0x2
 3234 00ae 58030000 		.4byte	.LASF15
 3235 00b2 03       		.byte	0x3
 3236 00b3 18       		.byte	0x18
 3237 00b4 37000000 		.4byte	0x37
 3238 00b8 02       		.uleb128 0x2
 3239 00b9 64040000 		.4byte	.LASF16
 3240 00bd 03       		.byte	0x3
 3241 00be 24       		.byte	0x24
 3242 00bf 50000000 		.4byte	0x50
 3243 00c3 02       		.uleb128 0x2
 3244 00c4 77050000 		.4byte	.LASF17
 3245 00c8 03       		.byte	0x3
 3246 00c9 2C       		.byte	0x2c
 3247 00ca 62000000 		.4byte	0x62
 3248 00ce 02       		.uleb128 0x2
 3249 00cf 24010000 		.4byte	.LASF18
 3250 00d3 03       		.byte	0x3
 3251 00d4 30       		.byte	0x30
 3252 00d5 74000000 		.4byte	0x74
 3253 00d9 05       		.uleb128 0x5
 3254 00da A6060000 		.4byte	.LASF19
 3255 00de 04       		.byte	0x4
 3256 00df E401     		.2byte	0x1e4
 3257 00e1 42000000 		.4byte	0x42
 3258 00e5 03       		.uleb128 0x3
 3259 00e6 04       		.byte	0x4
 3260 00e7 04       		.byte	0x4
 3261 00e8 62010000 		.4byte	.LASF20
 3262 00ec 03       		.uleb128 0x3
 3263 00ed 08       		.byte	0x8
 3264 00ee 04       		.byte	0x4
 3265 00ef AC060000 		.4byte	.LASF21
 3266 00f3 03       		.uleb128 0x3
 3267 00f4 01       		.byte	0x1
 3268 00f5 08       		.byte	0x8
 3269 00f6 20030000 		.4byte	.LASF22
 3270 00fa 03       		.uleb128 0x3
 3271 00fb 08       		.byte	0x8
 3272 00fc 04       		.byte	0x4
 3273 00fd 58040000 		.4byte	.LASF23
 3274 0101 06       		.uleb128 0x6
 3275 0102 42000000 		.4byte	0x42
ARM GAS  C:\Users\nikod\AppData\Local\Temp\cc4NWLo4.s 			page 79


 3276 0106 11010000 		.4byte	0x111
 3277 010a 07       		.uleb128 0x7
 3278 010b 11010000 		.4byte	0x111
 3279 010f 03       		.byte	0x3
 3280 0110 00       		.byte	0
 3281 0111 03       		.uleb128 0x3
 3282 0112 04       		.byte	0x4
 3283 0113 07       		.byte	0x7
 3284 0114 45050000 		.4byte	.LASF24
 3285 0118 08       		.uleb128 0x8
 3286 0119 04       		.byte	0x4
 3287 011a 42000000 		.4byte	0x42
 3288 011e 09       		.uleb128 0x9
 3289 011f 0C       		.byte	0xc
 3290 0120 05       		.byte	0x5
 3291 0121 3A       		.byte	0x3a
 3292 0122 4B010000 		.4byte	0x14b
 3293 0126 0A       		.uleb128 0xa
 3294 0127 12040000 		.4byte	.LASF25
 3295 012b 05       		.byte	0x5
 3296 012c 3B       		.byte	0x3b
 3297 012d 42000000 		.4byte	0x42
 3298 0131 00       		.byte	0
 3299 0132 0A       		.uleb128 0xa
 3300 0133 8E010000 		.4byte	.LASF26
 3301 0137 05       		.byte	0x5
 3302 0138 3C       		.byte	0x3c
 3303 0139 4B010000 		.4byte	0x14b
 3304 013d 01       		.byte	0x1
 3305 013e 0B       		.uleb128 0xb
 3306 013f 73616B00 		.ascii	"sak\000"
 3307 0143 05       		.byte	0x5
 3308 0144 3D       		.byte	0x3d
 3309 0145 42000000 		.4byte	0x42
 3310 0149 0B       		.byte	0xb
 3311 014a 00       		.byte	0
 3312 014b 06       		.uleb128 0x6
 3313 014c 42000000 		.4byte	0x42
 3314 0150 5B010000 		.4byte	0x15b
 3315 0154 07       		.uleb128 0x7
 3316 0155 11010000 		.4byte	0x111
 3317 0159 09       		.byte	0x9
 3318 015a 00       		.byte	0
 3319 015b 0C       		.uleb128 0xc
 3320 015c 55696400 		.ascii	"Uid\000"
 3321 0160 05       		.byte	0x5
 3322 0161 3E       		.byte	0x3e
 3323 0162 1E010000 		.4byte	0x11e
 3324 0166 09       		.uleb128 0x9
 3325 0167 06       		.byte	0x6
 3326 0168 05       		.byte	0x5
 3327 0169 42       		.byte	0x42
 3328 016a 7B010000 		.4byte	0x17b
 3329 016e 0A       		.uleb128 0xa
 3330 016f 9E060000 		.4byte	.LASF27
 3331 0173 05       		.byte	0x5
 3332 0174 43       		.byte	0x43
ARM GAS  C:\Users\nikod\AppData\Local\Temp\cc4NWLo4.s 			page 80


 3333 0175 7B010000 		.4byte	0x17b
 3334 0179 00       		.byte	0
 3335 017a 00       		.byte	0
 3336 017b 06       		.uleb128 0x6
 3337 017c 42000000 		.4byte	0x42
 3338 0180 8B010000 		.4byte	0x18b
 3339 0184 07       		.uleb128 0x7
 3340 0185 11010000 		.4byte	0x111
 3341 0189 05       		.byte	0x5
 3342 018a 00       		.byte	0
 3343 018b 02       		.uleb128 0x2
 3344 018c 6A000000 		.4byte	.LASF28
 3345 0190 05       		.byte	0x5
 3346 0191 44       		.byte	0x44
 3347 0192 66010000 		.4byte	0x166
 3348 0196 0D       		.uleb128 0xd
 3349 0197 7F000000 		.4byte	.LASF31
 3350 019b 01       		.byte	0x1
 3351 019c 10       		.byte	0x10
 3352 019d 00000000 		.4byte	.LFB64
 3353 01a1 2C000000 		.4byte	.LFE64-.LFB64
 3354 01a5 01       		.uleb128 0x1
 3355 01a6 9C       		.byte	0x9c
 3356 01a7 05020000 		.4byte	0x205
 3357 01ab 0E       		.uleb128 0xe
 3358 01ac 0A060000 		.4byte	.LASF29
 3359 01b0 01       		.byte	0x1
 3360 01b1 10       		.byte	0x10
 3361 01b2 42000000 		.4byte	0x42
 3362 01b6 00000000 		.4byte	.LLST0
 3363 01ba 0E       		.uleb128 0xe
 3364 01bb 07020000 		.4byte	.LASF30
 3365 01bf 01       		.byte	0x1
 3366 01c0 10       		.byte	0x10
 3367 01c1 42000000 		.4byte	0x42
 3368 01c5 21000000 		.4byte	.LLST1
 3369 01c9 0F       		.uleb128 0xf
 3370 01ca 0A000000 		.4byte	.LVL2
 3371 01ce 081C0000 		.4byte	0x1c08
 3372 01d2 10       		.uleb128 0x10
 3373 01d3 1A000000 		.4byte	.LVL3
 3374 01d7 131C0000 		.4byte	0x1c13
 3375 01db EB010000 		.4byte	0x1eb
 3376 01df 11       		.uleb128 0x11
 3377 01e0 01       		.uleb128 0x1
 3378 01e1 50       		.byte	0x50
 3379 01e2 07       		.uleb128 0x7
 3380 01e3 74       		.byte	0x74
 3381 01e4 00       		.sleb128 0
 3382 01e5 31       		.byte	0x31
 3383 01e6 24       		.byte	0x24
 3384 01e7 08       		.byte	0x8
 3385 01e8 7E       		.byte	0x7e
 3386 01e9 1A       		.byte	0x1a
 3387 01ea 00       		.byte	0
 3388 01eb 0F       		.uleb128 0xf
 3389 01ec 1E000000 		.4byte	.LVL4
ARM GAS  C:\Users\nikod\AppData\Local\Temp\cc4NWLo4.s 			page 81


 3390 01f0 081C0000 		.4byte	0x1c08
 3391 01f4 12       		.uleb128 0x12
 3392 01f5 2A000000 		.4byte	.LVL5
 3393 01f9 131C0000 		.4byte	0x1c13
 3394 01fd 11       		.uleb128 0x11
 3395 01fe 01       		.uleb128 0x1
 3396 01ff 50       		.byte	0x50
 3397 0200 02       		.uleb128 0x2
 3398 0201 75       		.byte	0x75
 3399 0202 00       		.sleb128 0
 3400 0203 00       		.byte	0
 3401 0204 00       		.byte	0
 3402 0205 0D       		.uleb128 0xd
 3403 0206 45030000 		.4byte	.LASF32
 3404 020a 01       		.byte	0x1
 3405 020b 18       		.byte	0x18
 3406 020c 00000000 		.4byte	.LFB65
 3407 0210 3A000000 		.4byte	.LFE65-.LFB65
 3408 0214 01       		.uleb128 0x1
 3409 0215 9C       		.byte	0x9c
 3410 0216 95020000 		.4byte	0x295
 3411 021a 0E       		.uleb128 0xe
 3412 021b 0A060000 		.4byte	.LASF29
 3413 021f 01       		.byte	0x1
 3414 0220 18       		.byte	0x18
 3415 0221 42000000 		.4byte	0x42
 3416 0225 42000000 		.4byte	.LLST2
 3417 0229 0E       		.uleb128 0xe
 3418 022a 71010000 		.4byte	.LASF33
 3419 022e 01       		.byte	0x1
 3420 022f 18       		.byte	0x18
 3421 0230 42000000 		.4byte	0x42
 3422 0234 63000000 		.4byte	.LLST3
 3423 0238 0E       		.uleb128 0xe
 3424 0239 2F040000 		.4byte	.LASF34
 3425 023d 01       		.byte	0x1
 3426 023e 18       		.byte	0x18
 3427 023f 18010000 		.4byte	0x118
 3428 0243 84000000 		.4byte	.LLST4
 3429 0247 13       		.uleb128 0x13
 3430 0248 1C000000 		.4byte	.LBB2
 3431 024c 1C000000 		.4byte	.LBE2-.LBB2
 3432 0250 76020000 		.4byte	0x276
 3433 0254 14       		.uleb128 0x14
 3434 0255 77010000 		.4byte	.LASF35
 3435 0259 01       		.byte	0x1
 3436 025a 1E       		.byte	0x1e
 3437 025b 42000000 		.4byte	0x42
 3438 025f A2000000 		.4byte	.LLST5
 3439 0263 0F       		.uleb128 0xf
 3440 0264 24000000 		.4byte	.LVL11
 3441 0268 081C0000 		.4byte	0x1c08
 3442 026c 0F       		.uleb128 0xf
 3443 026d 30000000 		.4byte	.LVL12
 3444 0271 131C0000 		.4byte	0x1c13
 3445 0275 00       		.byte	0
 3446 0276 0F       		.uleb128 0xf
ARM GAS  C:\Users\nikod\AppData\Local\Temp\cc4NWLo4.s 			page 82


 3447 0277 0C000000 		.4byte	.LVL8
 3448 027b 081C0000 		.4byte	0x1c08
 3449 027f 12       		.uleb128 0x12
 3450 0280 1C000000 		.4byte	.LVL9
 3451 0284 131C0000 		.4byte	0x1c13
 3452 0288 11       		.uleb128 0x11
 3453 0289 01       		.uleb128 0x1
 3454 028a 50       		.byte	0x50
 3455 028b 07       		.uleb128 0x7
 3456 028c 74       		.byte	0x74
 3457 028d 00       		.sleb128 0
 3458 028e 31       		.byte	0x31
 3459 028f 24       		.byte	0x24
 3460 0290 08       		.byte	0x8
 3461 0291 7E       		.byte	0x7e
 3462 0292 1A       		.byte	0x1a
 3463 0293 00       		.byte	0
 3464 0294 00       		.byte	0
 3465 0295 15       		.uleb128 0x15
 3466 0296 CC030000 		.4byte	.LASF41
 3467 029a 01       		.byte	0x1
 3468 029b 25       		.byte	0x25
 3469 029c 42000000 		.4byte	0x42
 3470 02a0 00000000 		.4byte	.LFB66
 3471 02a4 32000000 		.4byte	.LFE66-.LFB66
 3472 02a8 01       		.uleb128 0x1
 3473 02a9 9C       		.byte	0x9c
 3474 02aa 15030000 		.4byte	0x315
 3475 02ae 0E       		.uleb128 0xe
 3476 02af 0A060000 		.4byte	.LASF29
 3477 02b3 01       		.byte	0x1
 3478 02b4 25       		.byte	0x25
 3479 02b5 42000000 		.4byte	0x42
 3480 02b9 CC000000 		.4byte	.LLST6
 3481 02bd 16       		.uleb128 0x16
 3482 02be 07020000 		.4byte	.LASF30
 3483 02c2 01       		.byte	0x1
 3484 02c3 26       		.byte	0x26
 3485 02c4 42000000 		.4byte	0x42
 3486 02c8 01       		.uleb128 0x1
 3487 02c9 50       		.byte	0x50
 3488 02ca 0F       		.uleb128 0xf
 3489 02cb 08000000 		.4byte	.LVL17
 3490 02cf 081C0000 		.4byte	0x1c08
 3491 02d3 10       		.uleb128 0x10
 3492 02d4 1C000000 		.4byte	.LVL18
 3493 02d8 131C0000 		.4byte	0x1c13
 3494 02dc EF020000 		.4byte	0x2ef
 3495 02e0 11       		.uleb128 0x11
 3496 02e1 01       		.uleb128 0x1
 3497 02e2 50       		.byte	0x50
 3498 02e3 0A       		.uleb128 0xa
 3499 02e4 74       		.byte	0x74
 3500 02e5 00       		.sleb128 0
 3501 02e6 31       		.byte	0x31
 3502 02e7 24       		.byte	0x24
 3503 02e8 08       		.byte	0x8
ARM GAS  C:\Users\nikod\AppData\Local\Temp\cc4NWLo4.s 			page 83


 3504 02e9 7E       		.byte	0x7e
 3505 02ea 1A       		.byte	0x1a
 3506 02eb 08       		.byte	0x8
 3507 02ec 80       		.byte	0x80
 3508 02ed 21       		.byte	0x21
 3509 02ee 00       		.byte	0
 3510 02ef 0F       		.uleb128 0xf
 3511 02f0 20000000 		.4byte	.LVL19
 3512 02f4 081C0000 		.4byte	0x1c08
 3513 02f8 10       		.uleb128 0x10
 3514 02f9 2C000000 		.4byte	.LVL20
 3515 02fd 131C0000 		.4byte	0x1c13
 3516 0301 0B030000 		.4byte	0x30b
 3517 0305 11       		.uleb128 0x11
 3518 0306 01       		.uleb128 0x1
 3519 0307 50       		.byte	0x50
 3520 0308 01       		.uleb128 0x1
 3521 0309 30       		.byte	0x30
 3522 030a 00       		.byte	0
 3523 030b 0F       		.uleb128 0xf
 3524 030c 30000000 		.4byte	.LVL21
 3525 0310 1E1C0000 		.4byte	0x1c1e
 3526 0314 00       		.byte	0
 3527 0315 0D       		.uleb128 0xd
 3528 0316 F1020000 		.4byte	.LASF36
 3529 031a 01       		.byte	0x1
 3530 031b 31       		.byte	0x31
 3531 031c 00000000 		.4byte	.LFB67
 3532 0320 96000000 		.4byte	.LFE67-.LFB67
 3533 0324 01       		.uleb128 0x1
 3534 0325 9C       		.byte	0x9c
 3535 0326 27040000 		.4byte	0x427
 3536 032a 0E       		.uleb128 0xe
 3537 032b 0A060000 		.4byte	.LASF29
 3538 032f 01       		.byte	0x1
 3539 0330 31       		.byte	0x31
 3540 0331 42000000 		.4byte	0x42
 3541 0335 ED000000 		.4byte	.LLST7
 3542 0339 0E       		.uleb128 0xe
 3543 033a 71010000 		.4byte	.LASF33
 3544 033e 01       		.byte	0x1
 3545 033f 32       		.byte	0x32
 3546 0340 42000000 		.4byte	0x42
 3547 0344 19010000 		.4byte	.LLST8
 3548 0348 0E       		.uleb128 0xe
 3549 0349 2F040000 		.4byte	.LASF34
 3550 034d 01       		.byte	0x1
 3551 034e 33       		.byte	0x33
 3552 034f 18010000 		.4byte	0x118
 3553 0353 42010000 		.4byte	.LLST9
 3554 0357 0E       		.uleb128 0xe
 3555 0358 E6050000 		.4byte	.LASF37
 3556 035c 01       		.byte	0x1
 3557 035d 34       		.byte	0x34
 3558 035e 42000000 		.4byte	0x42
 3559 0362 6B010000 		.4byte	.LLST10
 3560 0366 14       		.uleb128 0x14
ARM GAS  C:\Users\nikod\AppData\Local\Temp\cc4NWLo4.s 			page 84


 3561 0367 77010000 		.4byte	.LASF35
 3562 036b 01       		.byte	0x1
 3563 036c 3A       		.byte	0x3a
 3564 036d 42000000 		.4byte	0x42
 3565 0371 97010000 		.4byte	.LLST11
 3566 0375 13       		.uleb128 0x13
 3567 0376 32000000 		.4byte	.LBB3
 3568 037a 30000000 		.4byte	.LBE3-.LBB3
 3569 037e C7030000 		.4byte	0x3c7
 3570 0382 14       		.uleb128 0x14
 3571 0383 2A040000 		.4byte	.LASF38
 3572 0387 01       		.byte	0x1
 3573 0388 42       		.byte	0x42
 3574 0389 42000000 		.4byte	0x42
 3575 038d D9010000 		.4byte	.LLST12
 3576 0391 14       		.uleb128 0x14
 3577 0392 07020000 		.4byte	.LASF30
 3578 0396 01       		.byte	0x1
 3579 0397 46       		.byte	0x46
 3580 0398 42000000 		.4byte	0x42
 3581 039c EC010000 		.4byte	.LLST13
 3582 03a0 0F       		.uleb128 0xf
 3583 03a1 40000000 		.4byte	.LVL28
 3584 03a5 081C0000 		.4byte	0x1c08
 3585 03a9 10       		.uleb128 0x10
 3586 03aa 4C000000 		.4byte	.LVL29
 3587 03ae 131C0000 		.4byte	0x1c13
 3588 03b2 BD030000 		.4byte	0x3bd
 3589 03b6 11       		.uleb128 0x11
 3590 03b7 01       		.uleb128 0x1
 3591 03b8 50       		.byte	0x50
 3592 03b9 02       		.uleb128 0x2
 3593 03ba 75       		.byte	0x75
 3594 03bb 00       		.sleb128 0
 3595 03bc 00       		.byte	0
 3596 03bd 0F       		.uleb128 0xf
 3597 03be 50000000 		.4byte	.LVL30
 3598 03c2 1E1C0000 		.4byte	0x1c1e
 3599 03c6 00       		.byte	0
 3600 03c7 0F       		.uleb128 0xf
 3601 03c8 16000000 		.4byte	.LVL25
 3602 03cc 081C0000 		.4byte	0x1c08
 3603 03d0 10       		.uleb128 0x10
 3604 03d1 2C000000 		.4byte	.LVL26
 3605 03d5 131C0000 		.4byte	0x1c13
 3606 03d9 E4030000 		.4byte	0x3e4
 3607 03dd 11       		.uleb128 0x11
 3608 03de 01       		.uleb128 0x1
 3609 03df 50       		.byte	0x50
 3610 03e0 02       		.uleb128 0x2
 3611 03e1 75       		.byte	0x75
 3612 03e2 00       		.sleb128 0
 3613 03e3 00       		.byte	0
 3614 03e4 0F       		.uleb128 0xf
 3615 03e5 6A000000 		.4byte	.LVL36
 3616 03e9 081C0000 		.4byte	0x1c08
 3617 03ed 10       		.uleb128 0x10
ARM GAS  C:\Users\nikod\AppData\Local\Temp\cc4NWLo4.s 			page 85


 3618 03ee 76000000 		.4byte	.LVL37
 3619 03f2 131C0000 		.4byte	0x1c13
 3620 03f6 01040000 		.4byte	0x401
 3621 03fa 11       		.uleb128 0x11
 3622 03fb 01       		.uleb128 0x1
 3623 03fc 50       		.byte	0x50
 3624 03fd 02       		.uleb128 0x2
 3625 03fe 75       		.byte	0x75
 3626 03ff 00       		.sleb128 0
 3627 0400 00       		.byte	0
 3628 0401 0F       		.uleb128 0xf
 3629 0402 7A000000 		.4byte	.LVL38
 3630 0406 1E1C0000 		.4byte	0x1c1e
 3631 040a 10       		.uleb128 0x10
 3632 040b 8A000000 		.4byte	.LVL41
 3633 040f 131C0000 		.4byte	0x1c13
 3634 0413 1D040000 		.4byte	0x41d
 3635 0417 11       		.uleb128 0x11
 3636 0418 01       		.uleb128 0x1
 3637 0419 50       		.byte	0x50
 3638 041a 01       		.uleb128 0x1
 3639 041b 30       		.byte	0x30
 3640 041c 00       		.byte	0
 3641 041d 0F       		.uleb128 0xf
 3642 041e 8E000000 		.4byte	.LVL42
 3643 0422 1E1C0000 		.4byte	0x1c1e
 3644 0426 00       		.byte	0
 3645 0427 0D       		.uleb128 0xd
 3646 0428 06050000 		.4byte	.LASF39
 3647 042c 01       		.byte	0x1
 3648 042d 57       		.byte	0x57
 3649 042e 00000000 		.4byte	.LFB68
 3650 0432 18000000 		.4byte	.LFE68-.LFB68
 3651 0436 01       		.uleb128 0x1
 3652 0437 9C       		.byte	0x9c
 3653 0438 8E040000 		.4byte	0x48e
 3654 043c 17       		.uleb128 0x17
 3655 043d 72656700 		.ascii	"reg\000"
 3656 0441 01       		.byte	0x1
 3657 0442 57       		.byte	0x57
 3658 0443 42000000 		.4byte	0x42
 3659 0447 FF010000 		.4byte	.LLST14
 3660 044b 0E       		.uleb128 0xe
 3661 044c 2A040000 		.4byte	.LASF38
 3662 0450 01       		.byte	0x1
 3663 0451 58       		.byte	0x58
 3664 0452 42000000 		.4byte	0x42
 3665 0456 20020000 		.4byte	.LLST15
 3666 045a 18       		.uleb128 0x18
 3667 045b 746D7000 		.ascii	"tmp\000"
 3668 045f 01       		.byte	0x1
 3669 0460 5A       		.byte	0x5a
 3670 0461 42000000 		.4byte	0x42
 3671 0465 41020000 		.4byte	.LLST16
 3672 0469 10       		.uleb128 0x10
 3673 046a 0A000000 		.4byte	.LVL45
 3674 046e 95020000 		.4byte	0x295
ARM GAS  C:\Users\nikod\AppData\Local\Temp\cc4NWLo4.s 			page 86


 3675 0472 7D040000 		.4byte	0x47d
 3676 0476 11       		.uleb128 0x11
 3677 0477 01       		.uleb128 0x1
 3678 0478 50       		.byte	0x50
 3679 0479 02       		.uleb128 0x2
 3680 047a 75       		.byte	0x75
 3681 047b 00       		.sleb128 0
 3682 047c 00       		.byte	0
 3683 047d 12       		.uleb128 0x12
 3684 047e 16000000 		.4byte	.LVL47
 3685 0482 96010000 		.4byte	0x196
 3686 0486 11       		.uleb128 0x11
 3687 0487 01       		.uleb128 0x1
 3688 0488 50       		.byte	0x50
 3689 0489 02       		.uleb128 0x2
 3690 048a 75       		.byte	0x75
 3691 048b 00       		.sleb128 0
 3692 048c 00       		.byte	0
 3693 048d 00       		.byte	0
 3694 048e 0D       		.uleb128 0xd
 3695 048f C3060000 		.4byte	.LASF40
 3696 0493 01       		.byte	0x1
 3697 0494 60       		.byte	0x60
 3698 0495 00000000 		.4byte	.LFB69
 3699 0499 18000000 		.4byte	.LFE69-.LFB69
 3700 049d 01       		.uleb128 0x1
 3701 049e 9C       		.byte	0x9c
 3702 049f F5040000 		.4byte	0x4f5
 3703 04a3 17       		.uleb128 0x17
 3704 04a4 72656700 		.ascii	"reg\000"
 3705 04a8 01       		.byte	0x1
 3706 04a9 60       		.byte	0x60
 3707 04aa 42000000 		.4byte	0x42
 3708 04ae 54020000 		.4byte	.LLST17
 3709 04b2 0E       		.uleb128 0xe
 3710 04b3 2A040000 		.4byte	.LASF38
 3711 04b7 01       		.byte	0x1
 3712 04b8 61       		.byte	0x61
 3713 04b9 42000000 		.4byte	0x42
 3714 04bd 75020000 		.4byte	.LLST18
 3715 04c1 18       		.uleb128 0x18
 3716 04c2 746D7000 		.ascii	"tmp\000"
 3717 04c6 01       		.byte	0x1
 3718 04c7 63       		.byte	0x63
 3719 04c8 42000000 		.4byte	0x42
 3720 04cc 96020000 		.4byte	.LLST19
 3721 04d0 10       		.uleb128 0x10
 3722 04d1 0A000000 		.4byte	.LVL49
 3723 04d5 95020000 		.4byte	0x295
 3724 04d9 E4040000 		.4byte	0x4e4
 3725 04dd 11       		.uleb128 0x11
 3726 04de 01       		.uleb128 0x1
 3727 04df 50       		.byte	0x50
 3728 04e0 02       		.uleb128 0x2
 3729 04e1 75       		.byte	0x75
 3730 04e2 00       		.sleb128 0
 3731 04e3 00       		.byte	0
ARM GAS  C:\Users\nikod\AppData\Local\Temp\cc4NWLo4.s 			page 87


 3732 04e4 12       		.uleb128 0x12
 3733 04e5 16000000 		.4byte	.LVL51
 3734 04e9 96010000 		.4byte	0x196
 3735 04ed 11       		.uleb128 0x11
 3736 04ee 01       		.uleb128 0x1
 3737 04ef 50       		.byte	0x50
 3738 04f0 02       		.uleb128 0x2
 3739 04f1 75       		.byte	0x75
 3740 04f2 00       		.sleb128 0
 3741 04f3 00       		.byte	0
 3742 04f4 00       		.byte	0
 3743 04f5 15       		.uleb128 0x15
 3744 04f6 89040000 		.4byte	.LASF42
 3745 04fa 01       		.byte	0x1
 3746 04fb 68       		.byte	0x68
 3747 04fc 42000000 		.4byte	0x42
 3748 0500 00000000 		.4byte	.LFB70
 3749 0504 6C000000 		.4byte	.LFE70-.LFB70
 3750 0508 01       		.uleb128 0x1
 3751 0509 9C       		.byte	0x9c
 3752 050a 39060000 		.4byte	0x639
 3753 050e 0E       		.uleb128 0xe
 3754 050f 40030000 		.4byte	.LASF43
 3755 0513 01       		.byte	0x1
 3756 0514 68       		.byte	0x68
 3757 0515 18010000 		.4byte	0x118
 3758 0519 A9020000 		.4byte	.LLST20
 3759 051d 0E       		.uleb128 0xe
 3760 051e CD040000 		.4byte	.LASF44
 3761 0522 01       		.byte	0x1
 3762 0523 69       		.byte	0x69
 3763 0524 42000000 		.4byte	0x42
 3764 0528 C7020000 		.4byte	.LLST21
 3765 052c 0E       		.uleb128 0xe
 3766 052d 7D010000 		.4byte	.LASF45
 3767 0531 01       		.byte	0x1
 3768 0532 6A       		.byte	0x6a
 3769 0533 18010000 		.4byte	0x118
 3770 0537 E8020000 		.4byte	.LLST22
 3771 053b 13       		.uleb128 0x13
 3772 053c 32000000 		.4byte	.LBB4
 3773 0540 36000000 		.4byte	.LBE4-.LBB4
 3774 0544 BC050000 		.4byte	0x5bc
 3775 0548 18       		.uleb128 0x18
 3776 0549 6900     		.ascii	"i\000"
 3777 054b 01       		.byte	0x1
 3778 054c 76       		.byte	0x76
 3779 054d B8000000 		.4byte	0xb8
 3780 0551 06030000 		.4byte	.LLST23
 3781 0555 19       		.uleb128 0x19
 3782 0556 38000000 		.4byte	.LBB5
 3783 055a 28000000 		.4byte	.LBE5-.LBB5
 3784 055e 18       		.uleb128 0x18
 3785 055f 6E00     		.ascii	"n\000"
 3786 0561 01       		.byte	0x1
 3787 0562 78       		.byte	0x78
 3788 0563 42000000 		.4byte	0x42
ARM GAS  C:\Users\nikod\AppData\Local\Temp\cc4NWLo4.s 			page 88


 3789 0567 32030000 		.4byte	.LLST24
 3790 056b 10       		.uleb128 0x10
 3791 056c 3E000000 		.4byte	.LVL61
 3792 0570 95020000 		.4byte	0x295
 3793 0574 7E050000 		.4byte	0x57e
 3794 0578 11       		.uleb128 0x11
 3795 0579 01       		.uleb128 0x1
 3796 057a 50       		.byte	0x50
 3797 057b 01       		.uleb128 0x1
 3798 057c 35       		.byte	0x35
 3799 057d 00       		.byte	0
 3800 057e 10       		.uleb128 0x10
 3801 057f 4C000000 		.4byte	.LVL63
 3802 0583 96010000 		.4byte	0x196
 3803 0587 96050000 		.4byte	0x596
 3804 058b 11       		.uleb128 0x11
 3805 058c 01       		.uleb128 0x1
 3806 058d 50       		.byte	0x50
 3807 058e 01       		.uleb128 0x1
 3808 058f 31       		.byte	0x31
 3809 0590 11       		.uleb128 0x11
 3810 0591 01       		.uleb128 0x1
 3811 0592 51       		.byte	0x51
 3812 0593 01       		.uleb128 0x1
 3813 0594 30       		.byte	0x30
 3814 0595 00       		.byte	0
 3815 0596 10       		.uleb128 0x10
 3816 0597 52000000 		.4byte	.LVL64
 3817 059b 95020000 		.4byte	0x295
 3818 059f AA050000 		.4byte	0x5aa
 3819 05a3 11       		.uleb128 0x11
 3820 05a4 01       		.uleb128 0x1
 3821 05a5 50       		.byte	0x50
 3822 05a6 02       		.uleb128 0x2
 3823 05a7 08       		.byte	0x8
 3824 05a8 22       		.byte	0x22
 3825 05a9 00       		.byte	0
 3826 05aa 12       		.uleb128 0x12
 3827 05ab 5A000000 		.4byte	.LVL65
 3828 05af 95020000 		.4byte	0x295
 3829 05b3 11       		.uleb128 0x11
 3830 05b4 01       		.uleb128 0x1
 3831 05b5 50       		.byte	0x50
 3832 05b6 02       		.uleb128 0x2
 3833 05b7 08       		.byte	0x8
 3834 05b8 21       		.byte	0x21
 3835 05b9 00       		.byte	0
 3836 05ba 00       		.byte	0
 3837 05bb 00       		.byte	0
 3838 05bc 10       		.uleb128 0x10
 3839 05bd 10000000 		.4byte	.LVL55
 3840 05c1 96010000 		.4byte	0x196
 3841 05c5 D4050000 		.4byte	0x5d4
 3842 05c9 11       		.uleb128 0x11
 3843 05ca 01       		.uleb128 0x1
 3844 05cb 50       		.byte	0x50
 3845 05cc 01       		.uleb128 0x1
ARM GAS  C:\Users\nikod\AppData\Local\Temp\cc4NWLo4.s 			page 89


 3846 05cd 31       		.byte	0x31
 3847 05ce 11       		.uleb128 0x11
 3848 05cf 01       		.uleb128 0x1
 3849 05d0 51       		.byte	0x51
 3850 05d1 01       		.uleb128 0x1
 3851 05d2 30       		.byte	0x30
 3852 05d3 00       		.byte	0
 3853 05d4 10       		.uleb128 0x10
 3854 05d5 18000000 		.4byte	.LVL56
 3855 05d9 96010000 		.4byte	0x196
 3856 05dd EC050000 		.4byte	0x5ec
 3857 05e1 11       		.uleb128 0x11
 3858 05e2 01       		.uleb128 0x1
 3859 05e3 50       		.byte	0x50
 3860 05e4 01       		.uleb128 0x1
 3861 05e5 35       		.byte	0x35
 3862 05e6 11       		.uleb128 0x11
 3863 05e7 01       		.uleb128 0x1
 3864 05e8 51       		.byte	0x51
 3865 05e9 01       		.uleb128 0x1
 3866 05ea 34       		.byte	0x34
 3867 05eb 00       		.byte	0
 3868 05ec 10       		.uleb128 0x10
 3869 05ed 20000000 		.4byte	.LVL57
 3870 05f1 96010000 		.4byte	0x196
 3871 05f5 05060000 		.4byte	0x605
 3872 05f9 11       		.uleb128 0x11
 3873 05fa 01       		.uleb128 0x1
 3874 05fb 50       		.byte	0x50
 3875 05fc 01       		.uleb128 0x1
 3876 05fd 3A       		.byte	0x3a
 3877 05fe 11       		.uleb128 0x11
 3878 05ff 01       		.uleb128 0x1
 3879 0600 51       		.byte	0x51
 3880 0601 02       		.uleb128 0x2
 3881 0602 09       		.byte	0x9
 3882 0603 80       		.byte	0x80
 3883 0604 00       		.byte	0
 3884 0605 10       		.uleb128 0x10
 3885 0606 2A000000 		.4byte	.LVL58
 3886 060a 05020000 		.4byte	0x205
 3887 060e 24060000 		.4byte	0x624
 3888 0612 11       		.uleb128 0x11
 3889 0613 01       		.uleb128 0x1
 3890 0614 50       		.byte	0x50
 3891 0615 01       		.uleb128 0x1
 3892 0616 39       		.byte	0x39
 3893 0617 11       		.uleb128 0x11
 3894 0618 01       		.uleb128 0x1
 3895 0619 51       		.byte	0x51
 3896 061a 02       		.uleb128 0x2
 3897 061b 74       		.byte	0x74
 3898 061c 00       		.sleb128 0
 3899 061d 11       		.uleb128 0x11
 3900 061e 01       		.uleb128 0x1
 3901 061f 52       		.byte	0x52
 3902 0620 02       		.uleb128 0x2
ARM GAS  C:\Users\nikod\AppData\Local\Temp\cc4NWLo4.s 			page 90


 3903 0621 76       		.byte	0x76
 3904 0622 00       		.sleb128 0
 3905 0623 00       		.byte	0
 3906 0624 12       		.uleb128 0x12
 3907 0625 32000000 		.4byte	.LVL59
 3908 0629 96010000 		.4byte	0x196
 3909 062d 11       		.uleb128 0x11
 3910 062e 01       		.uleb128 0x1
 3911 062f 50       		.byte	0x50
 3912 0630 01       		.uleb128 0x1
 3913 0631 31       		.byte	0x31
 3914 0632 11       		.uleb128 0x11
 3915 0633 01       		.uleb128 0x1
 3916 0634 51       		.byte	0x51
 3917 0635 01       		.uleb128 0x1
 3918 0636 33       		.byte	0x33
 3919 0637 00       		.byte	0
 3920 0638 00       		.byte	0
 3921 0639 0D       		.uleb128 0xd
 3922 063a 0F060000 		.4byte	.LASF46
 3923 063e 01       		.byte	0x1
 3924 063f AB       		.byte	0xab
 3925 0640 00000000 		.4byte	.LFB72
 3926 0644 28000000 		.4byte	.LFE72-.LFB72
 3927 0648 01       		.uleb128 0x1
 3928 0649 9C       		.byte	0x9c
 3929 064a 99060000 		.4byte	0x699
 3930 064e 14       		.uleb128 0x14
 3931 064f 71010000 		.4byte	.LASF33
 3932 0653 01       		.byte	0x1
 3933 0654 B0       		.byte	0xb0
 3934 0655 42000000 		.4byte	0x42
 3935 0659 50030000 		.4byte	.LLST25
 3936 065d 10       		.uleb128 0x10
 3937 065e 0A000000 		.4byte	.LVL69
 3938 0662 96010000 		.4byte	0x196
 3939 0666 75060000 		.4byte	0x675
 3940 066a 11       		.uleb128 0x11
 3941 066b 01       		.uleb128 0x1
 3942 066c 50       		.byte	0x50
 3943 066d 01       		.uleb128 0x1
 3944 066e 31       		.byte	0x31
 3945 066f 11       		.uleb128 0x11
 3946 0670 01       		.uleb128 0x1
 3947 0671 51       		.byte	0x51
 3948 0672 01       		.uleb128 0x1
 3949 0673 3F       		.byte	0x3f
 3950 0674 00       		.byte	0
 3951 0675 10       		.uleb128 0x10
 3952 0676 12000000 		.4byte	.LVL71
 3953 067a 291C0000 		.4byte	0x1c29
 3954 067e 89060000 		.4byte	0x689
 3955 0682 11       		.uleb128 0x11
 3956 0683 01       		.uleb128 0x1
 3957 0684 50       		.byte	0x50
 3958 0685 02       		.uleb128 0x2
 3959 0686 08       		.byte	0x8
ARM GAS  C:\Users\nikod\AppData\Local\Temp\cc4NWLo4.s 			page 91


 3960 0687 32       		.byte	0x32
 3961 0688 00       		.byte	0
 3962 0689 12       		.uleb128 0x12
 3963 068a 18000000 		.4byte	.LVL72
 3964 068e 95020000 		.4byte	0x295
 3965 0692 11       		.uleb128 0x11
 3966 0693 01       		.uleb128 0x1
 3967 0694 50       		.byte	0x50
 3968 0695 01       		.uleb128 0x1
 3969 0696 31       		.byte	0x31
 3970 0697 00       		.byte	0
 3971 0698 00       		.byte	0
 3972 0699 0D       		.uleb128 0xd
 3973 069a BE030000 		.4byte	.LASF47
 3974 069e 01       		.byte	0x1
 3975 069f B7       		.byte	0xb7
 3976 06a0 00000000 		.4byte	.LFB73
 3977 06a4 1E000000 		.4byte	.LFE73-.LFB73
 3978 06a8 01       		.uleb128 0x1
 3979 06a9 9C       		.byte	0x9c
 3980 06aa E0060000 		.4byte	0x6e0
 3981 06ae 14       		.uleb128 0x14
 3982 06af 07020000 		.4byte	.LASF30
 3983 06b3 01       		.byte	0x1
 3984 06b4 B8       		.byte	0xb8
 3985 06b5 42000000 		.4byte	0x42
 3986 06b9 7A030000 		.4byte	.LLST26
 3987 06bd 10       		.uleb128 0x10
 3988 06be 08000000 		.4byte	.LVL75
 3989 06c2 95020000 		.4byte	0x295
 3990 06c6 D0060000 		.4byte	0x6d0
 3991 06ca 11       		.uleb128 0x11
 3992 06cb 01       		.uleb128 0x1
 3993 06cc 50       		.byte	0x50
 3994 06cd 01       		.uleb128 0x1
 3995 06ce 44       		.byte	0x44
 3996 06cf 00       		.byte	0
 3997 06d0 12       		.uleb128 0x12
 3998 06d1 1C000000 		.4byte	.LVL77
 3999 06d5 96010000 		.4byte	0x196
 4000 06d9 11       		.uleb128 0x11
 4001 06da 01       		.uleb128 0x1
 4002 06db 50       		.byte	0x50
 4003 06dc 01       		.uleb128 0x1
 4004 06dd 44       		.byte	0x44
 4005 06de 00       		.byte	0
 4006 06df 00       		.byte	0
 4007 06e0 0D       		.uleb128 0xd
 4008 06e1 27050000 		.4byte	.LASF48
 4009 06e5 01       		.byte	0x1
 4010 06e6 89       		.byte	0x89
 4011 06e7 00000000 		.4byte	.LFB71
 4012 06eb 58000000 		.4byte	.LFE71-.LFB71
 4013 06ef 01       		.uleb128 0x1
 4014 06f0 9C       		.byte	0x9c
 4015 06f1 FF070000 		.4byte	0x7ff
 4016 06f5 1A       		.uleb128 0x1a
ARM GAS  C:\Users\nikod\AppData\Local\Temp\cc4NWLo4.s 			page 92


 4017 06f6 A8020000 		.4byte	.LASF131
 4018 06fa 01       		.byte	0x1
 4019 06fb 8B       		.byte	0x8b
 4020 06fc FF070000 		.4byte	0x7ff
 4021 0700 0F       		.uleb128 0xf
 4022 0701 06000000 		.4byte	.LVL78
 4023 0705 341C0000 		.4byte	0x1c34
 4024 0709 0F       		.uleb128 0xf
 4025 070a 0A000000 		.4byte	.LVL79
 4026 070e 39060000 		.4byte	0x639
 4027 0712 10       		.uleb128 0x10
 4028 0713 12000000 		.4byte	.LVL80
 4029 0717 96010000 		.4byte	0x196
 4030 071b 2A070000 		.4byte	0x72a
 4031 071f 11       		.uleb128 0x11
 4032 0720 01       		.uleb128 0x1
 4033 0721 50       		.byte	0x50
 4034 0722 01       		.uleb128 0x1
 4035 0723 42       		.byte	0x42
 4036 0724 11       		.uleb128 0x11
 4037 0725 01       		.uleb128 0x1
 4038 0726 51       		.byte	0x51
 4039 0727 01       		.uleb128 0x1
 4040 0728 30       		.byte	0x30
 4041 0729 00       		.byte	0
 4042 072a 10       		.uleb128 0x10
 4043 072b 1A000000 		.4byte	.LVL81
 4044 072f 96010000 		.4byte	0x196
 4045 0733 42070000 		.4byte	0x742
 4046 0737 11       		.uleb128 0x11
 4047 0738 01       		.uleb128 0x1
 4048 0739 50       		.byte	0x50
 4049 073a 01       		.uleb128 0x1
 4050 073b 43       		.byte	0x43
 4051 073c 11       		.uleb128 0x11
 4052 073d 01       		.uleb128 0x1
 4053 073e 51       		.byte	0x51
 4054 073f 01       		.uleb128 0x1
 4055 0740 30       		.byte	0x30
 4056 0741 00       		.byte	0
 4057 0742 10       		.uleb128 0x10
 4058 0743 22000000 		.4byte	.LVL82
 4059 0747 96010000 		.4byte	0x196
 4060 074b 5C070000 		.4byte	0x75c
 4061 074f 11       		.uleb128 0x11
 4062 0750 01       		.uleb128 0x1
 4063 0751 50       		.byte	0x50
 4064 0752 02       		.uleb128 0x2
 4065 0753 08       		.byte	0x8
 4066 0754 24       		.byte	0x24
 4067 0755 11       		.uleb128 0x11
 4068 0756 01       		.uleb128 0x1
 4069 0757 51       		.byte	0x51
 4070 0758 02       		.uleb128 0x2
 4071 0759 08       		.byte	0x8
 4072 075a 26       		.byte	0x26
 4073 075b 00       		.byte	0
ARM GAS  C:\Users\nikod\AppData\Local\Temp\cc4NWLo4.s 			page 93


 4074 075c 10       		.uleb128 0x10
 4075 075d 2A000000 		.4byte	.LVL83
 4076 0761 96010000 		.4byte	0x196
 4077 0765 76070000 		.4byte	0x776
 4078 0769 11       		.uleb128 0x11
 4079 076a 01       		.uleb128 0x1
 4080 076b 50       		.byte	0x50
 4081 076c 02       		.uleb128 0x2
 4082 076d 08       		.byte	0x8
 4083 076e 2A       		.byte	0x2a
 4084 076f 11       		.uleb128 0x11
 4085 0770 01       		.uleb128 0x1
 4086 0771 51       		.byte	0x51
 4087 0772 02       		.uleb128 0x2
 4088 0773 09       		.byte	0x9
 4089 0774 80       		.byte	0x80
 4090 0775 00       		.byte	0
 4091 0776 10       		.uleb128 0x10
 4092 0777 32000000 		.4byte	.LVL84
 4093 077b 96010000 		.4byte	0x196
 4094 077f 90070000 		.4byte	0x790
 4095 0783 11       		.uleb128 0x11
 4096 0784 01       		.uleb128 0x1
 4097 0785 50       		.byte	0x50
 4098 0786 02       		.uleb128 0x2
 4099 0787 08       		.byte	0x8
 4100 0788 2B       		.byte	0x2b
 4101 0789 11       		.uleb128 0x11
 4102 078a 01       		.uleb128 0x1
 4103 078b 51       		.byte	0x51
 4104 078c 02       		.uleb128 0x2
 4105 078d 09       		.byte	0x9
 4106 078e A9       		.byte	0xa9
 4107 078f 00       		.byte	0
 4108 0790 10       		.uleb128 0x10
 4109 0791 3A000000 		.4byte	.LVL85
 4110 0795 96010000 		.4byte	0x196
 4111 0799 A9070000 		.4byte	0x7a9
 4112 079d 11       		.uleb128 0x11
 4113 079e 01       		.uleb128 0x1
 4114 079f 50       		.byte	0x50
 4115 07a0 02       		.uleb128 0x2
 4116 07a1 08       		.byte	0x8
 4117 07a2 2C       		.byte	0x2c
 4118 07a3 11       		.uleb128 0x11
 4119 07a4 01       		.uleb128 0x1
 4120 07a5 51       		.byte	0x51
 4121 07a6 01       		.uleb128 0x1
 4122 07a7 33       		.byte	0x33
 4123 07a8 00       		.byte	0
 4124 07a9 10       		.uleb128 0x10
 4125 07aa 42000000 		.4byte	.LVL86
 4126 07ae 96010000 		.4byte	0x196
 4127 07b2 C3070000 		.4byte	0x7c3
 4128 07b6 11       		.uleb128 0x11
 4129 07b7 01       		.uleb128 0x1
 4130 07b8 50       		.byte	0x50
ARM GAS  C:\Users\nikod\AppData\Local\Temp\cc4NWLo4.s 			page 94


 4131 07b9 02       		.uleb128 0x2
 4132 07ba 08       		.byte	0x8
 4133 07bb 2D       		.byte	0x2d
 4134 07bc 11       		.uleb128 0x11
 4135 07bd 01       		.uleb128 0x1
 4136 07be 51       		.byte	0x51
 4137 07bf 02       		.uleb128 0x2
 4138 07c0 09       		.byte	0x9
 4139 07c1 E8       		.byte	0xe8
 4140 07c2 00       		.byte	0
 4141 07c3 10       		.uleb128 0x10
 4142 07c4 4A000000 		.4byte	.LVL87
 4143 07c8 96010000 		.4byte	0x196
 4144 07cc DC070000 		.4byte	0x7dc
 4145 07d0 11       		.uleb128 0x11
 4146 07d1 01       		.uleb128 0x1
 4147 07d2 50       		.byte	0x50
 4148 07d3 01       		.uleb128 0x1
 4149 07d4 45       		.byte	0x45
 4150 07d5 11       		.uleb128 0x11
 4151 07d6 01       		.uleb128 0x1
 4152 07d7 51       		.byte	0x51
 4153 07d8 02       		.uleb128 0x2
 4154 07d9 08       		.byte	0x8
 4155 07da 40       		.byte	0x40
 4156 07db 00       		.byte	0
 4157 07dc 10       		.uleb128 0x10
 4158 07dd 52000000 		.4byte	.LVL88
 4159 07e1 96010000 		.4byte	0x196
 4160 07e5 F5070000 		.4byte	0x7f5
 4161 07e9 11       		.uleb128 0x11
 4162 07ea 01       		.uleb128 0x1
 4163 07eb 50       		.byte	0x50
 4164 07ec 01       		.uleb128 0x1
 4165 07ed 41       		.byte	0x41
 4166 07ee 11       		.uleb128 0x11
 4167 07ef 01       		.uleb128 0x1
 4168 07f0 51       		.byte	0x51
 4169 07f1 02       		.uleb128 0x2
 4170 07f2 08       		.byte	0x8
 4171 07f3 3D       		.byte	0x3d
 4172 07f4 00       		.byte	0
 4173 07f5 0F       		.uleb128 0xf
 4174 07f6 56000000 		.4byte	.LVL89
 4175 07fa 99060000 		.4byte	0x699
 4176 07fe 00       		.byte	0
 4177 07ff 03       		.uleb128 0x3
 4178 0800 01       		.byte	0x1
 4179 0801 02       		.byte	0x2
 4180 0802 CC020000 		.4byte	.LASF49
 4181 0806 0D       		.uleb128 0xd
 4182 0807 ED010000 		.4byte	.LASF50
 4183 080b 01       		.byte	0x1
 4184 080c BE       		.byte	0xbe
 4185 080d 00000000 		.4byte	.LFB74
 4186 0811 0C000000 		.4byte	.LFE74-.LFB74
 4187 0815 01       		.uleb128 0x1
ARM GAS  C:\Users\nikod\AppData\Local\Temp\cc4NWLo4.s 			page 95


 4188 0816 9C       		.byte	0x9c
 4189 0817 30080000 		.4byte	0x830
 4190 081b 12       		.uleb128 0x12
 4191 081c 0A000000 		.4byte	.LVL90
 4192 0820 8E040000 		.4byte	0x48e
 4193 0824 11       		.uleb128 0x11
 4194 0825 01       		.uleb128 0x1
 4195 0826 50       		.byte	0x50
 4196 0827 01       		.uleb128 0x1
 4197 0828 44       		.byte	0x44
 4198 0829 11       		.uleb128 0x11
 4199 082a 01       		.uleb128 0x1
 4200 082b 51       		.byte	0x51
 4201 082c 01       		.uleb128 0x1
 4202 082d 33       		.byte	0x33
 4203 082e 00       		.byte	0
 4204 082f 00       		.byte	0
 4205 0830 1B       		.uleb128 0x1b
 4206 0831 9C000000 		.4byte	.LASF51
 4207 0835 01       		.byte	0x1
 4208 0836 C2       		.byte	0xc2
 4209 0837 42000000 		.4byte	0x42
 4210 083b 00000000 		.4byte	.LFB75
 4211 083f 0E000000 		.4byte	.LFE75-.LFB75
 4212 0843 01       		.uleb128 0x1
 4213 0844 9C       		.byte	0x9c
 4214 0845 5A080000 		.4byte	0x85a
 4215 0849 12       		.uleb128 0x12
 4216 084a 08000000 		.4byte	.LVL91
 4217 084e 95020000 		.4byte	0x295
 4218 0852 11       		.uleb128 0x11
 4219 0853 01       		.uleb128 0x1
 4220 0854 50       		.byte	0x50
 4221 0855 02       		.uleb128 0x2
 4222 0856 08       		.byte	0x8
 4223 0857 26       		.byte	0x26
 4224 0858 00       		.byte	0
 4225 0859 00       		.byte	0
 4226 085a 0D       		.uleb128 0xd
 4227 085b 97050000 		.4byte	.LASF52
 4228 085f 01       		.byte	0x1
 4229 0860 C6       		.byte	0xc6
 4230 0861 00000000 		.4byte	.LFB76
 4231 0865 20000000 		.4byte	.LFE76-.LFB76
 4232 0869 01       		.uleb128 0x1
 4233 086a 9C       		.byte	0x9c
 4234 086b BB080000 		.4byte	0x8bb
 4235 086f 0E       		.uleb128 0xe
 4236 0870 2A040000 		.4byte	.LASF38
 4237 0874 01       		.byte	0x1
 4238 0875 C6       		.byte	0xc6
 4239 0876 42000000 		.4byte	0x42
 4240 087a 8D030000 		.4byte	.LLST27
 4241 087e 0F       		.uleb128 0xf
 4242 087f 08000000 		.4byte	.LVL93
 4243 0883 30080000 		.4byte	0x830
 4244 0887 10       		.uleb128 0x10
ARM GAS  C:\Users\nikod\AppData\Local\Temp\cc4NWLo4.s 			page 96


 4245 0888 14000000 		.4byte	.LVL94
 4246 088c 8E040000 		.4byte	0x48e
 4247 0890 A1080000 		.4byte	0x8a1
 4248 0894 11       		.uleb128 0x11
 4249 0895 01       		.uleb128 0x1
 4250 0896 50       		.byte	0x50
 4251 0897 02       		.uleb128 0x2
 4252 0898 08       		.byte	0x8
 4253 0899 26       		.byte	0x26
 4254 089a 11       		.uleb128 0x11
 4255 089b 01       		.uleb128 0x1
 4256 089c 51       		.byte	0x51
 4257 089d 02       		.uleb128 0x2
 4258 089e 08       		.byte	0x8
 4259 089f 70       		.byte	0x70
 4260 08a0 00       		.byte	0
 4261 08a1 12       		.uleb128 0x12
 4262 08a2 1E000000 		.4byte	.LVL95
 4263 08a6 27040000 		.4byte	0x427
 4264 08aa 11       		.uleb128 0x11
 4265 08ab 01       		.uleb128 0x1
 4266 08ac 50       		.byte	0x50
 4267 08ad 02       		.uleb128 0x2
 4268 08ae 08       		.byte	0x8
 4269 08af 26       		.byte	0x26
 4270 08b0 11       		.uleb128 0x11
 4271 08b1 01       		.uleb128 0x1
 4272 08b2 51       		.byte	0x51
 4273 08b3 05       		.uleb128 0x5
 4274 08b4 74       		.byte	0x74
 4275 08b5 00       		.sleb128 0
 4276 08b6 08       		.byte	0x8
 4277 08b7 70       		.byte	0x70
 4278 08b8 1A       		.byte	0x1a
 4279 08b9 00       		.byte	0
 4280 08ba 00       		.byte	0
 4281 08bb 15       		.uleb128 0x15
 4282 08bc F3000000 		.4byte	.LASF53
 4283 08c0 01       		.byte	0x1
 4284 08c1 CD       		.byte	0xcd
 4285 08c2 FF070000 		.4byte	0x7ff
 4286 08c6 00000000 		.4byte	.LFB77
 4287 08ca 82000000 		.4byte	.LFE77-.LFB77
 4288 08ce 01       		.uleb128 0x1
 4289 08cf 9C       		.byte	0x9c
 4290 08d0 1D0A0000 		.4byte	0xa1d
 4291 08d4 16       		.uleb128 0x16
 4292 08d5 5B010000 		.4byte	.LASF54
 4293 08d9 01       		.byte	0x1
 4294 08da D2       		.byte	0xd2
 4295 08db 1D0A0000 		.4byte	0xa1d
 4296 08df 02       		.uleb128 0x2
 4297 08e0 91       		.byte	0x91
 4298 08e1 5C       		.sleb128 -36
 4299 08e2 18       		.uleb128 0x18
 4300 08e3 6E00     		.ascii	"n\000"
 4301 08e5 01       		.byte	0x1
ARM GAS  C:\Users\nikod\AppData\Local\Temp\cc4NWLo4.s 			page 97


 4302 08e6 E1       		.byte	0xe1
 4303 08e7 42000000 		.4byte	0x42
 4304 08eb AE030000 		.4byte	.LLST28
 4305 08ef 16       		.uleb128 0x16
 4306 08f0 7D010000 		.4byte	.LASF45
 4307 08f4 01       		.byte	0x1
 4308 08f5 F2       		.byte	0xf2
 4309 08f6 2D0A0000 		.4byte	0xa2d
 4310 08fa 03       		.uleb128 0x3
 4311 08fb 91       		.byte	0x91
 4312 08fc 9C7F     		.sleb128 -100
 4313 08fe 13       		.uleb128 0x13
 4314 08ff 4C000000 		.4byte	.LBB6
 4315 0903 14000000 		.4byte	.LBE6-.LBB6
 4316 0907 28090000 		.4byte	0x928
 4317 090b 18       		.uleb128 0x18
 4318 090c 6900     		.ascii	"i\000"
 4319 090e 01       		.byte	0x1
 4320 090f E2       		.byte	0xe2
 4321 0910 AD000000 		.4byte	0xad
 4322 0914 C1030000 		.4byte	.LLST29
 4323 0918 12       		.uleb128 0x12
 4324 0919 54000000 		.4byte	.LVL104
 4325 091d 95020000 		.4byte	0x295
 4326 0921 11       		.uleb128 0x11
 4327 0922 01       		.uleb128 0x1
 4328 0923 50       		.byte	0x50
 4329 0924 01       		.uleb128 0x1
 4330 0925 3A       		.byte	0x3a
 4331 0926 00       		.byte	0
 4332 0927 00       		.byte	0
 4333 0928 0F       		.uleb128 0xf
 4334 0929 08000000 		.4byte	.LVL96
 4335 092d 39060000 		.4byte	0x639
 4336 0931 10       		.uleb128 0x10
 4337 0932 22000000 		.4byte	.LVL97
 4338 0936 96010000 		.4byte	0x196
 4339 093a 4A090000 		.4byte	0x94a
 4340 093e 11       		.uleb128 0x11
 4341 093f 01       		.uleb128 0x1
 4342 0940 50       		.byte	0x50
 4343 0941 01       		.uleb128 0x1
 4344 0942 3A       		.byte	0x3a
 4345 0943 11       		.uleb128 0x11
 4346 0944 01       		.uleb128 0x1
 4347 0945 51       		.byte	0x51
 4348 0946 02       		.uleb128 0x2
 4349 0947 09       		.byte	0x9
 4350 0948 80       		.byte	0x80
 4351 0949 00       		.byte	0
 4352 094a 10       		.uleb128 0x10
 4353 094b 2C000000 		.4byte	.LVL98
 4354 094f 05020000 		.4byte	0x205
 4355 0953 68090000 		.4byte	0x968
 4356 0957 11       		.uleb128 0x11
 4357 0958 01       		.uleb128 0x1
 4358 0959 50       		.byte	0x50
ARM GAS  C:\Users\nikod\AppData\Local\Temp\cc4NWLo4.s 			page 98


 4359 095a 01       		.uleb128 0x1
 4360 095b 39       		.byte	0x39
 4361 095c 11       		.uleb128 0x11
 4362 095d 01       		.uleb128 0x1
 4363 095e 51       		.byte	0x51
 4364 095f 01       		.uleb128 0x1
 4365 0960 49       		.byte	0x49
 4366 0961 11       		.uleb128 0x11
 4367 0962 01       		.uleb128 0x1
 4368 0963 52       		.byte	0x52
 4369 0964 02       		.uleb128 0x2
 4370 0965 91       		.byte	0x91
 4371 0966 5C       		.sleb128 -36
 4372 0967 00       		.byte	0
 4373 0968 10       		.uleb128 0x10
 4374 0969 34000000 		.4byte	.LVL99
 4375 096d 96010000 		.4byte	0x196
 4376 0971 80090000 		.4byte	0x980
 4377 0975 11       		.uleb128 0x11
 4378 0976 01       		.uleb128 0x1
 4379 0977 50       		.byte	0x50
 4380 0978 01       		.uleb128 0x1
 4381 0979 31       		.byte	0x31
 4382 097a 11       		.uleb128 0x11
 4383 097b 01       		.uleb128 0x1
 4384 097c 51       		.byte	0x51
 4385 097d 01       		.uleb128 0x1
 4386 097e 31       		.byte	0x31
 4387 097f 00       		.byte	0
 4388 0980 10       		.uleb128 0x10
 4389 0981 3C000000 		.4byte	.LVL100
 4390 0985 96010000 		.4byte	0x196
 4391 0989 99090000 		.4byte	0x999
 4392 098d 11       		.uleb128 0x11
 4393 098e 01       		.uleb128 0x1
 4394 098f 50       		.byte	0x50
 4395 0990 02       		.uleb128 0x2
 4396 0991 08       		.byte	0x8
 4397 0992 36       		.byte	0x36
 4398 0993 11       		.uleb128 0x11
 4399 0994 01       		.uleb128 0x1
 4400 0995 51       		.byte	0x51
 4401 0996 01       		.uleb128 0x1
 4402 0997 39       		.byte	0x39
 4403 0998 00       		.byte	0
 4404 0999 10       		.uleb128 0x10
 4405 099a 44000000 		.4byte	.LVL101
 4406 099e 96010000 		.4byte	0x196
 4407 09a2 B2090000 		.4byte	0x9b2
 4408 09a6 11       		.uleb128 0x11
 4409 09a7 01       		.uleb128 0x1
 4410 09a8 50       		.byte	0x50
 4411 09a9 01       		.uleb128 0x1
 4412 09aa 39       		.byte	0x39
 4413 09ab 11       		.uleb128 0x11
 4414 09ac 01       		.uleb128 0x1
 4415 09ad 51       		.byte	0x51
ARM GAS  C:\Users\nikod\AppData\Local\Temp\cc4NWLo4.s 			page 99


 4416 09ae 02       		.uleb128 0x2
 4417 09af 74       		.byte	0x74
 4418 09b0 00       		.sleb128 0
 4419 09b1 00       		.byte	0
 4420 09b2 10       		.uleb128 0x10
 4421 09b3 4C000000 		.4byte	.LVL102
 4422 09b7 96010000 		.4byte	0x196
 4423 09bb CA090000 		.4byte	0x9ca
 4424 09bf 11       		.uleb128 0x11
 4425 09c0 01       		.uleb128 0x1
 4426 09c1 50       		.byte	0x50
 4427 09c2 01       		.uleb128 0x1
 4428 09c3 31       		.byte	0x31
 4429 09c4 11       		.uleb128 0x11
 4430 09c5 01       		.uleb128 0x1
 4431 09c6 51       		.byte	0x51
 4432 09c7 01       		.uleb128 0x1
 4433 09c8 33       		.byte	0x33
 4434 09c9 00       		.byte	0
 4435 09ca 10       		.uleb128 0x10
 4436 09cb 68000000 		.4byte	.LVL107
 4437 09cf 96010000 		.4byte	0x196
 4438 09d3 E2090000 		.4byte	0x9e2
 4439 09d7 11       		.uleb128 0x11
 4440 09d8 01       		.uleb128 0x1
 4441 09d9 50       		.byte	0x50
 4442 09da 01       		.uleb128 0x1
 4443 09db 31       		.byte	0x31
 4444 09dc 11       		.uleb128 0x11
 4445 09dd 01       		.uleb128 0x1
 4446 09de 51       		.byte	0x51
 4447 09df 01       		.uleb128 0x1
 4448 09e0 30       		.byte	0x30
 4449 09e1 00       		.byte	0
 4450 09e2 10       		.uleb128 0x10
 4451 09e3 74000000 		.4byte	.LVL108
 4452 09e7 15030000 		.4byte	0x315
 4453 09eb 070A0000 		.4byte	0xa07
 4454 09ef 11       		.uleb128 0x11
 4455 09f0 01       		.uleb128 0x1
 4456 09f1 50       		.byte	0x50
 4457 09f2 01       		.uleb128 0x1
 4458 09f3 39       		.byte	0x39
 4459 09f4 11       		.uleb128 0x11
 4460 09f5 01       		.uleb128 0x1
 4461 09f6 51       		.byte	0x51
 4462 09f7 02       		.uleb128 0x2
 4463 09f8 08       		.byte	0x8
 4464 09f9 40       		.byte	0x40
 4465 09fa 11       		.uleb128 0x11
 4466 09fb 01       		.uleb128 0x1
 4467 09fc 52       		.byte	0x52
 4468 09fd 03       		.uleb128 0x3
 4469 09fe 91       		.byte	0x91
 4470 09ff 9C7F     		.sleb128 -100
 4471 0a01 11       		.uleb128 0x11
 4472 0a02 01       		.uleb128 0x1
ARM GAS  C:\Users\nikod\AppData\Local\Temp\cc4NWLo4.s 			page 100


 4473 0a03 53       		.byte	0x53
 4474 0a04 01       		.uleb128 0x1
 4475 0a05 30       		.byte	0x30
 4476 0a06 00       		.byte	0
 4477 0a07 12       		.uleb128 0x12
 4478 0a08 7C000000 		.4byte	.LVL109
 4479 0a0c 96010000 		.4byte	0x196
 4480 0a10 11       		.uleb128 0x11
 4481 0a11 01       		.uleb128 0x1
 4482 0a12 50       		.byte	0x50
 4483 0a13 02       		.uleb128 0x2
 4484 0a14 08       		.byte	0x8
 4485 0a15 36       		.byte	0x36
 4486 0a16 11       		.uleb128 0x11
 4487 0a17 01       		.uleb128 0x1
 4488 0a18 51       		.byte	0x51
 4489 0a19 01       		.uleb128 0x1
 4490 0a1a 30       		.byte	0x30
 4491 0a1b 00       		.byte	0
 4492 0a1c 00       		.byte	0
 4493 0a1d 06       		.uleb128 0x6
 4494 0a1e 42000000 		.4byte	0x42
 4495 0a22 2D0A0000 		.4byte	0xa2d
 4496 0a26 07       		.uleb128 0x7
 4497 0a27 11010000 		.4byte	0x111
 4498 0a2b 18       		.byte	0x18
 4499 0a2c 00       		.byte	0
 4500 0a2d 06       		.uleb128 0x6
 4501 0a2e 42000000 		.4byte	0x42
 4502 0a32 3D0A0000 		.4byte	0xa3d
 4503 0a36 07       		.uleb128 0x7
 4504 0a37 11010000 		.4byte	0x111
 4505 0a3b 3F       		.byte	0x3f
 4506 0a3c 00       		.byte	0
 4507 0a3d 1C       		.uleb128 0x1c
 4508 0a3e E4040000 		.4byte	.LASF55
 4509 0a42 01       		.byte	0x1
 4510 0a43 1601     		.2byte	0x116
 4511 0a45 00000000 		.4byte	.LFB78
 4512 0a49 16000000 		.4byte	.LFE78-.LFB78
 4513 0a4d 01       		.uleb128 0x1
 4514 0a4e 9C       		.byte	0x9c
 4515 0a4f 860A0000 		.4byte	0xa86
 4516 0a53 1D       		.uleb128 0x1d
 4517 0a54 76616C00 		.ascii	"val\000"
 4518 0a58 01       		.byte	0x1
 4519 0a59 1701     		.2byte	0x117
 4520 0a5b 42000000 		.4byte	0x42
 4521 0a5f EB030000 		.4byte	.LLST30
 4522 0a63 10       		.uleb128 0x10
 4523 0a64 08000000 		.4byte	.LVL110
 4524 0a68 95020000 		.4byte	0x295
 4525 0a6c 760A0000 		.4byte	0xa76
 4526 0a70 11       		.uleb128 0x11
 4527 0a71 01       		.uleb128 0x1
 4528 0a72 50       		.byte	0x50
 4529 0a73 01       		.uleb128 0x1
ARM GAS  C:\Users\nikod\AppData\Local\Temp\cc4NWLo4.s 			page 101


 4530 0a74 31       		.byte	0x31
 4531 0a75 00       		.byte	0
 4532 0a76 12       		.uleb128 0x12
 4533 0a77 14000000 		.4byte	.LVL112
 4534 0a7b 96010000 		.4byte	0x196
 4535 0a7f 11       		.uleb128 0x11
 4536 0a80 01       		.uleb128 0x1
 4537 0a81 50       		.byte	0x50
 4538 0a82 01       		.uleb128 0x1
 4539 0a83 31       		.byte	0x31
 4540 0a84 00       		.byte	0
 4541 0a85 00       		.byte	0
 4542 0a86 1C       		.uleb128 0x1c
 4543 0a87 F6040000 		.4byte	.LASF56
 4544 0a8b 01       		.byte	0x1
 4545 0a8c 1C01     		.2byte	0x11c
 4546 0a8e 00000000 		.4byte	.LFB79
 4547 0a92 34000000 		.4byte	.LFE79-.LFB79
 4548 0a96 01       		.uleb128 0x1
 4549 0a97 9C       		.byte	0x9c
 4550 0a98 030B0000 		.4byte	0xb03
 4551 0a9c 1D       		.uleb128 0x1d
 4552 0a9d 76616C00 		.ascii	"val\000"
 4553 0aa1 01       		.byte	0x1
 4554 0aa2 1D01     		.2byte	0x11d
 4555 0aa4 42000000 		.4byte	0x42
 4556 0aa8 09040000 		.4byte	.LLST31
 4557 0aac 1D       		.uleb128 0x1d
 4558 0aad 6900     		.ascii	"i\000"
 4559 0aaf 01       		.byte	0x1
 4560 0ab0 2101     		.2byte	0x121
 4561 0ab2 B8000000 		.4byte	0xb8
 4562 0ab6 2C040000 		.4byte	.LLST32
 4563 0aba 10       		.uleb128 0x10
 4564 0abb 08000000 		.4byte	.LVL113
 4565 0abf 95020000 		.4byte	0x295
 4566 0ac3 CD0A0000 		.4byte	0xacd
 4567 0ac7 11       		.uleb128 0x11
 4568 0ac8 01       		.uleb128 0x1
 4569 0ac9 50       		.byte	0x50
 4570 0aca 01       		.uleb128 0x1
 4571 0acb 31       		.byte	0x31
 4572 0acc 00       		.byte	0
 4573 0acd 10       		.uleb128 0x10
 4574 0ace 12000000 		.4byte	.LVL115
 4575 0ad2 96010000 		.4byte	0x196
 4576 0ad6 E00A0000 		.4byte	0xae0
 4577 0ada 11       		.uleb128 0x11
 4578 0adb 01       		.uleb128 0x1
 4579 0adc 50       		.byte	0x50
 4580 0add 01       		.uleb128 0x1
 4581 0ade 31       		.byte	0x31
 4582 0adf 00       		.byte	0
 4583 0ae0 10       		.uleb128 0x10
 4584 0ae1 1C000000 		.4byte	.LVL117
 4585 0ae5 95020000 		.4byte	0x295
 4586 0ae9 F30A0000 		.4byte	0xaf3
ARM GAS  C:\Users\nikod\AppData\Local\Temp\cc4NWLo4.s 			page 102


 4587 0aed 11       		.uleb128 0x11
 4588 0aee 01       		.uleb128 0x1
 4589 0aef 50       		.byte	0x50
 4590 0af0 01       		.uleb128 0x1
 4591 0af1 31       		.byte	0x31
 4592 0af2 00       		.byte	0
 4593 0af3 12       		.uleb128 0x12
 4594 0af4 2C000000 		.4byte	.LVL121
 4595 0af8 291C0000 		.4byte	0x1c29
 4596 0afc 11       		.uleb128 0x11
 4597 0afd 01       		.uleb128 0x1
 4598 0afe 50       		.byte	0x50
 4599 0aff 01       		.uleb128 0x1
 4600 0b00 31       		.byte	0x31
 4601 0b01 00       		.byte	0
 4602 0b02 00       		.byte	0
 4603 0b03 1E       		.uleb128 0x1e
 4604 0b04 7F050000 		.4byte	.LASF57
 4605 0b08 01       		.byte	0x1
 4606 0b09 3801     		.2byte	0x138
 4607 0b0b 42000000 		.4byte	0x42
 4608 0b0f 00000000 		.4byte	.LFB81
 4609 0b13 5E010000 		.4byte	.LFE81-.LFB81
 4610 0b17 01       		.uleb128 0x1
 4611 0b18 9C       		.byte	0x9c
 4612 0b19 790D0000 		.4byte	0xd79
 4613 0b1d 1F       		.uleb128 0x1f
 4614 0b1e 22040000 		.4byte	.LASF58
 4615 0b22 01       		.byte	0x1
 4616 0b23 3801     		.2byte	0x138
 4617 0b25 42000000 		.4byte	0x42
 4618 0b29 56040000 		.4byte	.LLST33
 4619 0b2d 1F       		.uleb128 0x1f
 4620 0b2e B2020000 		.4byte	.LASF59
 4621 0b32 01       		.byte	0x1
 4622 0b33 3901     		.2byte	0x139
 4623 0b35 42000000 		.4byte	0x42
 4624 0b39 77040000 		.4byte	.LLST34
 4625 0b3d 1F       		.uleb128 0x1f
 4626 0b3e 00000000 		.4byte	.LASF60
 4627 0b42 01       		.byte	0x1
 4628 0b43 3A01     		.2byte	0x13a
 4629 0b45 18010000 		.4byte	0x118
 4630 0b49 98040000 		.4byte	.LLST35
 4631 0b4d 1F       		.uleb128 0x1f
 4632 0b4e EC060000 		.4byte	.LASF61
 4633 0b52 01       		.byte	0x1
 4634 0b53 3B01     		.2byte	0x13b
 4635 0b55 42000000 		.4byte	0x42
 4636 0b59 B6040000 		.4byte	.LLST36
 4637 0b5d 20       		.uleb128 0x20
 4638 0b5e 68010000 		.4byte	.LASF62
 4639 0b62 01       		.byte	0x1
 4640 0b63 3C01     		.2byte	0x13c
 4641 0b65 18010000 		.4byte	0x118
 4642 0b69 02       		.uleb128 0x2
 4643 0b6a 91       		.byte	0x91
ARM GAS  C:\Users\nikod\AppData\Local\Temp\cc4NWLo4.s 			page 103


 4644 0b6b 00       		.sleb128 0
 4645 0b6c 20       		.uleb128 0x20
 4646 0b6d 29000000 		.4byte	.LASF63
 4647 0b71 01       		.byte	0x1
 4648 0b72 3D01     		.2byte	0x13d
 4649 0b74 18010000 		.4byte	0x118
 4650 0b78 02       		.uleb128 0x2
 4651 0b79 91       		.byte	0x91
 4652 0b7a 04       		.sleb128 4
 4653 0b7b 20       		.uleb128 0x20
 4654 0b7c 97030000 		.4byte	.LASF64
 4655 0b80 01       		.byte	0x1
 4656 0b81 3E01     		.2byte	0x13e
 4657 0b83 18010000 		.4byte	0x118
 4658 0b87 02       		.uleb128 0x2
 4659 0b88 91       		.byte	0x91
 4660 0b89 08       		.sleb128 8
 4661 0b8a 20       		.uleb128 0x20
 4662 0b8b E6050000 		.4byte	.LASF37
 4663 0b8f 01       		.byte	0x1
 4664 0b90 3F01     		.2byte	0x13f
 4665 0b92 42000000 		.4byte	0x42
 4666 0b96 02       		.uleb128 0x2
 4667 0b97 91       		.byte	0x91
 4668 0b98 0C       		.sleb128 12
 4669 0b99 20       		.uleb128 0x20
 4670 0b9a 34010000 		.4byte	.LASF65
 4671 0b9e 01       		.byte	0x1
 4672 0b9f 4001     		.2byte	0x140
 4673 0ba1 FF070000 		.4byte	0x7ff
 4674 0ba5 02       		.uleb128 0x2
 4675 0ba6 91       		.byte	0x91
 4676 0ba7 10       		.sleb128 16
 4677 0ba8 21       		.uleb128 0x21
 4678 0ba9 17040000 		.4byte	.LASF66
 4679 0bad 01       		.byte	0x1
 4680 0bae 4301     		.2byte	0x143
 4681 0bb0 42000000 		.4byte	0x42
 4682 0bb4 D7040000 		.4byte	.LLST37
 4683 0bb8 21       		.uleb128 0x21
 4684 0bb9 60050000 		.4byte	.LASF67
 4685 0bbd 01       		.byte	0x1
 4686 0bbe 4401     		.2byte	0x144
 4687 0bc0 42000000 		.4byte	0x42
 4688 0bc4 EA040000 		.4byte	.LLST38
 4689 0bc8 1D       		.uleb128 0x1d
 4690 0bc9 6900     		.ascii	"i\000"
 4691 0bcb 01       		.byte	0x1
 4692 0bcc 5401     		.2byte	0x154
 4693 0bce B8000000 		.4byte	0xb8
 4694 0bd2 FD040000 		.4byte	.LLST39
 4695 0bd6 1D       		.uleb128 0x1d
 4696 0bd7 6E00     		.ascii	"n\000"
 4697 0bd9 01       		.byte	0x1
 4698 0bda 5501     		.2byte	0x155
 4699 0bdc 42000000 		.4byte	0x42
 4700 0be0 31050000 		.4byte	.LLST40
ARM GAS  C:\Users\nikod\AppData\Local\Temp\cc4NWLo4.s 			page 104


 4701 0be4 21       		.uleb128 0x21
 4702 0be5 41040000 		.4byte	.LASF68
 4703 0be9 01       		.byte	0x1
 4704 0bea 6501     		.2byte	0x165
 4705 0bec 42000000 		.4byte	0x42
 4706 0bf0 4F050000 		.4byte	.LLST41
 4707 0bf4 21       		.uleb128 0x21
 4708 0bf5 FC010000 		.4byte	.LASF69
 4709 0bf9 01       		.byte	0x1
 4710 0bfa 6A01     		.2byte	0x16a
 4711 0bfc 42000000 		.4byte	0x42
 4712 0c00 83050000 		.4byte	.LLST42
 4713 0c04 22       		.uleb128 0x22
 4714 0c05 00000000 		.4byte	.Ldebug_ranges0+0
 4715 0c09 5E0C0000 		.4byte	0xc5e
 4716 0c0d 1D       		.uleb128 0x1d
 4717 0c0e 6E00     		.ascii	"n\000"
 4718 0c10 01       		.byte	0x1
 4719 0c11 6E01     		.2byte	0x16e
 4720 0c13 42000000 		.4byte	0x42
 4721 0c17 DB050000 		.4byte	.LLST43
 4722 0c1b 10       		.uleb128 0x10
 4723 0c1c A2000000 		.4byte	.LVL144
 4724 0c20 95020000 		.4byte	0x295
 4725 0c24 2E0C0000 		.4byte	0xc2e
 4726 0c28 11       		.uleb128 0x11
 4727 0c29 01       		.uleb128 0x1
 4728 0c2a 50       		.byte	0x50
 4729 0c2b 01       		.uleb128 0x1
 4730 0c2c 3A       		.byte	0x3a
 4731 0c2d 00       		.byte	0
 4732 0c2e 10       		.uleb128 0x10
 4733 0c2f BA000000 		.4byte	.LVL146
 4734 0c33 15030000 		.4byte	0x315
 4735 0c37 4E0C0000 		.4byte	0xc4e
 4736 0c3b 11       		.uleb128 0x11
 4737 0c3c 01       		.uleb128 0x1
 4738 0c3d 50       		.byte	0x50
 4739 0c3e 01       		.uleb128 0x1
 4740 0c3f 39       		.byte	0x39
 4741 0c40 11       		.uleb128 0x11
 4742 0c41 01       		.uleb128 0x1
 4743 0c42 52       		.byte	0x52
 4744 0c43 03       		.uleb128 0x3
 4745 0c44 91       		.byte	0x91
 4746 0c45 00       		.sleb128 0
 4747 0c46 06       		.byte	0x6
 4748 0c47 11       		.uleb128 0x11
 4749 0c48 01       		.uleb128 0x1
 4750 0c49 53       		.byte	0x53
 4751 0c4a 02       		.uleb128 0x2
 4752 0c4b 76       		.byte	0x76
 4753 0c4c 00       		.sleb128 0
 4754 0c4d 00       		.byte	0
 4755 0c4e 12       		.uleb128 0x12
 4756 0c4f C0000000 		.4byte	.LVL147
 4757 0c53 95020000 		.4byte	0x295
ARM GAS  C:\Users\nikod\AppData\Local\Temp\cc4NWLo4.s 			page 105


 4758 0c57 11       		.uleb128 0x11
 4759 0c58 01       		.uleb128 0x1
 4760 0c59 50       		.byte	0x50
 4761 0c5a 01       		.uleb128 0x1
 4762 0c5b 3C       		.byte	0x3c
 4763 0c5c 00       		.byte	0
 4764 0c5d 00       		.byte	0
 4765 0c5e 13       		.uleb128 0x13
 4766 0c5f E8000000 		.4byte	.LBB8
 4767 0c63 5C000000 		.4byte	.LBE8-.LBB8
 4768 0c67 A20C0000 		.4byte	0xca2
 4769 0c6b 23       		.uleb128 0x23
 4770 0c6c 07010000 		.4byte	.LASF70
 4771 0c70 01       		.byte	0x1
 4772 0c71 8A01     		.2byte	0x18a
 4773 0c73 790D0000 		.4byte	0xd79
 4774 0c77 02       		.uleb128 0x2
 4775 0c78 91       		.byte	0x91
 4776 0c79 5C       		.sleb128 -36
 4777 0c7a 21       		.uleb128 0x21
 4778 0c7b 60030000 		.4byte	.LASF71
 4779 0c7f 01       		.byte	0x1
 4780 0c80 8B01     		.2byte	0x18b
 4781 0c82 42000000 		.4byte	0x42
 4782 0c86 06060000 		.4byte	.LLST44
 4783 0c8a 12       		.uleb128 0x12
 4784 0c8b 04010000 		.4byte	.LVL154
 4785 0c8f F5040000 		.4byte	0x4f5
 4786 0c93 11       		.uleb128 0x11
 4787 0c94 01       		.uleb128 0x1
 4788 0c95 50       		.byte	0x50
 4789 0c96 03       		.uleb128 0x3
 4790 0c97 91       		.byte	0x91
 4791 0c98 00       		.sleb128 0
 4792 0c99 06       		.byte	0x6
 4793 0c9a 11       		.uleb128 0x11
 4794 0c9b 01       		.uleb128 0x1
 4795 0c9c 52       		.byte	0x52
 4796 0c9d 02       		.uleb128 0x2
 4797 0c9e 91       		.byte	0x91
 4798 0c9f 5C       		.sleb128 -36
 4799 0ca0 00       		.byte	0
 4800 0ca1 00       		.byte	0
 4801 0ca2 10       		.uleb128 0x10
 4802 0ca3 2C000000 		.4byte	.LVL128
 4803 0ca7 96010000 		.4byte	0x196
 4804 0cab BA0C0000 		.4byte	0xcba
 4805 0caf 11       		.uleb128 0x11
 4806 0cb0 01       		.uleb128 0x1
 4807 0cb1 50       		.byte	0x50
 4808 0cb2 01       		.uleb128 0x1
 4809 0cb3 31       		.byte	0x31
 4810 0cb4 11       		.uleb128 0x11
 4811 0cb5 01       		.uleb128 0x1
 4812 0cb6 51       		.byte	0x51
 4813 0cb7 01       		.uleb128 0x1
 4814 0cb8 30       		.byte	0x30
ARM GAS  C:\Users\nikod\AppData\Local\Temp\cc4NWLo4.s 			page 106


 4815 0cb9 00       		.byte	0
 4816 0cba 10       		.uleb128 0x10
 4817 0cbb 34000000 		.4byte	.LVL129
 4818 0cbf 96010000 		.4byte	0x196
 4819 0cc3 D30C0000 		.4byte	0xcd3
 4820 0cc7 11       		.uleb128 0x11
 4821 0cc8 01       		.uleb128 0x1
 4822 0cc9 50       		.byte	0x50
 4823 0cca 01       		.uleb128 0x1
 4824 0ccb 34       		.byte	0x34
 4825 0ccc 11       		.uleb128 0x11
 4826 0ccd 01       		.uleb128 0x1
 4827 0cce 51       		.byte	0x51
 4828 0ccf 02       		.uleb128 0x2
 4829 0cd0 08       		.byte	0x8
 4830 0cd1 7F       		.byte	0x7f
 4831 0cd2 00       		.byte	0
 4832 0cd3 10       		.uleb128 0x10
 4833 0cd4 3C000000 		.4byte	.LVL130
 4834 0cd8 96010000 		.4byte	0x196
 4835 0cdc EC0C0000 		.4byte	0xcec
 4836 0ce0 11       		.uleb128 0x11
 4837 0ce1 01       		.uleb128 0x1
 4838 0ce2 50       		.byte	0x50
 4839 0ce3 01       		.uleb128 0x1
 4840 0ce4 3A       		.byte	0x3a
 4841 0ce5 11       		.uleb128 0x11
 4842 0ce6 01       		.uleb128 0x1
 4843 0ce7 51       		.byte	0x51
 4844 0ce8 02       		.uleb128 0x2
 4845 0ce9 09       		.byte	0x9
 4846 0cea 80       		.byte	0x80
 4847 0ceb 00       		.byte	0
 4848 0cec 10       		.uleb128 0x10
 4849 0ced 46000000 		.4byte	.LVL131
 4850 0cf1 05020000 		.4byte	0x205
 4851 0cf5 0B0D0000 		.4byte	0xd0b
 4852 0cf9 11       		.uleb128 0x11
 4853 0cfa 01       		.uleb128 0x1
 4854 0cfb 50       		.byte	0x50
 4855 0cfc 01       		.uleb128 0x1
 4856 0cfd 39       		.byte	0x39
 4857 0cfe 11       		.uleb128 0x11
 4858 0cff 01       		.uleb128 0x1
 4859 0d00 51       		.byte	0x51
 4860 0d01 02       		.uleb128 0x2
 4861 0d02 79       		.byte	0x79
 4862 0d03 00       		.sleb128 0
 4863 0d04 11       		.uleb128 0x11
 4864 0d05 01       		.uleb128 0x1
 4865 0d06 52       		.byte	0x52
 4866 0d07 02       		.uleb128 0x2
 4867 0d08 7A       		.byte	0x7a
 4868 0d09 00       		.sleb128 0
 4869 0d0a 00       		.byte	0
 4870 0d0b 10       		.uleb128 0x10
 4871 0d0c 4E000000 		.4byte	.LVL132
ARM GAS  C:\Users\nikod\AppData\Local\Temp\cc4NWLo4.s 			page 107


 4872 0d10 96010000 		.4byte	0x196
 4873 0d14 240D0000 		.4byte	0xd24
 4874 0d18 11       		.uleb128 0x11
 4875 0d19 01       		.uleb128 0x1
 4876 0d1a 50       		.byte	0x50
 4877 0d1b 01       		.uleb128 0x1
 4878 0d1c 3D       		.byte	0x3d
 4879 0d1d 11       		.uleb128 0x11
 4880 0d1e 01       		.uleb128 0x1
 4881 0d1f 51       		.byte	0x51
 4882 0d20 02       		.uleb128 0x2
 4883 0d21 74       		.byte	0x74
 4884 0d22 00       		.sleb128 0
 4885 0d23 00       		.byte	0
 4886 0d24 10       		.uleb128 0x10
 4887 0d25 56000000 		.4byte	.LVL133
 4888 0d29 96010000 		.4byte	0x196
 4889 0d2d 3D0D0000 		.4byte	0xd3d
 4890 0d31 11       		.uleb128 0x11
 4891 0d32 01       		.uleb128 0x1
 4892 0d33 50       		.byte	0x50
 4893 0d34 01       		.uleb128 0x1
 4894 0d35 31       		.byte	0x31
 4895 0d36 11       		.uleb128 0x11
 4896 0d37 01       		.uleb128 0x1
 4897 0d38 51       		.byte	0x51
 4898 0d39 02       		.uleb128 0x2
 4899 0d3a 78       		.byte	0x78
 4900 0d3b 00       		.sleb128 0
 4901 0d3c 00       		.byte	0
 4902 0d3d 10       		.uleb128 0x10
 4903 0d3e 64000000 		.4byte	.LVL134
 4904 0d42 27040000 		.4byte	0x427
 4905 0d46 560D0000 		.4byte	0xd56
 4906 0d4a 11       		.uleb128 0x11
 4907 0d4b 01       		.uleb128 0x1
 4908 0d4c 50       		.byte	0x50
 4909 0d4d 01       		.uleb128 0x1
 4910 0d4e 3D       		.byte	0x3d
 4911 0d4f 11       		.uleb128 0x11
 4912 0d50 01       		.uleb128 0x1
 4913 0d51 51       		.byte	0x51
 4914 0d52 02       		.uleb128 0x2
 4915 0d53 09       		.byte	0x9
 4916 0d54 80       		.byte	0x80
 4917 0d55 00       		.byte	0
 4918 0d56 10       		.uleb128 0x10
 4919 0d57 70000000 		.4byte	.LVL137
 4920 0d5b 95020000 		.4byte	0x295
 4921 0d5f 690D0000 		.4byte	0xd69
 4922 0d63 11       		.uleb128 0x11
 4923 0d64 01       		.uleb128 0x1
 4924 0d65 50       		.byte	0x50
 4925 0d66 01       		.uleb128 0x1
 4926 0d67 34       		.byte	0x34
 4927 0d68 00       		.byte	0
 4928 0d69 12       		.uleb128 0x12
ARM GAS  C:\Users\nikod\AppData\Local\Temp\cc4NWLo4.s 			page 108


 4929 0d6a 8C000000 		.4byte	.LVL140
 4930 0d6e 95020000 		.4byte	0x295
 4931 0d72 11       		.uleb128 0x11
 4932 0d73 01       		.uleb128 0x1
 4933 0d74 50       		.byte	0x50
 4934 0d75 01       		.uleb128 0x1
 4935 0d76 36       		.byte	0x36
 4936 0d77 00       		.byte	0
 4937 0d78 00       		.byte	0
 4938 0d79 06       		.uleb128 0x6
 4939 0d7a 42000000 		.4byte	0x42
 4940 0d7e 890D0000 		.4byte	0xd89
 4941 0d82 07       		.uleb128 0x7
 4942 0d83 11010000 		.4byte	0x111
 4943 0d87 01       		.byte	0x1
 4944 0d88 00       		.byte	0
 4945 0d89 1E       		.uleb128 0x1e
 4946 0d8a 9A040000 		.4byte	.LASF72
 4947 0d8e 01       		.byte	0x1
 4948 0d8f 2C01     		.2byte	0x12c
 4949 0d91 42000000 		.4byte	0x42
 4950 0d95 00000000 		.4byte	.LFB80
 4951 0d99 28000000 		.4byte	.LFE80-.LFB80
 4952 0d9d 01       		.uleb128 0x1
 4953 0d9e 9C       		.byte	0x9c
 4954 0d9f 630E0000 		.4byte	0xe63
 4955 0da3 1F       		.uleb128 0x1f
 4956 0da4 00000000 		.4byte	.LASF60
 4957 0da8 01       		.byte	0x1
 4958 0da9 2C01     		.2byte	0x12c
 4959 0dab 18010000 		.4byte	0x118
 4960 0daf 24060000 		.4byte	.LLST45
 4961 0db3 1F       		.uleb128 0x1f
 4962 0db4 EC060000 		.4byte	.LASF61
 4963 0db8 01       		.byte	0x1
 4964 0db9 2D01     		.2byte	0x12d
 4965 0dbb 42000000 		.4byte	0x42
 4966 0dbf 50060000 		.4byte	.LLST46
 4967 0dc3 1F       		.uleb128 0x1f
 4968 0dc4 68010000 		.4byte	.LASF62
 4969 0dc8 01       		.byte	0x1
 4970 0dc9 2E01     		.2byte	0x12e
 4971 0dcb 18010000 		.4byte	0x118
 4972 0dcf 71060000 		.4byte	.LLST47
 4973 0dd3 1F       		.uleb128 0x1f
 4974 0dd4 29000000 		.4byte	.LASF63
 4975 0dd8 01       		.byte	0x1
 4976 0dd9 2F01     		.2byte	0x12f
 4977 0ddb 18010000 		.4byte	0x118
 4978 0ddf 9E060000 		.4byte	.LLST48
 4979 0de3 20       		.uleb128 0x20
 4980 0de4 97030000 		.4byte	.LASF64
 4981 0de8 01       		.byte	0x1
 4982 0de9 3001     		.2byte	0x130
 4983 0deb 18010000 		.4byte	0x118
 4984 0def 02       		.uleb128 0x2
 4985 0df0 91       		.byte	0x91
ARM GAS  C:\Users\nikod\AppData\Local\Temp\cc4NWLo4.s 			page 109


 4986 0df1 00       		.sleb128 0
 4987 0df2 20       		.uleb128 0x20
 4988 0df3 E6050000 		.4byte	.LASF37
 4989 0df7 01       		.byte	0x1
 4990 0df8 3101     		.2byte	0x131
 4991 0dfa 42000000 		.4byte	0x42
 4992 0dfe 02       		.uleb128 0x2
 4993 0dff 91       		.byte	0x91
 4994 0e00 04       		.sleb128 4
 4995 0e01 20       		.uleb128 0x20
 4996 0e02 34010000 		.4byte	.LASF65
 4997 0e06 01       		.byte	0x1
 4998 0e07 3201     		.2byte	0x132
 4999 0e09 FF070000 		.4byte	0x7ff
 5000 0e0d 02       		.uleb128 0x2
 5001 0e0e 91       		.byte	0x91
 5002 0e0f 08       		.sleb128 8
 5003 0e10 24       		.uleb128 0x24
 5004 0e11 B2020000 		.4byte	.LASF59
 5005 0e15 01       		.byte	0x1
 5006 0e16 3401     		.2byte	0x134
 5007 0e18 42000000 		.4byte	0x42
 5008 0e1c 30       		.byte	0x30
 5009 0e1d 12       		.uleb128 0x12
 5010 0e1e 24000000 		.4byte	.LVL171
 5011 0e22 030B0000 		.4byte	0xb03
 5012 0e26 11       		.uleb128 0x11
 5013 0e27 01       		.uleb128 0x1
 5014 0e28 50       		.byte	0x50
 5015 0e29 01       		.uleb128 0x1
 5016 0e2a 3C       		.byte	0x3c
 5017 0e2b 11       		.uleb128 0x11
 5018 0e2c 01       		.uleb128 0x1
 5019 0e2d 51       		.byte	0x51
 5020 0e2e 02       		.uleb128 0x2
 5021 0e2f 08       		.byte	0x8
 5022 0e30 30       		.byte	0x30
 5023 0e31 11       		.uleb128 0x11
 5024 0e32 01       		.uleb128 0x1
 5025 0e33 52       		.byte	0x52
 5026 0e34 03       		.uleb128 0x3
 5027 0e35 F3       		.byte	0xf3
 5028 0e36 01       		.uleb128 0x1
 5029 0e37 50       		.byte	0x50
 5030 0e38 11       		.uleb128 0x11
 5031 0e39 02       		.uleb128 0x2
 5032 0e3a 7D       		.byte	0x7d
 5033 0e3b 00       		.sleb128 0
 5034 0e3c 03       		.uleb128 0x3
 5035 0e3d F3       		.byte	0xf3
 5036 0e3e 01       		.uleb128 0x1
 5037 0e3f 52       		.byte	0x52
 5038 0e40 11       		.uleb128 0x11
 5039 0e41 02       		.uleb128 0x2
 5040 0e42 7D       		.byte	0x7d
 5041 0e43 04       		.sleb128 4
 5042 0e44 03       		.uleb128 0x3
ARM GAS  C:\Users\nikod\AppData\Local\Temp\cc4NWLo4.s 			page 110


 5043 0e45 F3       		.byte	0xf3
 5044 0e46 01       		.uleb128 0x1
 5045 0e47 53       		.byte	0x53
 5046 0e48 11       		.uleb128 0x11
 5047 0e49 02       		.uleb128 0x2
 5048 0e4a 7D       		.byte	0x7d
 5049 0e4b 08       		.sleb128 8
 5050 0e4c 02       		.uleb128 0x2
 5051 0e4d 74       		.byte	0x74
 5052 0e4e 00       		.sleb128 0
 5053 0e4f 11       		.uleb128 0x11
 5054 0e50 02       		.uleb128 0x2
 5055 0e51 7D       		.byte	0x7d
 5056 0e52 0C       		.sleb128 12
 5057 0e53 04       		.uleb128 0x4
 5058 0e54 91       		.byte	0x91
 5059 0e55 04       		.sleb128 4
 5060 0e56 94       		.byte	0x94
 5061 0e57 01       		.byte	0x1
 5062 0e58 11       		.uleb128 0x11
 5063 0e59 02       		.uleb128 0x2
 5064 0e5a 7D       		.byte	0x7d
 5065 0e5b 10       		.sleb128 16
 5066 0e5c 04       		.uleb128 0x4
 5067 0e5d 91       		.byte	0x91
 5068 0e5e 08       		.sleb128 8
 5069 0e5f 94       		.byte	0x94
 5070 0e60 01       		.byte	0x1
 5071 0e61 00       		.byte	0
 5072 0e62 00       		.byte	0
 5073 0e63 1E       		.uleb128 0x1e
 5074 0e64 BA020000 		.4byte	.LASF73
 5075 0e68 01       		.byte	0x1
 5076 0e69 A401     		.2byte	0x1a4
 5077 0e6b 42000000 		.4byte	0x42
 5078 0e6f 00000000 		.4byte	.LFB84
 5079 0e73 60000000 		.4byte	.LFE84-.LFB84
 5080 0e77 01       		.uleb128 0x1
 5081 0e78 9C       		.byte	0x9c
 5082 0e79 1A0F0000 		.4byte	0xf1a
 5083 0e7d 1F       		.uleb128 0x1f
 5084 0e7e 22040000 		.4byte	.LASF58
 5085 0e82 01       		.byte	0x1
 5086 0e83 A401     		.2byte	0x1a4
 5087 0e85 42000000 		.4byte	0x42
 5088 0e89 CB060000 		.4byte	.LLST49
 5089 0e8d 1F       		.uleb128 0x1f
 5090 0e8e 36040000 		.4byte	.LASF74
 5091 0e92 01       		.byte	0x1
 5092 0e93 A501     		.2byte	0x1a5
 5093 0e95 18010000 		.4byte	0x118
 5094 0e99 30070000 		.4byte	.LLST50
 5095 0e9d 1F       		.uleb128 0x1f
 5096 0e9e 5F000000 		.4byte	.LASF75
 5097 0ea2 01       		.byte	0x1
 5098 0ea3 A601     		.2byte	0x1a6
 5099 0ea5 18010000 		.4byte	0x118
ARM GAS  C:\Users\nikod\AppData\Local\Temp\cc4NWLo4.s 			page 111


 5100 0ea9 88070000 		.4byte	.LLST51
 5101 0ead 23       		.uleb128 0x23
 5102 0eae 97030000 		.4byte	.LASF64
 5103 0eb2 01       		.byte	0x1
 5104 0eb3 A801     		.2byte	0x1a8
 5105 0eb5 42000000 		.4byte	0x42
 5106 0eb9 02       		.uleb128 0x2
 5107 0eba 91       		.byte	0x91
 5108 0ebb 6F       		.sleb128 -17
 5109 0ebc 21       		.uleb128 0x21
 5110 0ebd 60030000 		.4byte	.LASF71
 5111 0ec1 01       		.byte	0x1
 5112 0ec2 A901     		.2byte	0x1a9
 5113 0ec4 42000000 		.4byte	0x42
 5114 0ec8 CA070000 		.4byte	.LLST52
 5115 0ecc 10       		.uleb128 0x10
 5116 0ecd 1E000000 		.4byte	.LVL175
 5117 0ed1 8E040000 		.4byte	0x48e
 5118 0ed5 E50E0000 		.4byte	0xee5
 5119 0ed9 11       		.uleb128 0x11
 5120 0eda 01       		.uleb128 0x1
 5121 0edb 50       		.byte	0x50
 5122 0edc 01       		.uleb128 0x1
 5123 0edd 3E       		.byte	0x3e
 5124 0ede 11       		.uleb128 0x11
 5125 0edf 01       		.uleb128 0x1
 5126 0ee0 51       		.byte	0x51
 5127 0ee1 02       		.uleb128 0x2
 5128 0ee2 09       		.byte	0x9
 5129 0ee3 80       		.byte	0x80
 5130 0ee4 00       		.byte	0
 5131 0ee5 12       		.uleb128 0x12
 5132 0ee6 3E000000 		.4byte	.LVL177
 5133 0eea 890D0000 		.4byte	0xd89
 5134 0eee 11       		.uleb128 0x11
 5135 0eef 01       		.uleb128 0x1
 5136 0ef0 50       		.byte	0x50
 5137 0ef1 02       		.uleb128 0x2
 5138 0ef2 91       		.byte	0x91
 5139 0ef3 67       		.sleb128 -25
 5140 0ef4 11       		.uleb128 0x11
 5141 0ef5 01       		.uleb128 0x1
 5142 0ef6 51       		.byte	0x51
 5143 0ef7 01       		.uleb128 0x1
 5144 0ef8 31       		.byte	0x31
 5145 0ef9 11       		.uleb128 0x11
 5146 0efa 01       		.uleb128 0x1
 5147 0efb 52       		.byte	0x52
 5148 0efc 02       		.uleb128 0x2
 5149 0efd 75       		.byte	0x75
 5150 0efe 00       		.sleb128 0
 5151 0eff 11       		.uleb128 0x11
 5152 0f00 01       		.uleb128 0x1
 5153 0f01 53       		.byte	0x53
 5154 0f02 02       		.uleb128 0x2
 5155 0f03 74       		.byte	0x74
 5156 0f04 00       		.sleb128 0
ARM GAS  C:\Users\nikod\AppData\Local\Temp\cc4NWLo4.s 			page 112


 5157 0f05 11       		.uleb128 0x11
 5158 0f06 02       		.uleb128 0x2
 5159 0f07 7D       		.byte	0x7d
 5160 0f08 00       		.sleb128 0
 5161 0f09 02       		.uleb128 0x2
 5162 0f0a 91       		.byte	0x91
 5163 0f0b 6F       		.sleb128 -17
 5164 0f0c 11       		.uleb128 0x11
 5165 0f0d 02       		.uleb128 0x2
 5166 0f0e 7D       		.byte	0x7d
 5167 0f0f 04       		.sleb128 4
 5168 0f10 01       		.uleb128 0x1
 5169 0f11 30       		.byte	0x30
 5170 0f12 11       		.uleb128 0x11
 5171 0f13 02       		.uleb128 0x2
 5172 0f14 7D       		.byte	0x7d
 5173 0f15 08       		.sleb128 8
 5174 0f16 01       		.uleb128 0x1
 5175 0f17 30       		.byte	0x30
 5176 0f18 00       		.byte	0
 5177 0f19 00       		.byte	0
 5178 0f1a 1E       		.uleb128 0x1e
 5179 0f1b 78030000 		.4byte	.LASF76
 5180 0f1f 01       		.byte	0x1
 5181 0f20 9801     		.2byte	0x198
 5182 0f22 42000000 		.4byte	0x42
 5183 0f26 00000000 		.4byte	.LFB82
 5184 0f2a 0E000000 		.4byte	.LFE82-.LFB82
 5185 0f2e 01       		.uleb128 0x1
 5186 0f2f 9C       		.byte	0x9c
 5187 0f30 730F0000 		.4byte	0xf73
 5188 0f34 1F       		.uleb128 0x1f
 5189 0f35 36040000 		.4byte	.LASF74
 5190 0f39 01       		.byte	0x1
 5191 0f3a 9801     		.2byte	0x198
 5192 0f3c 18010000 		.4byte	0x118
 5193 0f40 E8070000 		.4byte	.LLST53
 5194 0f44 1F       		.uleb128 0x1f
 5195 0f45 5F000000 		.4byte	.LASF75
 5196 0f49 01       		.byte	0x1
 5197 0f4a 9901     		.2byte	0x199
 5198 0f4c 18010000 		.4byte	0x118
 5199 0f50 14080000 		.4byte	.LLST54
 5200 0f54 12       		.uleb128 0x12
 5201 0f55 0C000000 		.4byte	.LVL188
 5202 0f59 630E0000 		.4byte	0xe63
 5203 0f5d 11       		.uleb128 0x11
 5204 0f5e 01       		.uleb128 0x1
 5205 0f5f 50       		.byte	0x50
 5206 0f60 02       		.uleb128 0x2
 5207 0f61 08       		.byte	0x8
 5208 0f62 26       		.byte	0x26
 5209 0f63 11       		.uleb128 0x11
 5210 0f64 01       		.uleb128 0x1
 5211 0f65 51       		.byte	0x51
 5212 0f66 03       		.uleb128 0x3
 5213 0f67 F3       		.byte	0xf3
ARM GAS  C:\Users\nikod\AppData\Local\Temp\cc4NWLo4.s 			page 113


 5214 0f68 01       		.uleb128 0x1
 5215 0f69 50       		.byte	0x50
 5216 0f6a 11       		.uleb128 0x11
 5217 0f6b 01       		.uleb128 0x1
 5218 0f6c 52       		.byte	0x52
 5219 0f6d 03       		.uleb128 0x3
 5220 0f6e F3       		.byte	0xf3
 5221 0f6f 01       		.uleb128 0x1
 5222 0f70 51       		.byte	0x51
 5223 0f71 00       		.byte	0
 5224 0f72 00       		.byte	0
 5225 0f73 1E       		.uleb128 0x1e
 5226 0f74 0D020000 		.4byte	.LASF77
 5227 0f78 01       		.byte	0x1
 5228 0f79 9E01     		.2byte	0x19e
 5229 0f7b 42000000 		.4byte	0x42
 5230 0f7f 00000000 		.4byte	.LFB83
 5231 0f83 0E000000 		.4byte	.LFE83-.LFB83
 5232 0f87 01       		.uleb128 0x1
 5233 0f88 9C       		.byte	0x9c
 5234 0f89 CC0F0000 		.4byte	0xfcc
 5235 0f8d 1F       		.uleb128 0x1f
 5236 0f8e 36040000 		.4byte	.LASF74
 5237 0f92 01       		.byte	0x1
 5238 0f93 9E01     		.2byte	0x19e
 5239 0f95 18010000 		.4byte	0x118
 5240 0f99 40080000 		.4byte	.LLST55
 5241 0f9d 1F       		.uleb128 0x1f
 5242 0f9e 5F000000 		.4byte	.LASF75
 5243 0fa2 01       		.byte	0x1
 5244 0fa3 9F01     		.2byte	0x19f
 5245 0fa5 18010000 		.4byte	0x118
 5246 0fa9 6C080000 		.4byte	.LLST56
 5247 0fad 12       		.uleb128 0x12
 5248 0fae 0C000000 		.4byte	.LVL192
 5249 0fb2 630E0000 		.4byte	0xe63
 5250 0fb6 11       		.uleb128 0x11
 5251 0fb7 01       		.uleb128 0x1
 5252 0fb8 50       		.byte	0x50
 5253 0fb9 02       		.uleb128 0x2
 5254 0fba 08       		.byte	0x8
 5255 0fbb 52       		.byte	0x52
 5256 0fbc 11       		.uleb128 0x11
 5257 0fbd 01       		.uleb128 0x1
 5258 0fbe 51       		.byte	0x51
 5259 0fbf 03       		.uleb128 0x3
 5260 0fc0 F3       		.byte	0xf3
 5261 0fc1 01       		.uleb128 0x1
 5262 0fc2 50       		.byte	0x50
 5263 0fc3 11       		.uleb128 0x11
 5264 0fc4 01       		.uleb128 0x1
 5265 0fc5 52       		.byte	0x52
 5266 0fc6 03       		.uleb128 0x3
 5267 0fc7 F3       		.byte	0xf3
 5268 0fc8 01       		.uleb128 0x1
 5269 0fc9 51       		.byte	0x51
 5270 0fca 00       		.byte	0
ARM GAS  C:\Users\nikod\AppData\Local\Temp\cc4NWLo4.s 			page 114


 5271 0fcb 00       		.byte	0
 5272 0fcc 1E       		.uleb128 0x1e
 5273 0fcd FE050000 		.4byte	.LASF78
 5274 0fd1 01       		.byte	0x1
 5275 0fd2 BC01     		.2byte	0x1bc
 5276 0fd4 42000000 		.4byte	0x42
 5277 0fd8 00000000 		.4byte	.LFB85
 5278 0fdc FC020000 		.4byte	.LFE85-.LFB85
 5279 0fe0 01       		.uleb128 0x1
 5280 0fe1 9C       		.byte	0x9c
 5281 0fe2 18120000 		.4byte	0x1218
 5282 0fe6 25       		.uleb128 0x25
 5283 0fe7 75696400 		.ascii	"uid\000"
 5284 0feb 01       		.byte	0x1
 5285 0fec BC01     		.2byte	0x1bc
 5286 0fee 18120000 		.4byte	0x1218
 5287 0ff2 98080000 		.4byte	.LLST57
 5288 0ff6 1F       		.uleb128 0x1f
 5289 0ff7 97030000 		.4byte	.LASF64
 5290 0ffb 01       		.byte	0x1
 5291 0ffc BD01     		.2byte	0x1bd
 5292 0ffe 42000000 		.4byte	0x42
 5293 1002 E8080000 		.4byte	.LLST58
 5294 1006 21       		.uleb128 0x21
 5295 1007 E5020000 		.4byte	.LASF79
 5296 100b 01       		.byte	0x1
 5297 100c BF01     		.2byte	0x1bf
 5298 100e FF070000 		.4byte	0x7ff
 5299 1012 22090000 		.4byte	.LLST59
 5300 1016 21       		.uleb128 0x21
 5301 1017 91000000 		.4byte	.LASF80
 5302 101b 01       		.byte	0x1
 5303 101c C001     		.2byte	0x1c0
 5304 101e FF070000 		.4byte	0x7ff
 5305 1022 72090000 		.4byte	.LLST60
 5306 1026 21       		.uleb128 0x21
 5307 1027 6D040000 		.4byte	.LASF81
 5308 102b 01       		.byte	0x1
 5309 102c C101     		.2byte	0x1c1
 5310 102e FF070000 		.4byte	0x7ff
 5311 1032 9B090000 		.4byte	.LLST61
 5312 1036 21       		.uleb128 0x21
 5313 1037 4E010000 		.4byte	.LASF82
 5314 103b 01       		.byte	0x1
 5315 103c C201     		.2byte	0x1c2
 5316 103e 42000000 		.4byte	0x42
 5317 1042 D0090000 		.4byte	.LLST62
 5318 1046 21       		.uleb128 0x21
 5319 1047 7D010000 		.4byte	.LASF45
 5320 104b 01       		.byte	0x1
 5321 104c C301     		.2byte	0x1c3
 5322 104e 42000000 		.4byte	0x42
 5323 1052 110A0000 		.4byte	.LLST63
 5324 1056 21       		.uleb128 0x21
 5325 1057 71010000 		.4byte	.LASF33
 5326 105b 01       		.byte	0x1
 5327 105c C401     		.2byte	0x1c4
ARM GAS  C:\Users\nikod\AppData\Local\Temp\cc4NWLo4.s 			page 115


 5328 105e 42000000 		.4byte	0x42
 5329 1062 660A0000 		.4byte	.LLST64
 5330 1066 21       		.uleb128 0x21
 5331 1067 09000000 		.4byte	.LASF83
 5332 106b 01       		.byte	0x1
 5333 106c C501     		.2byte	0x1c5
 5334 106e 42000000 		.4byte	0x42
 5335 1072 020B0000 		.4byte	.LLST65
 5336 1076 21       		.uleb128 0x21
 5337 1077 77010000 		.4byte	.LASF35
 5338 107b 01       		.byte	0x1
 5339 107c C601     		.2byte	0x1c6
 5340 107e 42000000 		.4byte	0x42
 5341 1082 150B0000 		.4byte	.LLST66
 5342 1086 21       		.uleb128 0x21
 5343 1087 B6000000 		.4byte	.LASF84
 5344 108b 01       		.byte	0x1
 5345 108c C701     		.2byte	0x1c7
 5346 108e 42000000 		.4byte	0x42
 5347 1092 A40B0000 		.4byte	.LLST67
 5348 1096 21       		.uleb128 0x21
 5349 1097 88060000 		.4byte	.LASF85
 5350 109b 01       		.byte	0x1
 5351 109c C801     		.2byte	0x1c8
 5352 109e A2000000 		.4byte	0xa2
 5353 10a2 E60B0000 		.4byte	.LLST68
 5354 10a6 23       		.uleb128 0x23
 5355 10a7 AF000000 		.4byte	.LASF86
 5356 10ab 01       		.byte	0x1
 5357 10ac C901     		.2byte	0x1c9
 5358 10ae 1E120000 		.4byte	0x121e
 5359 10b2 02       		.uleb128 0x2
 5360 10b3 91       		.byte	0x91
 5361 10b4 4C       		.sleb128 -52
 5362 10b5 21       		.uleb128 0x21
 5363 10b6 30050000 		.4byte	.LASF87
 5364 10ba 01       		.byte	0x1
 5365 10bb CA01     		.2byte	0x1ca
 5366 10bd 42000000 		.4byte	0x42
 5367 10c1 1A0C0000 		.4byte	.LLST69
 5368 10c5 21       		.uleb128 0x21
 5369 10c6 E6050000 		.4byte	.LASF37
 5370 10ca 01       		.byte	0x1
 5371 10cb CB01     		.2byte	0x1cb
 5372 10cd 42000000 		.4byte	0x42
 5373 10d1 440C0000 		.4byte	.LLST70
 5374 10d5 23       		.uleb128 0x23
 5375 10d6 17040000 		.4byte	.LASF66
 5376 10da 01       		.byte	0x1
 5377 10db CC01     		.2byte	0x1cc
 5378 10dd 42000000 		.4byte	0x42
 5379 10e1 02       		.uleb128 0x2
 5380 10e2 91       		.byte	0x91
 5381 10e3 4B       		.sleb128 -53
 5382 10e4 21       		.uleb128 0x21
 5383 10e5 11030000 		.4byte	.LASF88
 5384 10e9 01       		.byte	0x1
ARM GAS  C:\Users\nikod\AppData\Local\Temp\cc4NWLo4.s 			page 116


 5385 10ea CD01     		.2byte	0x1cd
 5386 10ec 18010000 		.4byte	0x118
 5387 10f0 620C0000 		.4byte	.LLST71
 5388 10f4 23       		.uleb128 0x23
 5389 10f5 50000000 		.4byte	.LASF89
 5390 10f9 01       		.byte	0x1
 5391 10fa CE01     		.2byte	0x1ce
 5392 10fc 42000000 		.4byte	0x42
 5393 1100 02       		.uleb128 0x2
 5394 1101 91       		.byte	0x91
 5395 1102 4A       		.sleb128 -54
 5396 1103 22       		.uleb128 0x22
 5397 1104 18000000 		.4byte	.Ldebug_ranges0+0x18
 5398 1108 02120000 		.4byte	0x1202
 5399 110c 21       		.uleb128 0x21
 5400 110d 50060000 		.4byte	.LASF90
 5401 1111 01       		.byte	0x1
 5402 1112 1402     		.2byte	0x214
 5403 1114 42000000 		.4byte	0x42
 5404 1118 980C0000 		.4byte	.LLST72
 5405 111c 22       		.uleb128 0x22
 5406 111d 30000000 		.4byte	.Ldebug_ranges0+0x30
 5407 1121 36110000 		.4byte	0x1136
 5408 1125 21       		.uleb128 0x21
 5409 1126 D2020000 		.4byte	.LASF91
 5410 112a 01       		.byte	0x1
 5411 112b 1602     		.2byte	0x216
 5412 112d 42000000 		.4byte	0x42
 5413 1131 EC0C0000 		.4byte	.LLST73
 5414 1135 00       		.byte	0
 5415 1136 22       		.uleb128 0x22
 5416 1137 48000000 		.4byte	.Ldebug_ranges0+0x48
 5417 113b 6F110000 		.4byte	0x116f
 5418 113f 21       		.uleb128 0x21
 5419 1140 12000000 		.4byte	.LASF92
 5420 1144 01       		.byte	0x1
 5421 1145 4A02     		.2byte	0x24a
 5422 1147 42000000 		.4byte	0x42
 5423 114b FF0C0000 		.4byte	.LLST74
 5424 114f 21       		.uleb128 0x21
 5425 1150 F4060000 		.4byte	.LASF93
 5426 1154 01       		.byte	0x1
 5427 1155 4E02     		.2byte	0x24e
 5428 1157 42000000 		.4byte	0x42
 5429 115b 1D0D0000 		.4byte	.LLST75
 5430 115f 12       		.uleb128 0x12
 5431 1160 BE010000 		.4byte	.LVL239
 5432 1164 95020000 		.4byte	0x295
 5433 1168 11       		.uleb128 0x11
 5434 1169 01       		.uleb128 0x1
 5435 116a 50       		.byte	0x50
 5436 116b 01       		.uleb128 0x1
 5437 116c 3E       		.byte	0x3e
 5438 116d 00       		.byte	0
 5439 116e 00       		.byte	0
 5440 116f 10       		.uleb128 0x10
 5441 1170 2E010000 		.4byte	.LVL224
ARM GAS  C:\Users\nikod\AppData\Local\Temp\cc4NWLo4.s 			page 117


 5442 1174 F5040000 		.4byte	0x4f5
 5443 1178 8E110000 		.4byte	0x118e
 5444 117c 11       		.uleb128 0x11
 5445 117d 01       		.uleb128 0x1
 5446 117e 50       		.byte	0x50
 5447 117f 02       		.uleb128 0x2
 5448 1180 91       		.byte	0x91
 5449 1181 4C       		.sleb128 -52
 5450 1182 11       		.uleb128 0x11
 5451 1183 01       		.uleb128 0x1
 5452 1184 51       		.byte	0x51
 5453 1185 01       		.uleb128 0x1
 5454 1186 37       		.byte	0x37
 5455 1187 11       		.uleb128 0x11
 5456 1188 01       		.uleb128 0x1
 5457 1189 52       		.byte	0x52
 5458 118a 02       		.uleb128 0x2
 5459 118b 91       		.byte	0x91
 5460 118c 53       		.sleb128 -45
 5461 118d 00       		.byte	0
 5462 118e 10       		.uleb128 0x10
 5463 118f 9A010000 		.4byte	.LVL236
 5464 1193 96010000 		.4byte	0x196
 5465 1197 AC110000 		.4byte	0x11ac
 5466 119b 11       		.uleb128 0x11
 5467 119c 01       		.uleb128 0x1
 5468 119d 50       		.byte	0x50
 5469 119e 01       		.uleb128 0x1
 5470 119f 3D       		.byte	0x3d
 5471 11a0 11       		.uleb128 0x11
 5472 11a1 01       		.uleb128 0x1
 5473 11a2 51       		.byte	0x51
 5474 11a3 07       		.uleb128 0x7
 5475 11a4 76       		.byte	0x76
 5476 11a5 00       		.sleb128 0
 5477 11a6 34       		.byte	0x34
 5478 11a7 24       		.byte	0x24
 5479 11a8 76       		.byte	0x76
 5480 11a9 00       		.sleb128 0
 5481 11aa 22       		.byte	0x22
 5482 11ab 00       		.byte	0
 5483 11ac 10       		.uleb128 0x10
 5484 11ad B4010000 		.4byte	.LVL237
 5485 11b1 890D0000 		.4byte	0xd89
 5486 11b5 E6110000 		.4byte	0x11e6
 5487 11b9 11       		.uleb128 0x11
 5488 11ba 01       		.uleb128 0x1
 5489 11bb 50       		.byte	0x50
 5490 11bc 02       		.uleb128 0x2
 5491 11bd 91       		.byte	0x91
 5492 11be 4C       		.sleb128 -52
 5493 11bf 11       		.uleb128 0x11
 5494 11c0 01       		.uleb128 0x1
 5495 11c1 51       		.byte	0x51
 5496 11c2 02       		.uleb128 0x2
 5497 11c3 74       		.byte	0x74
 5498 11c4 00       		.sleb128 0
ARM GAS  C:\Users\nikod\AppData\Local\Temp\cc4NWLo4.s 			page 118


 5499 11c5 11       		.uleb128 0x11
 5500 11c6 01       		.uleb128 0x1
 5501 11c7 52       		.byte	0x52
 5502 11c8 02       		.uleb128 0x2
 5503 11c9 77       		.byte	0x77
 5504 11ca 00       		.sleb128 0
 5505 11cb 11       		.uleb128 0x11
 5506 11cc 01       		.uleb128 0x1
 5507 11cd 53       		.byte	0x53
 5508 11ce 02       		.uleb128 0x2
 5509 11cf 91       		.byte	0x91
 5510 11d0 4A       		.sleb128 -54
 5511 11d1 11       		.uleb128 0x11
 5512 11d2 02       		.uleb128 0x2
 5513 11d3 7D       		.byte	0x7d
 5514 11d4 00       		.sleb128 0
 5515 11d5 02       		.uleb128 0x2
 5516 11d6 91       		.byte	0x91
 5517 11d7 4B       		.sleb128 -53
 5518 11d8 11       		.uleb128 0x11
 5519 11d9 02       		.uleb128 0x2
 5520 11da 7D       		.byte	0x7d
 5521 11db 04       		.sleb128 4
 5522 11dc 02       		.uleb128 0x2
 5523 11dd 76       		.byte	0x76
 5524 11de 00       		.sleb128 0
 5525 11df 11       		.uleb128 0x11
 5526 11e0 02       		.uleb128 0x2
 5527 11e1 7D       		.byte	0x7d
 5528 11e2 08       		.sleb128 8
 5529 11e3 01       		.uleb128 0x1
 5530 11e4 30       		.byte	0x30
 5531 11e5 00       		.byte	0
 5532 11e6 12       		.uleb128 0x12
 5533 11e7 86020000 		.4byte	.LVL265
 5534 11eb F5040000 		.4byte	0x4f5
 5535 11ef 11       		.uleb128 0x11
 5536 11f0 01       		.uleb128 0x1
 5537 11f1 50       		.byte	0x50
 5538 11f2 02       		.uleb128 0x2
 5539 11f3 77       		.byte	0x77
 5540 11f4 00       		.sleb128 0
 5541 11f5 11       		.uleb128 0x11
 5542 11f6 01       		.uleb128 0x1
 5543 11f7 51       		.byte	0x51
 5544 11f8 01       		.uleb128 0x1
 5545 11f9 31       		.byte	0x31
 5546 11fa 11       		.uleb128 0x11
 5547 11fb 01       		.uleb128 0x1
 5548 11fc 52       		.byte	0x52
 5549 11fd 02       		.uleb128 0x2
 5550 11fe 91       		.byte	0x91
 5551 11ff 4E       		.sleb128 -50
 5552 1200 00       		.byte	0
 5553 1201 00       		.byte	0
 5554 1202 12       		.uleb128 0x12
 5555 1203 18000000 		.4byte	.LVL196
ARM GAS  C:\Users\nikod\AppData\Local\Temp\cc4NWLo4.s 			page 119


 5556 1207 8E040000 		.4byte	0x48e
 5557 120b 11       		.uleb128 0x11
 5558 120c 01       		.uleb128 0x1
 5559 120d 50       		.byte	0x50
 5560 120e 01       		.uleb128 0x1
 5561 120f 3E       		.byte	0x3e
 5562 1210 11       		.uleb128 0x11
 5563 1211 01       		.uleb128 0x1
 5564 1212 51       		.byte	0x51
 5565 1213 02       		.uleb128 0x2
 5566 1214 09       		.byte	0x9
 5567 1215 80       		.byte	0x80
 5568 1216 00       		.byte	0
 5569 1217 00       		.byte	0
 5570 1218 08       		.uleb128 0x8
 5571 1219 04       		.byte	0x4
 5572 121a 5B010000 		.4byte	0x15b
 5573 121e 06       		.uleb128 0x6
 5574 121f 42000000 		.4byte	0x42
 5575 1223 2E120000 		.4byte	0x122e
 5576 1227 07       		.uleb128 0x7
 5577 1228 11010000 		.4byte	0x111
 5578 122c 08       		.byte	0x8
 5579 122d 00       		.byte	0
 5580 122e 1E       		.uleb128 0x1e
 5581 122f AA050000 		.4byte	.LASF94
 5582 1233 01       		.byte	0x1
 5583 1234 9002     		.2byte	0x290
 5584 1236 42000000 		.4byte	0x42
 5585 123a 00000000 		.4byte	.LFB86
 5586 123e 44000000 		.4byte	.LFE86-.LFB86
 5587 1242 01       		.uleb128 0x1
 5588 1243 9C       		.byte	0x9c
 5589 1244 B8120000 		.4byte	0x12b8
 5590 1248 21       		.uleb128 0x21
 5591 1249 7D010000 		.4byte	.LASF45
 5592 124d 01       		.byte	0x1
 5593 124e 9102     		.2byte	0x291
 5594 1250 42000000 		.4byte	0x42
 5595 1254 4A0D0000 		.4byte	.LLST76
 5596 1258 23       		.uleb128 0x23
 5597 1259 AF000000 		.4byte	.LASF86
 5598 125d 01       		.byte	0x1
 5599 125e 9202     		.2byte	0x292
 5600 1260 01010000 		.4byte	0x101
 5601 1264 02       		.uleb128 0x2
 5602 1265 91       		.byte	0x91
 5603 1266 74       		.sleb128 -12
 5604 1267 10       		.uleb128 0x10
 5605 1268 1C000000 		.4byte	.LVL285
 5606 126c F5040000 		.4byte	0x4f5
 5607 1270 86120000 		.4byte	0x1286
 5608 1274 11       		.uleb128 0x11
 5609 1275 01       		.uleb128 0x1
 5610 1276 50       		.byte	0x50
 5611 1277 02       		.uleb128 0x2
 5612 1278 91       		.byte	0x91
ARM GAS  C:\Users\nikod\AppData\Local\Temp\cc4NWLo4.s 			page 120


 5613 1279 74       		.sleb128 -12
 5614 127a 11       		.uleb128 0x11
 5615 127b 01       		.uleb128 0x1
 5616 127c 51       		.byte	0x51
 5617 127d 01       		.uleb128 0x1
 5618 127e 32       		.byte	0x32
 5619 127f 11       		.uleb128 0x11
 5620 1280 01       		.uleb128 0x1
 5621 1281 52       		.byte	0x52
 5622 1282 02       		.uleb128 0x2
 5623 1283 91       		.byte	0x91
 5624 1284 76       		.sleb128 -10
 5625 1285 00       		.byte	0
 5626 1286 12       		.uleb128 0x12
 5627 1287 30000000 		.4byte	.LVL287
 5628 128b 890D0000 		.4byte	0xd89
 5629 128f 11       		.uleb128 0x11
 5630 1290 01       		.uleb128 0x1
 5631 1291 50       		.byte	0x50
 5632 1292 02       		.uleb128 0x2
 5633 1293 91       		.byte	0x91
 5634 1294 74       		.sleb128 -12
 5635 1295 11       		.uleb128 0x11
 5636 1296 01       		.uleb128 0x1
 5637 1297 51       		.byte	0x51
 5638 1298 01       		.uleb128 0x1
 5639 1299 34       		.byte	0x34
 5640 129a 11       		.uleb128 0x11
 5641 129b 01       		.uleb128 0x1
 5642 129c 52       		.byte	0x52
 5643 129d 01       		.uleb128 0x1
 5644 129e 30       		.byte	0x30
 5645 129f 11       		.uleb128 0x11
 5646 12a0 01       		.uleb128 0x1
 5647 12a1 53       		.byte	0x53
 5648 12a2 01       		.uleb128 0x1
 5649 12a3 30       		.byte	0x30
 5650 12a4 11       		.uleb128 0x11
 5651 12a5 02       		.uleb128 0x2
 5652 12a6 7D       		.byte	0x7d
 5653 12a7 00       		.sleb128 0
 5654 12a8 01       		.uleb128 0x1
 5655 12a9 30       		.byte	0x30
 5656 12aa 11       		.uleb128 0x11
 5657 12ab 02       		.uleb128 0x2
 5658 12ac 7D       		.byte	0x7d
 5659 12ad 04       		.sleb128 4
 5660 12ae 01       		.uleb128 0x1
 5661 12af 30       		.byte	0x30
 5662 12b0 11       		.uleb128 0x11
 5663 12b1 02       		.uleb128 0x2
 5664 12b2 7D       		.byte	0x7d
 5665 12b3 08       		.sleb128 8
 5666 12b4 01       		.uleb128 0x1
 5667 12b5 30       		.byte	0x30
 5668 12b6 00       		.byte	0
 5669 12b7 00       		.byte	0
ARM GAS  C:\Users\nikod\AppData\Local\Temp\cc4NWLo4.s 			page 121


 5670 12b8 1E       		.uleb128 0x1e
 5671 12b9 86030000 		.4byte	.LASF95
 5672 12bd 01       		.byte	0x1
 5673 12be AC02     		.2byte	0x2ac
 5674 12c0 42000000 		.4byte	0x42
 5675 12c4 00000000 		.4byte	.LFB87
 5676 12c8 64000000 		.4byte	.LFE87-.LFB87
 5677 12cc 01       		.uleb128 0x1
 5678 12cd 9C       		.byte	0x9c
 5679 12ce A4130000 		.4byte	0x13a4
 5680 12d2 1F       		.uleb128 0x1f
 5681 12d3 22040000 		.4byte	.LASF58
 5682 12d7 01       		.byte	0x1
 5683 12d8 AC02     		.2byte	0x2ac
 5684 12da 42000000 		.4byte	0x42
 5685 12de 730D0000 		.4byte	.LLST77
 5686 12e2 1F       		.uleb128 0x1f
 5687 12e3 3B050000 		.4byte	.LASF96
 5688 12e7 01       		.byte	0x1
 5689 12e8 AD02     		.2byte	0x2ad
 5690 12ea 42000000 		.4byte	0x42
 5691 12ee 940D0000 		.4byte	.LLST78
 5692 12f2 25       		.uleb128 0x25
 5693 12f3 6B657900 		.ascii	"key\000"
 5694 12f7 01       		.byte	0x1
 5695 12f8 AE02     		.2byte	0x2ae
 5696 12fa A4130000 		.4byte	0x13a4
 5697 12fe C10D0000 		.4byte	.LLST79
 5698 1302 25       		.uleb128 0x25
 5699 1303 75696400 		.ascii	"uid\000"
 5700 1307 01       		.byte	0x1
 5701 1308 AF02     		.2byte	0x2af
 5702 130a 18120000 		.4byte	0x1218
 5703 130e E20D0000 		.4byte	.LLST80
 5704 1312 24       		.uleb128 0x24
 5705 1313 B2020000 		.4byte	.LASF59
 5706 1317 01       		.byte	0x1
 5707 1318 B102     		.2byte	0x2b1
 5708 131a 42000000 		.4byte	0x42
 5709 131e 10       		.byte	0x10
 5710 131f 23       		.uleb128 0x23
 5711 1320 00000000 		.4byte	.LASF60
 5712 1324 01       		.byte	0x1
 5713 1325 B402     		.2byte	0x2b4
 5714 1327 AA130000 		.4byte	0x13aa
 5715 132b 02       		.uleb128 0x2
 5716 132c 91       		.byte	0x91
 5717 132d 6C       		.sleb128 -20
 5718 132e 13       		.uleb128 0x13
 5719 132f 0C000000 		.4byte	.LBB16
 5720 1333 1E000000 		.4byte	.LBE16-.LBB16
 5721 1337 4A130000 		.4byte	0x134a
 5722 133b 1D       		.uleb128 0x1d
 5723 133c 6900     		.ascii	"i\000"
 5724 133e 01       		.byte	0x1
 5725 133f B702     		.2byte	0x2b7
 5726 1341 42000000 		.4byte	0x42
ARM GAS  C:\Users\nikod\AppData\Local\Temp\cc4NWLo4.s 			page 122


 5727 1345 030E0000 		.4byte	.LLST81
 5728 1349 00       		.byte	0
 5729 134a 13       		.uleb128 0x13
 5730 134b 2A000000 		.4byte	.LBB17
 5731 134f 1E000000 		.4byte	.LBE17-.LBB17
 5732 1353 66130000 		.4byte	0x1366
 5733 1357 1D       		.uleb128 0x1d
 5734 1358 6900     		.ascii	"i\000"
 5735 135a 01       		.byte	0x1
 5736 135b BE02     		.2byte	0x2be
 5737 135d 42000000 		.4byte	0x42
 5738 1361 2D0E0000 		.4byte	.LLST82
 5739 1365 00       		.byte	0
 5740 1366 12       		.uleb128 0x12
 5741 1367 60000000 		.4byte	.LVL304
 5742 136b 030B0000 		.4byte	0xb03
 5743 136f 11       		.uleb128 0x11
 5744 1370 01       		.uleb128 0x1
 5745 1371 50       		.byte	0x50
 5746 1372 01       		.uleb128 0x1
 5747 1373 3E       		.byte	0x3e
 5748 1374 11       		.uleb128 0x11
 5749 1375 01       		.uleb128 0x1
 5750 1376 51       		.byte	0x51
 5751 1377 01       		.uleb128 0x1
 5752 1378 40       		.byte	0x40
 5753 1379 11       		.uleb128 0x11
 5754 137a 01       		.uleb128 0x1
 5755 137b 52       		.byte	0x52
 5756 137c 02       		.uleb128 0x2
 5757 137d 91       		.byte	0x91
 5758 137e 6C       		.sleb128 -20
 5759 137f 11       		.uleb128 0x11
 5760 1380 01       		.uleb128 0x1
 5761 1381 53       		.byte	0x53
 5762 1382 01       		.uleb128 0x1
 5763 1383 3C       		.byte	0x3c
 5764 1384 11       		.uleb128 0x11
 5765 1385 02       		.uleb128 0x2
 5766 1386 7D       		.byte	0x7d
 5767 1387 00       		.sleb128 0
 5768 1388 01       		.uleb128 0x1
 5769 1389 30       		.byte	0x30
 5770 138a 11       		.uleb128 0x11
 5771 138b 02       		.uleb128 0x2
 5772 138c 7D       		.byte	0x7d
 5773 138d 04       		.sleb128 4
 5774 138e 01       		.uleb128 0x1
 5775 138f 30       		.byte	0x30
 5776 1390 11       		.uleb128 0x11
 5777 1391 02       		.uleb128 0x2
 5778 1392 7D       		.byte	0x7d
 5779 1393 08       		.sleb128 8
 5780 1394 01       		.uleb128 0x1
 5781 1395 30       		.byte	0x30
 5782 1396 11       		.uleb128 0x11
 5783 1397 02       		.uleb128 0x2
ARM GAS  C:\Users\nikod\AppData\Local\Temp\cc4NWLo4.s 			page 123


 5784 1398 7D       		.byte	0x7d
 5785 1399 0C       		.sleb128 12
 5786 139a 01       		.uleb128 0x1
 5787 139b 30       		.byte	0x30
 5788 139c 11       		.uleb128 0x11
 5789 139d 02       		.uleb128 0x2
 5790 139e 7D       		.byte	0x7d
 5791 139f 10       		.sleb128 16
 5792 13a0 01       		.uleb128 0x1
 5793 13a1 30       		.byte	0x30
 5794 13a2 00       		.byte	0
 5795 13a3 00       		.byte	0
 5796 13a4 08       		.uleb128 0x8
 5797 13a5 04       		.byte	0x4
 5798 13a6 8B010000 		.4byte	0x18b
 5799 13aa 06       		.uleb128 0x6
 5800 13ab 42000000 		.4byte	0x42
 5801 13af BA130000 		.4byte	0x13ba
 5802 13b3 07       		.uleb128 0x7
 5803 13b4 11010000 		.4byte	0x111
 5804 13b8 0B       		.byte	0xb
 5805 13b9 00       		.byte	0
 5806 13ba 1C       		.uleb128 0x1c
 5807 13bb D4040000 		.4byte	.LASF97
 5808 13bf 01       		.byte	0x1
 5809 13c0 C702     		.2byte	0x2c7
 5810 13c2 00000000 		.4byte	.LFB88
 5811 13c6 0C000000 		.4byte	.LFE88-.LFB88
 5812 13ca 01       		.uleb128 0x1
 5813 13cb 9C       		.byte	0x9c
 5814 13cc E5130000 		.4byte	0x13e5
 5815 13d0 12       		.uleb128 0x12
 5816 13d1 0A000000 		.4byte	.LVL305
 5817 13d5 8E040000 		.4byte	0x48e
 5818 13d9 11       		.uleb128 0x11
 5819 13da 01       		.uleb128 0x1
 5820 13db 50       		.byte	0x50
 5821 13dc 01       		.uleb128 0x1
 5822 13dd 38       		.byte	0x38
 5823 13de 11       		.uleb128 0x11
 5824 13df 01       		.uleb128 0x1
 5825 13e0 51       		.byte	0x51
 5826 13e1 01       		.uleb128 0x1
 5827 13e2 38       		.byte	0x38
 5828 13e3 00       		.byte	0
 5829 13e4 00       		.byte	0
 5830 13e5 1E       		.uleb128 0x1e
 5831 13e6 6B050000 		.4byte	.LASF98
 5832 13ea 01       		.byte	0x1
 5833 13eb CD02     		.2byte	0x2cd
 5834 13ed 42000000 		.4byte	0x42
 5835 13f1 00000000 		.4byte	.LFB89
 5836 13f5 46000000 		.4byte	.LFE89-.LFB89
 5837 13f9 01       		.uleb128 0x1
 5838 13fa 9C       		.byte	0x9c
 5839 13fb 92140000 		.4byte	0x1492
 5840 13ff 1F       		.uleb128 0x1f
ARM GAS  C:\Users\nikod\AppData\Local\Temp\cc4NWLo4.s 			page 124


 5841 1400 3B050000 		.4byte	.LASF96
 5842 1404 01       		.byte	0x1
 5843 1405 CD02     		.2byte	0x2cd
 5844 1407 42000000 		.4byte	0x42
 5845 140b 4B0E0000 		.4byte	.LLST83
 5846 140f 1F       		.uleb128 0x1f
 5847 1410 AF000000 		.4byte	.LASF86
 5848 1414 01       		.byte	0x1
 5849 1415 CE02     		.2byte	0x2ce
 5850 1417 18010000 		.4byte	0x118
 5851 141b AA0E0000 		.4byte	.LLST84
 5852 141f 1F       		.uleb128 0x1f
 5853 1420 5F000000 		.4byte	.LASF75
 5854 1424 01       		.byte	0x1
 5855 1425 CF02     		.2byte	0x2cf
 5856 1427 18010000 		.4byte	0x118
 5857 142b E10E0000 		.4byte	.LLST85
 5858 142f 21       		.uleb128 0x21
 5859 1430 7D010000 		.4byte	.LASF45
 5860 1434 01       		.byte	0x1
 5861 1435 D102     		.2byte	0x2d1
 5862 1437 42000000 		.4byte	0x42
 5863 143b 180F0000 		.4byte	.LLST86
 5864 143f 10       		.uleb128 0x10
 5865 1440 20000000 		.4byte	.LVL310
 5866 1444 F5040000 		.4byte	0x4f5
 5867 1448 5E140000 		.4byte	0x145e
 5868 144c 11       		.uleb128 0x11
 5869 144d 01       		.uleb128 0x1
 5870 144e 50       		.byte	0x50
 5871 144f 02       		.uleb128 0x2
 5872 1450 75       		.byte	0x75
 5873 1451 00       		.sleb128 0
 5874 1452 11       		.uleb128 0x11
 5875 1453 01       		.uleb128 0x1
 5876 1454 51       		.byte	0x51
 5877 1455 01       		.uleb128 0x1
 5878 1456 32       		.byte	0x32
 5879 1457 11       		.uleb128 0x11
 5880 1458 01       		.uleb128 0x1
 5881 1459 52       		.byte	0x52
 5882 145a 02       		.uleb128 0x2
 5883 145b 75       		.byte	0x75
 5884 145c 02       		.sleb128 2
 5885 145d 00       		.byte	0
 5886 145e 12       		.uleb128 0x12
 5887 145f 38000000 		.4byte	.LVL312
 5888 1463 890D0000 		.4byte	0xd89
 5889 1467 11       		.uleb128 0x11
 5890 1468 01       		.uleb128 0x1
 5891 1469 50       		.byte	0x50
 5892 146a 02       		.uleb128 0x2
 5893 146b 75       		.byte	0x75
 5894 146c 00       		.sleb128 0
 5895 146d 11       		.uleb128 0x11
 5896 146e 01       		.uleb128 0x1
 5897 146f 51       		.byte	0x51
ARM GAS  C:\Users\nikod\AppData\Local\Temp\cc4NWLo4.s 			page 125


 5898 1470 01       		.uleb128 0x1
 5899 1471 34       		.byte	0x34
 5900 1472 11       		.uleb128 0x11
 5901 1473 01       		.uleb128 0x1
 5902 1474 52       		.byte	0x52
 5903 1475 02       		.uleb128 0x2
 5904 1476 75       		.byte	0x75
 5905 1477 00       		.sleb128 0
 5906 1478 11       		.uleb128 0x11
 5907 1479 01       		.uleb128 0x1
 5908 147a 53       		.byte	0x53
 5909 147b 02       		.uleb128 0x2
 5910 147c 74       		.byte	0x74
 5911 147d 00       		.sleb128 0
 5912 147e 11       		.uleb128 0x11
 5913 147f 02       		.uleb128 0x2
 5914 1480 7D       		.byte	0x7d
 5915 1481 00       		.sleb128 0
 5916 1482 01       		.uleb128 0x1
 5917 1483 30       		.byte	0x30
 5918 1484 11       		.uleb128 0x11
 5919 1485 02       		.uleb128 0x2
 5920 1486 7D       		.byte	0x7d
 5921 1487 04       		.sleb128 4
 5922 1488 01       		.uleb128 0x1
 5923 1489 30       		.byte	0x30
 5924 148a 11       		.uleb128 0x11
 5925 148b 02       		.uleb128 0x2
 5926 148c 7D       		.byte	0x7d
 5927 148d 08       		.sleb128 8
 5928 148e 01       		.uleb128 0x1
 5929 148f 31       		.byte	0x31
 5930 1490 00       		.byte	0
 5931 1491 00       		.byte	0
 5932 1492 1E       		.uleb128 0x1e
 5933 1493 EE050000 		.4byte	.LASF99
 5934 1497 01       		.byte	0x1
 5935 1498 5B03     		.2byte	0x35b
 5936 149a 42000000 		.4byte	0x42
 5937 149e 00000000 		.4byte	.LFB97
 5938 14a2 3C000000 		.4byte	.LFE97-.LFB97
 5939 14a6 01       		.uleb128 0x1
 5940 14a7 9C       		.byte	0x9c
 5941 14a8 2F150000 		.4byte	0x152f
 5942 14ac 1F       		.uleb128 0x1f
 5943 14ad 3B050000 		.4byte	.LASF96
 5944 14b1 01       		.byte	0x1
 5945 14b2 5B03     		.2byte	0x35b
 5946 14b4 42000000 		.4byte	0x42
 5947 14b8 2B0F0000 		.4byte	.LLST87
 5948 14bc 1F       		.uleb128 0x1f
 5949 14bd 07020000 		.4byte	.LASF30
 5950 14c1 01       		.byte	0x1
 5951 14c2 5B03     		.2byte	0x35b
 5952 14c4 2F150000 		.4byte	0x152f
 5953 14c8 4C0F0000 		.4byte	.LLST88
 5954 14cc 21       		.uleb128 0x21
ARM GAS  C:\Users\nikod\AppData\Local\Temp\cc4NWLo4.s 			page 126


 5955 14cd 60030000 		.4byte	.LASF71
 5956 14d1 01       		.byte	0x1
 5957 14d2 5C03     		.2byte	0x35c
 5958 14d4 42000000 		.4byte	0x42
 5959 14d8 6A0F0000 		.4byte	.LLST89
 5960 14dc 23       		.uleb128 0x23
 5961 14dd AF000000 		.4byte	.LASF86
 5962 14e1 01       		.byte	0x1
 5963 14e2 5D03     		.2byte	0x35d
 5964 14e4 35150000 		.4byte	0x1535
 5965 14e8 02       		.uleb128 0x2
 5966 14e9 91       		.byte	0x91
 5967 14ea 64       		.sleb128 -28
 5968 14eb 23       		.uleb128 0x23
 5969 14ec 12040000 		.4byte	.LASF25
 5970 14f0 01       		.byte	0x1
 5971 14f1 5E03     		.2byte	0x35e
 5972 14f3 42000000 		.4byte	0x42
 5973 14f7 02       		.uleb128 0x2
 5974 14f8 91       		.byte	0x91
 5975 14f9 63       		.sleb128 -29
 5976 14fa 13       		.uleb128 0x13
 5977 14fb 18000000 		.4byte	.LBB18
 5978 14ff 1E000000 		.4byte	.LBE18-.LBB18
 5979 1503 18150000 		.4byte	0x1518
 5980 1507 1D       		.uleb128 0x1d
 5981 1508 61757800 		.ascii	"aux\000"
 5982 150c 01       		.byte	0x1
 5983 150d 6403     		.2byte	0x364
 5984 150f CE000000 		.4byte	0xce
 5985 1513 7D0F0000 		.4byte	.LLST90
 5986 1517 00       		.byte	0
 5987 1518 12       		.uleb128 0x12
 5988 1519 14000000 		.4byte	.LVL320
 5989 151d E5130000 		.4byte	0x13e5
 5990 1521 11       		.uleb128 0x11
 5991 1522 01       		.uleb128 0x1
 5992 1523 51       		.byte	0x51
 5993 1524 02       		.uleb128 0x2
 5994 1525 91       		.byte	0x91
 5995 1526 64       		.sleb128 -28
 5996 1527 11       		.uleb128 0x11
 5997 1528 01       		.uleb128 0x1
 5998 1529 52       		.byte	0x52
 5999 152a 02       		.uleb128 0x2
 6000 152b 91       		.byte	0x91
 6001 152c 63       		.sleb128 -29
 6002 152d 00       		.byte	0
 6003 152e 00       		.byte	0
 6004 152f 08       		.uleb128 0x8
 6005 1530 04       		.byte	0x4
 6006 1531 CE000000 		.4byte	0xce
 6007 1535 06       		.uleb128 0x6
 6008 1536 42000000 		.4byte	0x42
 6009 153a 45150000 		.4byte	0x1545
 6010 153e 07       		.uleb128 0x7
 6011 153f 11010000 		.4byte	0x111
ARM GAS  C:\Users\nikod\AppData\Local\Temp\cc4NWLo4.s 			page 127


 6012 1543 11       		.byte	0x11
 6013 1544 00       		.byte	0
 6014 1545 1E       		.uleb128 0x1e
 6015 1546 3D010000 		.4byte	.LASF100
 6016 154a 01       		.byte	0x1
 6017 154b 8203     		.2byte	0x382
 6018 154d 42000000 		.4byte	0x42
 6019 1551 00000000 		.4byte	.LFB99
 6020 1555 70000000 		.4byte	.LFE99-.LFB99
 6021 1559 01       		.uleb128 0x1
 6022 155a 9C       		.byte	0x9c
 6023 155b 49160000 		.4byte	0x1649
 6024 155f 1F       		.uleb128 0x1f
 6025 1560 E2030000 		.4byte	.LASF101
 6026 1564 01       		.byte	0x1
 6027 1565 8203     		.2byte	0x382
 6028 1567 18010000 		.4byte	0x118
 6029 156b 940F0000 		.4byte	.LLST91
 6030 156f 1F       		.uleb128 0x1f
 6031 1570 2E030000 		.4byte	.LASF102
 6032 1574 01       		.byte	0x1
 6033 1575 8203     		.2byte	0x382
 6034 1577 18010000 		.4byte	0x118
 6035 157b B50F0000 		.4byte	.LLST92
 6036 157f 21       		.uleb128 0x21
 6037 1580 7D010000 		.4byte	.LASF45
 6038 1584 01       		.byte	0x1
 6039 1585 8703     		.2byte	0x387
 6040 1587 42000000 		.4byte	0x42
 6041 158b D30F0000 		.4byte	.LLST93
 6042 158f 23       		.uleb128 0x23
 6043 1590 75000000 		.4byte	.LASF103
 6044 1594 01       		.byte	0x1
 6045 1595 8803     		.2byte	0x388
 6046 1597 35150000 		.4byte	0x1535
 6047 159b 02       		.uleb128 0x2
 6048 159c 91       		.byte	0x91
 6049 159d 64       		.sleb128 -28
 6050 159e 21       		.uleb128 0x21
 6051 159f B2020000 		.4byte	.LASF59
 6052 15a3 01       		.byte	0x1
 6053 15a4 9503     		.2byte	0x395
 6054 15a6 42000000 		.4byte	0x42
 6055 15aa F10F0000 		.4byte	.LLST94
 6056 15ae 23       		.uleb128 0x23
 6057 15af 97030000 		.4byte	.LASF64
 6058 15b3 01       		.byte	0x1
 6059 15b4 9703     		.2byte	0x397
 6060 15b6 42000000 		.4byte	0x42
 6061 15ba 02       		.uleb128 0x2
 6062 15bb 91       		.byte	0x91
 6063 15bc 63       		.sleb128 -29
 6064 15bd 23       		.uleb128 0x23
 6065 15be 47000000 		.4byte	.LASF104
 6066 15c2 01       		.byte	0x1
 6067 15c3 9803     		.2byte	0x398
 6068 15c5 42000000 		.4byte	0x42
ARM GAS  C:\Users\nikod\AppData\Local\Temp\cc4NWLo4.s 			page 128


 6069 15c9 02       		.uleb128 0x2
 6070 15ca 91       		.byte	0x91
 6071 15cb 62       		.sleb128 -30
 6072 15cc 13       		.uleb128 0x13
 6073 15cd 0C000000 		.4byte	.LBB19
 6074 15d1 16000000 		.4byte	.LBE19-.LBB19
 6075 15d5 E8150000 		.4byte	0x15e8
 6076 15d9 1D       		.uleb128 0x1d
 6077 15da 6900     		.ascii	"i\000"
 6078 15dc 01       		.byte	0x1
 6079 15dd 8C03     		.2byte	0x38c
 6080 15df 42000000 		.4byte	0x42
 6081 15e3 06100000 		.4byte	.LLST95
 6082 15e7 00       		.byte	0
 6083 15e8 10       		.uleb128 0x10
 6084 15e9 2E000000 		.4byte	.LVL332
 6085 15ed F5040000 		.4byte	0x4f5
 6086 15f1 07160000 		.4byte	0x1607
 6087 15f5 11       		.uleb128 0x11
 6088 15f6 01       		.uleb128 0x1
 6089 15f7 50       		.byte	0x50
 6090 15f8 02       		.uleb128 0x2
 6091 15f9 91       		.byte	0x91
 6092 15fa 64       		.sleb128 -28
 6093 15fb 11       		.uleb128 0x11
 6094 15fc 01       		.uleb128 0x1
 6095 15fd 51       		.byte	0x51
 6096 15fe 01       		.uleb128 0x1
 6097 15ff 35       		.byte	0x35
 6098 1600 11       		.uleb128 0x11
 6099 1601 01       		.uleb128 0x1
 6100 1602 52       		.byte	0x52
 6101 1603 02       		.uleb128 0x2
 6102 1604 91       		.byte	0x91
 6103 1605 69       		.sleb128 -23
 6104 1606 00       		.byte	0
 6105 1607 12       		.uleb128 0x12
 6106 1608 5A000000 		.4byte	.LVL335
 6107 160c 030B0000 		.4byte	0xb03
 6108 1610 11       		.uleb128 0x11
 6109 1611 01       		.uleb128 0x1
 6110 1612 50       		.byte	0x50
 6111 1613 01       		.uleb128 0x1
 6112 1614 3C       		.byte	0x3c
 6113 1615 11       		.uleb128 0x11
 6114 1616 01       		.uleb128 0x1
 6115 1617 51       		.byte	0x51
 6116 1618 02       		.uleb128 0x2
 6117 1619 08       		.byte	0x8
 6118 161a 30       		.byte	0x30
 6119 161b 11       		.uleb128 0x11
 6120 161c 01       		.uleb128 0x1
 6121 161d 52       		.byte	0x52
 6122 161e 02       		.uleb128 0x2
 6123 161f 91       		.byte	0x91
 6124 1620 64       		.sleb128 -28
 6125 1621 11       		.uleb128 0x11
ARM GAS  C:\Users\nikod\AppData\Local\Temp\cc4NWLo4.s 			page 129


 6126 1622 01       		.uleb128 0x1
 6127 1623 53       		.byte	0x53
 6128 1624 01       		.uleb128 0x1
 6129 1625 37       		.byte	0x37
 6130 1626 11       		.uleb128 0x11
 6131 1627 02       		.uleb128 0x2
 6132 1628 7D       		.byte	0x7d
 6133 1629 00       		.sleb128 0
 6134 162a 02       		.uleb128 0x2
 6135 162b 91       		.byte	0x91
 6136 162c 64       		.sleb128 -28
 6137 162d 11       		.uleb128 0x11
 6138 162e 02       		.uleb128 0x2
 6139 162f 7D       		.byte	0x7d
 6140 1630 04       		.sleb128 4
 6141 1631 02       		.uleb128 0x2
 6142 1632 91       		.byte	0x91
 6143 1633 62       		.sleb128 -30
 6144 1634 11       		.uleb128 0x11
 6145 1635 02       		.uleb128 0x2
 6146 1636 7D       		.byte	0x7d
 6147 1637 08       		.sleb128 8
 6148 1638 02       		.uleb128 0x2
 6149 1639 91       		.byte	0x91
 6150 163a 63       		.sleb128 -29
 6151 163b 11       		.uleb128 0x11
 6152 163c 02       		.uleb128 0x2
 6153 163d 7D       		.byte	0x7d
 6154 163e 0C       		.sleb128 12
 6155 163f 01       		.uleb128 0x1
 6156 1640 30       		.byte	0x30
 6157 1641 11       		.uleb128 0x11
 6158 1642 02       		.uleb128 0x2
 6159 1643 7D       		.byte	0x7d
 6160 1644 10       		.sleb128 16
 6161 1645 01       		.uleb128 0x1
 6162 1646 30       		.byte	0x30
 6163 1647 00       		.byte	0
 6164 1648 00       		.byte	0
 6165 1649 1E       		.uleb128 0x1e
 6166 164a EB030000 		.4byte	.LASF105
 6167 164e 01       		.byte	0x1
 6168 164f A503     		.2byte	0x3a5
 6169 1651 42000000 		.4byte	0x42
 6170 1655 00000000 		.4byte	.LFB100
 6171 1659 90000000 		.4byte	.LFE100-.LFB100
 6172 165d 01       		.uleb128 0x1
 6173 165e 9C       		.byte	0x9c
 6174 165f 6A170000 		.4byte	0x176a
 6175 1663 1F       		.uleb128 0x1f
 6176 1664 00000000 		.4byte	.LASF60
 6177 1668 01       		.byte	0x1
 6178 1669 A503     		.2byte	0x3a5
 6179 166b 18010000 		.4byte	0x118
 6180 166f 30100000 		.4byte	.LLST96
 6181 1673 1F       		.uleb128 0x1f
 6182 1674 EC060000 		.4byte	.LASF61
ARM GAS  C:\Users\nikod\AppData\Local\Temp\cc4NWLo4.s 			page 130


 6183 1678 01       		.byte	0x1
 6184 1679 A603     		.2byte	0x3a6
 6185 167b 42000000 		.4byte	0x42
 6186 167f 8E100000 		.4byte	.LLST97
 6187 1683 1F       		.uleb128 0x1f
 6188 1684 7B040000 		.4byte	.LASF106
 6189 1688 01       		.byte	0x1
 6190 1689 A703     		.2byte	0x3a7
 6191 168b FF070000 		.4byte	0x7ff
 6192 168f F8100000 		.4byte	.LLST98
 6193 1693 21       		.uleb128 0x21
 6194 1694 7D010000 		.4byte	.LASF45
 6195 1698 01       		.byte	0x1
 6196 1699 A903     		.2byte	0x3a9
 6197 169b 42000000 		.4byte	0x42
 6198 169f 32110000 		.4byte	.LLST99
 6199 16a3 23       		.uleb128 0x23
 6200 16a4 75000000 		.4byte	.LASF103
 6201 16a8 01       		.byte	0x1
 6202 16a9 AA03     		.2byte	0x3aa
 6203 16ab 35150000 		.4byte	0x1535
 6204 16af 02       		.uleb128 0x2
 6205 16b0 91       		.byte	0x91
 6206 16b1 5C       		.sleb128 -36
 6207 16b2 21       		.uleb128 0x21
 6208 16b3 B2020000 		.4byte	.LASF59
 6209 16b7 01       		.byte	0x1
 6210 16b8 BA03     		.2byte	0x3ba
 6211 16ba 42000000 		.4byte	0x42
 6212 16be 5B110000 		.4byte	.LLST100
 6213 16c2 23       		.uleb128 0x23
 6214 16c3 03030000 		.4byte	.LASF107
 6215 16c7 01       		.byte	0x1
 6216 16c8 BB03     		.2byte	0x3bb
 6217 16ca 42000000 		.4byte	0x42
 6218 16ce 02       		.uleb128 0x2
 6219 16cf 91       		.byte	0x91
 6220 16d0 5B       		.sleb128 -37
 6221 16d1 23       		.uleb128 0x23
 6222 16d2 97030000 		.4byte	.LASF64
 6223 16d6 01       		.byte	0x1
 6224 16d7 BC03     		.2byte	0x3bc
 6225 16d9 42000000 		.4byte	0x42
 6226 16dd 02       		.uleb128 0x2
 6227 16de 91       		.byte	0x91
 6228 16df 5A       		.sleb128 -38
 6229 16e0 10       		.uleb128 0x10
 6230 16e1 1A000000 		.4byte	.LVL342
 6231 16e5 3F1C0000 		.4byte	0x1c3f
 6232 16e9 01170000 		.4byte	0x1701
 6233 16ed 11       		.uleb128 0x11
 6234 16ee 01       		.uleb128 0x1
 6235 16ef 50       		.byte	0x50
 6236 16f0 02       		.uleb128 0x2
 6237 16f1 91       		.byte	0x91
 6238 16f2 5C       		.sleb128 -36
 6239 16f3 11       		.uleb128 0x11
ARM GAS  C:\Users\nikod\AppData\Local\Temp\cc4NWLo4.s 			page 131


 6240 16f4 01       		.uleb128 0x1
 6241 16f5 51       		.byte	0x51
 6242 16f6 03       		.uleb128 0x3
 6243 16f7 F3       		.byte	0xf3
 6244 16f8 01       		.uleb128 0x1
 6245 16f9 50       		.byte	0x50
 6246 16fa 11       		.uleb128 0x11
 6247 16fb 01       		.uleb128 0x1
 6248 16fc 52       		.byte	0x52
 6249 16fd 02       		.uleb128 0x2
 6250 16fe 74       		.byte	0x74
 6251 16ff 00       		.sleb128 0
 6252 1700 00       		.byte	0
 6253 1701 10       		.uleb128 0x10
 6254 1702 26000000 		.4byte	.LVL343
 6255 1706 F5040000 		.4byte	0x4f5
 6256 170a 27170000 		.4byte	0x1727
 6257 170e 11       		.uleb128 0x11
 6258 170f 01       		.uleb128 0x1
 6259 1710 50       		.byte	0x50
 6260 1711 02       		.uleb128 0x2
 6261 1712 91       		.byte	0x91
 6262 1713 5C       		.sleb128 -36
 6263 1714 11       		.uleb128 0x11
 6264 1715 01       		.uleb128 0x1
 6265 1716 51       		.byte	0x51
 6266 1717 02       		.uleb128 0x2
 6267 1718 74       		.byte	0x74
 6268 1719 00       		.sleb128 0
 6269 171a 11       		.uleb128 0x11
 6270 171b 01       		.uleb128 0x1
 6271 171c 52       		.byte	0x52
 6272 171d 08       		.uleb128 0x8
 6273 171e 91       		.byte	0x91
 6274 171f 00       		.sleb128 0
 6275 1720 74       		.byte	0x74
 6276 1721 00       		.sleb128 0
 6277 1722 22       		.byte	0x22
 6278 1723 08       		.byte	0x8
 6279 1724 24       		.byte	0x24
 6280 1725 1C       		.byte	0x1c
 6281 1726 00       		.byte	0
 6282 1727 12       		.uleb128 0x12
 6283 1728 54000000 		.4byte	.LVL347
 6284 172c 030B0000 		.4byte	0xb03
 6285 1730 11       		.uleb128 0x11
 6286 1731 01       		.uleb128 0x1
 6287 1732 50       		.byte	0x50
 6288 1733 01       		.uleb128 0x1
 6289 1734 3C       		.byte	0x3c
 6290 1735 11       		.uleb128 0x11
 6291 1736 01       		.uleb128 0x1
 6292 1737 51       		.byte	0x51
 6293 1738 02       		.uleb128 0x2
 6294 1739 08       		.byte	0x8
 6295 173a 30       		.byte	0x30
 6296 173b 11       		.uleb128 0x11
ARM GAS  C:\Users\nikod\AppData\Local\Temp\cc4NWLo4.s 			page 132


 6297 173c 01       		.uleb128 0x1
 6298 173d 52       		.byte	0x52
 6299 173e 02       		.uleb128 0x2
 6300 173f 91       		.byte	0x91
 6301 1740 5C       		.sleb128 -36
 6302 1741 11       		.uleb128 0x11
 6303 1742 01       		.uleb128 0x1
 6304 1743 53       		.byte	0x53
 6305 1744 02       		.uleb128 0x2
 6306 1745 74       		.byte	0x74
 6307 1746 02       		.sleb128 2
 6308 1747 11       		.uleb128 0x11
 6309 1748 02       		.uleb128 0x2
 6310 1749 7D       		.byte	0x7d
 6311 174a 00       		.sleb128 0
 6312 174b 02       		.uleb128 0x2
 6313 174c 91       		.byte	0x91
 6314 174d 5C       		.sleb128 -36
 6315 174e 11       		.uleb128 0x11
 6316 174f 02       		.uleb128 0x2
 6317 1750 7D       		.byte	0x7d
 6318 1751 04       		.sleb128 4
 6319 1752 02       		.uleb128 0x2
 6320 1753 91       		.byte	0x91
 6321 1754 5B       		.sleb128 -37
 6322 1755 11       		.uleb128 0x11
 6323 1756 02       		.uleb128 0x2
 6324 1757 7D       		.byte	0x7d
 6325 1758 08       		.sleb128 8
 6326 1759 02       		.uleb128 0x2
 6327 175a 91       		.byte	0x91
 6328 175b 5A       		.sleb128 -38
 6329 175c 11       		.uleb128 0x11
 6330 175d 02       		.uleb128 0x2
 6331 175e 7D       		.byte	0x7d
 6332 175f 0C       		.sleb128 12
 6333 1760 01       		.uleb128 0x1
 6334 1761 30       		.byte	0x30
 6335 1762 11       		.uleb128 0x11
 6336 1763 02       		.uleb128 0x2
 6337 1764 7D       		.byte	0x7d
 6338 1765 10       		.sleb128 16
 6339 1766 01       		.uleb128 0x1
 6340 1767 30       		.byte	0x30
 6341 1768 00       		.byte	0
 6342 1769 00       		.byte	0
 6343 176a 1E       		.uleb128 0x1e
 6344 176b 33030000 		.4byte	.LASF108
 6345 176f 01       		.byte	0x1
 6346 1770 E602     		.2byte	0x2e6
 6347 1772 42000000 		.4byte	0x42
 6348 1776 00000000 		.4byte	.LFB90
 6349 177a 40000000 		.4byte	.LFE90-.LFB90
 6350 177e 01       		.uleb128 0x1
 6351 177f 9C       		.byte	0x9c
 6352 1780 0D180000 		.4byte	0x180d
 6353 1784 1F       		.uleb128 0x1f
ARM GAS  C:\Users\nikod\AppData\Local\Temp\cc4NWLo4.s 			page 133


 6354 1785 3B050000 		.4byte	.LASF96
 6355 1789 01       		.byte	0x1
 6356 178a E602     		.2byte	0x2e6
 6357 178c 42000000 		.4byte	0x42
 6358 1790 7D110000 		.4byte	.LLST101
 6359 1794 1F       		.uleb128 0x1f
 6360 1795 AF000000 		.4byte	.LASF86
 6361 1799 01       		.byte	0x1
 6362 179a E702     		.2byte	0x2e7
 6363 179c 18010000 		.4byte	0x118
 6364 17a0 DC110000 		.4byte	.LLST102
 6365 17a4 1F       		.uleb128 0x1f
 6366 17a5 5F000000 		.4byte	.LASF75
 6367 17a9 01       		.byte	0x1
 6368 17aa E802     		.2byte	0x2e8
 6369 17ac 42000000 		.4byte	0x42
 6370 17b0 10120000 		.4byte	.LLST103
 6371 17b4 21       		.uleb128 0x21
 6372 17b5 7D010000 		.4byte	.LASF45
 6373 17b9 01       		.byte	0x1
 6374 17ba EA02     		.2byte	0x2ea
 6375 17bc 42000000 		.4byte	0x42
 6376 17c0 4A120000 		.4byte	.LLST104
 6377 17c4 23       		.uleb128 0x23
 6378 17c5 75000000 		.4byte	.LASF103
 6379 17c9 01       		.byte	0x1
 6380 17ca F402     		.2byte	0x2f4
 6381 17cc 790D0000 		.4byte	0xd79
 6382 17d0 02       		.uleb128 0x2
 6383 17d1 91       		.byte	0x91
 6384 17d2 6C       		.sleb128 -20
 6385 17d3 10       		.uleb128 0x10
 6386 17d4 22000000 		.4byte	.LVL361
 6387 17d8 49160000 		.4byte	0x1649
 6388 17dc F1170000 		.4byte	0x17f1
 6389 17e0 11       		.uleb128 0x11
 6390 17e1 01       		.uleb128 0x1
 6391 17e2 50       		.byte	0x50
 6392 17e3 02       		.uleb128 0x2
 6393 17e4 91       		.byte	0x91
 6394 17e5 6C       		.sleb128 -20
 6395 17e6 11       		.uleb128 0x11
 6396 17e7 01       		.uleb128 0x1
 6397 17e8 51       		.byte	0x51
 6398 17e9 01       		.uleb128 0x1
 6399 17ea 32       		.byte	0x32
 6400 17eb 11       		.uleb128 0x11
 6401 17ec 01       		.uleb128 0x1
 6402 17ed 52       		.byte	0x52
 6403 17ee 01       		.uleb128 0x1
 6404 17ef 30       		.byte	0x30
 6405 17f0 00       		.byte	0
 6406 17f1 12       		.uleb128 0x12
 6407 17f2 2E000000 		.4byte	.LVL363
 6408 17f6 49160000 		.4byte	0x1649
 6409 17fa 11       		.uleb128 0x11
 6410 17fb 01       		.uleb128 0x1
ARM GAS  C:\Users\nikod\AppData\Local\Temp\cc4NWLo4.s 			page 134


 6411 17fc 50       		.byte	0x50
 6412 17fd 02       		.uleb128 0x2
 6413 17fe 75       		.byte	0x75
 6414 17ff 00       		.sleb128 0
 6415 1800 11       		.uleb128 0x11
 6416 1801 01       		.uleb128 0x1
 6417 1802 51       		.byte	0x51
 6418 1803 02       		.uleb128 0x2
 6419 1804 74       		.byte	0x74
 6420 1805 00       		.sleb128 0
 6421 1806 11       		.uleb128 0x11
 6422 1807 01       		.uleb128 0x1
 6423 1808 52       		.byte	0x52
 6424 1809 01       		.uleb128 0x1
 6425 180a 30       		.byte	0x30
 6426 180b 00       		.byte	0
 6427 180c 00       		.byte	0
 6428 180d 1E       		.uleb128 0x1e
 6429 180e AD010000 		.4byte	.LASF109
 6430 1812 01       		.byte	0x1
 6431 1813 6E03     		.2byte	0x36e
 6432 1815 42000000 		.4byte	0x42
 6433 1819 00000000 		.4byte	.LFB98
 6434 181d 68000000 		.4byte	.LFE98-.LFB98
 6435 1821 01       		.uleb128 0x1
 6436 1822 9C       		.byte	0x9c
 6437 1823 6C180000 		.4byte	0x186c
 6438 1827 1F       		.uleb128 0x1f
 6439 1828 3B050000 		.4byte	.LASF96
 6440 182c 01       		.byte	0x1
 6441 182d 6E03     		.2byte	0x36e
 6442 182f 42000000 		.4byte	0x42
 6443 1833 73120000 		.4byte	.LLST105
 6444 1837 1F       		.uleb128 0x1f
 6445 1838 07020000 		.4byte	.LASF30
 6446 183c 01       		.byte	0x1
 6447 183d 6E03     		.2byte	0x36e
 6448 183f CE000000 		.4byte	0xce
 6449 1843 94120000 		.4byte	.LLST106
 6450 1847 23       		.uleb128 0x23
 6451 1848 AF000000 		.4byte	.LASF86
 6452 184c 01       		.byte	0x1
 6453 184d 6F03     		.2byte	0x36f
 6454 184f 35150000 		.4byte	0x1535
 6455 1853 02       		.uleb128 0x2
 6456 1854 91       		.byte	0x91
 6457 1855 5C       		.sleb128 -36
 6458 1856 12       		.uleb128 0x12
 6459 1857 64000000 		.4byte	.LVL371
 6460 185b 6A170000 		.4byte	0x176a
 6461 185f 11       		.uleb128 0x11
 6462 1860 01       		.uleb128 0x1
 6463 1861 51       		.byte	0x51
 6464 1862 02       		.uleb128 0x2
 6465 1863 91       		.byte	0x91
 6466 1864 5C       		.sleb128 -36
 6467 1865 11       		.uleb128 0x11
ARM GAS  C:\Users\nikod\AppData\Local\Temp\cc4NWLo4.s 			page 135


 6468 1866 01       		.uleb128 0x1
 6469 1867 52       		.byte	0x52
 6470 1868 01       		.uleb128 0x1
 6471 1869 40       		.byte	0x40
 6472 186a 00       		.byte	0
 6473 186b 00       		.byte	0
 6474 186c 1E       		.uleb128 0x1e
 6475 186d B5050000 		.4byte	.LASF110
 6476 1871 01       		.byte	0x1
 6477 1872 0603     		.2byte	0x306
 6478 1874 42000000 		.4byte	0x42
 6479 1878 00000000 		.4byte	.LFB91
 6480 187c 36000000 		.4byte	.LFE91-.LFB91
 6481 1880 01       		.uleb128 0x1
 6482 1881 9C       		.byte	0x9c
 6483 1882 F0180000 		.4byte	0x18f0
 6484 1886 1F       		.uleb128 0x1f
 6485 1887 DD030000 		.4byte	.LASF111
 6486 188b 01       		.byte	0x1
 6487 188c 0603     		.2byte	0x306
 6488 188e 42000000 		.4byte	0x42
 6489 1892 B5120000 		.4byte	.LLST107
 6490 1896 1F       		.uleb128 0x1f
 6491 1897 AF000000 		.4byte	.LASF86
 6492 189b 01       		.byte	0x1
 6493 189c 0703     		.2byte	0x307
 6494 189e 18010000 		.4byte	0x118
 6495 18a2 14130000 		.4byte	.LLST108
 6496 18a6 1F       		.uleb128 0x1f
 6497 18a7 5F000000 		.4byte	.LASF75
 6498 18ab 01       		.byte	0x1
 6499 18ac 0803     		.2byte	0x308
 6500 18ae 42000000 		.4byte	0x42
 6501 18b2 4E130000 		.4byte	.LLST109
 6502 18b6 21       		.uleb128 0x21
 6503 18b7 7D010000 		.4byte	.LASF45
 6504 18bb 01       		.byte	0x1
 6505 18bc 0A03     		.2byte	0x30a
 6506 18be 42000000 		.4byte	0x42
 6507 18c2 88130000 		.4byte	.LLST110
 6508 18c6 23       		.uleb128 0x23
 6509 18c7 75000000 		.4byte	.LASF103
 6510 18cb 01       		.byte	0x1
 6511 18cc 1203     		.2byte	0x312
 6512 18ce 7B010000 		.4byte	0x17b
 6513 18d2 02       		.uleb128 0x2
 6514 18d3 91       		.byte	0x91
 6515 18d4 70       		.sleb128 -16
 6516 18d5 12       		.uleb128 0x12
 6517 18d6 24000000 		.4byte	.LVL376
 6518 18da 49160000 		.4byte	0x1649
 6519 18de 11       		.uleb128 0x11
 6520 18df 01       		.uleb128 0x1
 6521 18e0 50       		.byte	0x50
 6522 18e1 02       		.uleb128 0x2
 6523 18e2 7D       		.byte	0x7d
 6524 18e3 00       		.sleb128 0
ARM GAS  C:\Users\nikod\AppData\Local\Temp\cc4NWLo4.s 			page 136


 6525 18e4 11       		.uleb128 0x11
 6526 18e5 01       		.uleb128 0x1
 6527 18e6 51       		.byte	0x51
 6528 18e7 01       		.uleb128 0x1
 6529 18e8 36       		.byte	0x36
 6530 18e9 11       		.uleb128 0x11
 6531 18ea 01       		.uleb128 0x1
 6532 18eb 52       		.byte	0x52
 6533 18ec 01       		.uleb128 0x1
 6534 18ed 30       		.byte	0x30
 6535 18ee 00       		.byte	0
 6536 18ef 00       		.byte	0
 6537 18f0 1E       		.uleb128 0x1e
 6538 18f1 D6000000 		.4byte	.LASF112
 6539 18f5 01       		.byte	0x1
 6540 18f6 3403     		.2byte	0x334
 6541 18f8 42000000 		.4byte	0x42
 6542 18fc 00000000 		.4byte	.LFB95
 6543 1900 32000000 		.4byte	.LFE95-.LFB95
 6544 1904 01       		.uleb128 0x1
 6545 1905 9C       		.byte	0x9c
 6546 1906 92190000 		.4byte	0x1992
 6547 190a 1F       		.uleb128 0x1f
 6548 190b 22040000 		.4byte	.LASF58
 6549 190f 01       		.byte	0x1
 6550 1910 3403     		.2byte	0x334
 6551 1912 42000000 		.4byte	0x42
 6552 1916 A6130000 		.4byte	.LLST111
 6553 191a 1F       		.uleb128 0x1f
 6554 191b 3B050000 		.4byte	.LASF96
 6555 191f 01       		.byte	0x1
 6556 1920 3503     		.2byte	0x335
 6557 1922 42000000 		.4byte	0x42
 6558 1926 D3130000 		.4byte	.LLST112
 6559 192a 1F       		.uleb128 0x1f
 6560 192b 40030000 		.4byte	.LASF43
 6561 192f 01       		.byte	0x1
 6562 1930 3603     		.2byte	0x336
 6563 1932 CE000000 		.4byte	0xce
 6564 1936 00140000 		.4byte	.LLST113
 6565 193a 21       		.uleb128 0x21
 6566 193b 7D010000 		.4byte	.LASF45
 6567 193f 01       		.byte	0x1
 6568 1940 3803     		.2byte	0x338
 6569 1942 42000000 		.4byte	0x42
 6570 1946 1F140000 		.4byte	.LLST114
 6571 194a 23       		.uleb128 0x23
 6572 194b 75000000 		.4byte	.LASF103
 6573 194f 01       		.byte	0x1
 6574 1950 3903     		.2byte	0x339
 6575 1952 790D0000 		.4byte	0xd79
 6576 1956 02       		.uleb128 0x2
 6577 1957 91       		.byte	0x91
 6578 1958 74       		.sleb128 -12
 6579 1959 10       		.uleb128 0x10
 6580 195a 18000000 		.4byte	.LVL386
 6581 195e 49160000 		.4byte	0x1649
ARM GAS  C:\Users\nikod\AppData\Local\Temp\cc4NWLo4.s 			page 137


 6582 1962 77190000 		.4byte	0x1977
 6583 1966 11       		.uleb128 0x11
 6584 1967 01       		.uleb128 0x1
 6585 1968 50       		.byte	0x50
 6586 1969 02       		.uleb128 0x2
 6587 196a 91       		.byte	0x91
 6588 196b 74       		.sleb128 -12
 6589 196c 11       		.uleb128 0x11
 6590 196d 01       		.uleb128 0x1
 6591 196e 51       		.byte	0x51
 6592 196f 01       		.uleb128 0x1
 6593 1970 32       		.byte	0x32
 6594 1971 11       		.uleb128 0x11
 6595 1972 01       		.uleb128 0x1
 6596 1973 52       		.byte	0x52
 6597 1974 01       		.uleb128 0x1
 6598 1975 30       		.byte	0x30
 6599 1976 00       		.byte	0
 6600 1977 12       		.uleb128 0x12
 6601 1978 26000000 		.4byte	.LVL388
 6602 197c 49160000 		.4byte	0x1649
 6603 1980 11       		.uleb128 0x11
 6604 1981 01       		.uleb128 0x1
 6605 1982 50       		.byte	0x50
 6606 1983 02       		.uleb128 0x2
 6607 1984 91       		.byte	0x91
 6608 1985 6C       		.sleb128 -20
 6609 1986 11       		.uleb128 0x11
 6610 1987 01       		.uleb128 0x1
 6611 1988 51       		.byte	0x51
 6612 1989 01       		.uleb128 0x1
 6613 198a 34       		.byte	0x34
 6614 198b 11       		.uleb128 0x11
 6615 198c 01       		.uleb128 0x1
 6616 198d 52       		.byte	0x52
 6617 198e 01       		.uleb128 0x1
 6618 198f 31       		.byte	0x31
 6619 1990 00       		.byte	0
 6620 1991 00       		.byte	0
 6621 1992 1E       		.uleb128 0x1e
 6622 1993 01040000 		.4byte	.LASF113
 6623 1997 01       		.byte	0x1
 6624 1998 1F03     		.2byte	0x31f
 6625 199a 42000000 		.4byte	0x42
 6626 199e 00000000 		.4byte	.LFB92
 6627 19a2 0E000000 		.4byte	.LFE92-.LFB92
 6628 19a6 01       		.uleb128 0x1
 6629 19a7 9C       		.byte	0x9c
 6630 19a8 E4190000 		.4byte	0x19e4
 6631 19ac 1F       		.uleb128 0x1f
 6632 19ad 3B050000 		.4byte	.LASF96
 6633 19b1 01       		.byte	0x1
 6634 19b2 1F03     		.2byte	0x31f
 6635 19b4 42000000 		.4byte	0x42
 6636 19b8 3D140000 		.4byte	.LLST115
 6637 19bc 1F       		.uleb128 0x1f
 6638 19bd 68060000 		.4byte	.LASF114
ARM GAS  C:\Users\nikod\AppData\Local\Temp\cc4NWLo4.s 			page 138


 6639 19c1 01       		.byte	0x1
 6640 19c2 2003     		.2byte	0x320
 6641 19c4 CE000000 		.4byte	0xce
 6642 19c8 5E140000 		.4byte	.LLST116
 6643 19cc 12       		.uleb128 0x12
 6644 19cd 0C000000 		.4byte	.LVL392
 6645 19d1 F0180000 		.4byte	0x18f0
 6646 19d5 11       		.uleb128 0x11
 6647 19d6 01       		.uleb128 0x1
 6648 19d7 50       		.byte	0x50
 6649 19d8 02       		.uleb128 0x2
 6650 19d9 09       		.byte	0x9
 6651 19da C0       		.byte	0xc0
 6652 19db 11       		.uleb128 0x11
 6653 19dc 01       		.uleb128 0x1
 6654 19dd 52       		.byte	0x52
 6655 19de 03       		.uleb128 0x3
 6656 19df F3       		.byte	0xf3
 6657 19e0 01       		.uleb128 0x1
 6658 19e1 51       		.byte	0x51
 6659 19e2 00       		.byte	0
 6660 19e3 00       		.byte	0
 6661 19e4 1E       		.uleb128 0x1e
 6662 19e5 D1010000 		.4byte	.LASF115
 6663 19e9 01       		.byte	0x1
 6664 19ea 2503     		.2byte	0x325
 6665 19ec 42000000 		.4byte	0x42
 6666 19f0 00000000 		.4byte	.LFB93
 6667 19f4 0E000000 		.4byte	.LFE93-.LFB93
 6668 19f8 01       		.uleb128 0x1
 6669 19f9 9C       		.byte	0x9c
 6670 19fa 361A0000 		.4byte	0x1a36
 6671 19fe 1F       		.uleb128 0x1f
 6672 19ff 3B050000 		.4byte	.LASF96
 6673 1a03 01       		.byte	0x1
 6674 1a04 2503     		.2byte	0x325
 6675 1a06 42000000 		.4byte	0x42
 6676 1a0a 8A140000 		.4byte	.LLST117
 6677 1a0e 1F       		.uleb128 0x1f
 6678 1a0f 68060000 		.4byte	.LASF114
 6679 1a13 01       		.byte	0x1
 6680 1a14 2603     		.2byte	0x326
 6681 1a16 CE000000 		.4byte	0xce
 6682 1a1a AB140000 		.4byte	.LLST118
 6683 1a1e 12       		.uleb128 0x12
 6684 1a1f 0C000000 		.4byte	.LVL396
 6685 1a23 F0180000 		.4byte	0x18f0
 6686 1a27 11       		.uleb128 0x11
 6687 1a28 01       		.uleb128 0x1
 6688 1a29 50       		.byte	0x50
 6689 1a2a 02       		.uleb128 0x2
 6690 1a2b 09       		.byte	0x9
 6691 1a2c C1       		.byte	0xc1
 6692 1a2d 11       		.uleb128 0x11
 6693 1a2e 01       		.uleb128 0x1
 6694 1a2f 52       		.byte	0x52
 6695 1a30 03       		.uleb128 0x3
ARM GAS  C:\Users\nikod\AppData\Local\Temp\cc4NWLo4.s 			page 139


 6696 1a31 F3       		.byte	0xf3
 6697 1a32 01       		.uleb128 0x1
 6698 1a33 51       		.byte	0x51
 6699 1a34 00       		.byte	0
 6700 1a35 00       		.byte	0
 6701 1a36 1E       		.uleb128 0x1e
 6702 1a37 A1030000 		.4byte	.LASF116
 6703 1a3b 01       		.byte	0x1
 6704 1a3c 2C03     		.2byte	0x32c
 6705 1a3e 42000000 		.4byte	0x42
 6706 1a42 00000000 		.4byte	.LFB94
 6707 1a46 0E000000 		.4byte	.LFE94-.LFB94
 6708 1a4a 01       		.uleb128 0x1
 6709 1a4b 9C       		.byte	0x9c
 6710 1a4c 761A0000 		.4byte	0x1a76
 6711 1a50 1F       		.uleb128 0x1f
 6712 1a51 3B050000 		.4byte	.LASF96
 6713 1a55 01       		.byte	0x1
 6714 1a56 2C03     		.2byte	0x32c
 6715 1a58 42000000 		.4byte	0x42
 6716 1a5c D7140000 		.4byte	.LLST119
 6717 1a60 12       		.uleb128 0x12
 6718 1a61 0C000000 		.4byte	.LVL399
 6719 1a65 F0180000 		.4byte	0x18f0
 6720 1a69 11       		.uleb128 0x11
 6721 1a6a 01       		.uleb128 0x1
 6722 1a6b 50       		.byte	0x50
 6723 1a6c 02       		.uleb128 0x2
 6724 1a6d 09       		.byte	0x9
 6725 1a6e C2       		.byte	0xc2
 6726 1a6f 11       		.uleb128 0x11
 6727 1a70 01       		.uleb128 0x1
 6728 1a71 52       		.byte	0x52
 6729 1a72 01       		.uleb128 0x1
 6730 1a73 30       		.byte	0x30
 6731 1a74 00       		.byte	0
 6732 1a75 00       		.byte	0
 6733 1a76 1E       		.uleb128 0x1e
 6734 1a77 B3060000 		.4byte	.LASF117
 6735 1a7b 01       		.byte	0x1
 6736 1a7c 4C03     		.2byte	0x34c
 6737 1a7e 42000000 		.4byte	0x42
 6738 1a82 00000000 		.4byte	.LFB96
 6739 1a86 22000000 		.4byte	.LFE96-.LFB96
 6740 1a8a 01       		.uleb128 0x1
 6741 1a8b 9C       		.byte	0x9c
 6742 1a8c D81A0000 		.4byte	0x1ad8
 6743 1a90 1F       		.uleb128 0x1f
 6744 1a91 3B050000 		.4byte	.LASF96
 6745 1a95 01       		.byte	0x1
 6746 1a96 4C03     		.2byte	0x34c
 6747 1a98 42000000 		.4byte	0x42
 6748 1a9c F8140000 		.4byte	.LLST120
 6749 1aa0 23       		.uleb128 0x23
 6750 1aa1 7D010000 		.4byte	.LASF45
 6751 1aa5 01       		.byte	0x1
 6752 1aa6 4E03     		.2byte	0x34e
ARM GAS  C:\Users\nikod\AppData\Local\Temp\cc4NWLo4.s 			page 140


 6753 1aa8 42000000 		.4byte	0x42
 6754 1aac 01       		.uleb128 0x1
 6755 1aad 50       		.byte	0x50
 6756 1aae 23       		.uleb128 0x23
 6757 1aaf 75000000 		.4byte	.LASF103
 6758 1ab3 01       		.byte	0x1
 6759 1ab4 4F03     		.2byte	0x34f
 6760 1ab6 790D0000 		.4byte	0xd79
 6761 1aba 02       		.uleb128 0x2
 6762 1abb 91       		.byte	0x91
 6763 1abc 74       		.sleb128 -12
 6764 1abd 12       		.uleb128 0x12
 6765 1abe 18000000 		.4byte	.LVL402
 6766 1ac2 49160000 		.4byte	0x1649
 6767 1ac6 11       		.uleb128 0x11
 6768 1ac7 01       		.uleb128 0x1
 6769 1ac8 50       		.byte	0x50
 6770 1ac9 02       		.uleb128 0x2
 6771 1aca 91       		.byte	0x91
 6772 1acb 74       		.sleb128 -12
 6773 1acc 11       		.uleb128 0x11
 6774 1acd 01       		.uleb128 0x1
 6775 1ace 51       		.byte	0x51
 6776 1acf 01       		.uleb128 0x1
 6777 1ad0 32       		.byte	0x32
 6778 1ad1 11       		.uleb128 0x11
 6779 1ad2 01       		.uleb128 0x1
 6780 1ad3 52       		.byte	0x52
 6781 1ad4 01       		.uleb128 0x1
 6782 1ad5 30       		.byte	0x30
 6783 1ad6 00       		.byte	0
 6784 1ad7 00       		.byte	0
 6785 1ad8 1E       		.uleb128 0x1e
 6786 1ad9 31000000 		.4byte	.LASF118
 6787 1add 01       		.byte	0x1
 6788 1ade CF03     		.2byte	0x3cf
 6789 1ae0 FF070000 		.4byte	0x7ff
 6790 1ae4 00000000 		.4byte	.LFB101
 6791 1ae8 40000000 		.4byte	.LFE101-.LFB101
 6792 1aec 01       		.uleb128 0x1
 6793 1aed 9C       		.byte	0x9c
 6794 1aee 811B0000 		.4byte	0x1b81
 6795 1af2 23       		.uleb128 0x23
 6796 1af3 36040000 		.4byte	.LASF74
 6797 1af7 01       		.byte	0x1
 6798 1af8 D003     		.2byte	0x3d0
 6799 1afa 790D0000 		.4byte	0xd79
 6800 1afe 02       		.uleb128 0x2
 6801 1aff 91       		.byte	0x91
 6802 1b00 74       		.sleb128 -12
 6803 1b01 23       		.uleb128 0x23
 6804 1b02 5F000000 		.4byte	.LASF75
 6805 1b06 01       		.byte	0x1
 6806 1b07 D103     		.2byte	0x3d1
 6807 1b09 42000000 		.4byte	0x42
 6808 1b0d 02       		.uleb128 0x2
 6809 1b0e 91       		.byte	0x91
ARM GAS  C:\Users\nikod\AppData\Local\Temp\cc4NWLo4.s 			page 141


 6810 1b0f 73       		.sleb128 -13
 6811 1b10 21       		.uleb128 0x21
 6812 1b11 7D010000 		.4byte	.LASF45
 6813 1b15 01       		.byte	0x1
 6814 1b16 D803     		.2byte	0x3d8
 6815 1b18 42000000 		.4byte	0x42
 6816 1b1c 25150000 		.4byte	.LLST121
 6817 1b20 10       		.uleb128 0x10
 6818 1b21 14000000 		.4byte	.LVL403
 6819 1b25 96010000 		.4byte	0x196
 6820 1b29 381B0000 		.4byte	0x1b38
 6821 1b2d 11       		.uleb128 0x11
 6822 1b2e 01       		.uleb128 0x1
 6823 1b2f 50       		.byte	0x50
 6824 1b30 01       		.uleb128 0x1
 6825 1b31 42       		.byte	0x42
 6826 1b32 11       		.uleb128 0x11
 6827 1b33 01       		.uleb128 0x1
 6828 1b34 51       		.byte	0x51
 6829 1b35 01       		.uleb128 0x1
 6830 1b36 30       		.byte	0x30
 6831 1b37 00       		.byte	0
 6832 1b38 10       		.uleb128 0x10
 6833 1b39 1C000000 		.4byte	.LVL404
 6834 1b3d 96010000 		.4byte	0x196
 6835 1b41 501B0000 		.4byte	0x1b50
 6836 1b45 11       		.uleb128 0x11
 6837 1b46 01       		.uleb128 0x1
 6838 1b47 50       		.byte	0x50
 6839 1b48 01       		.uleb128 0x1
 6840 1b49 43       		.byte	0x43
 6841 1b4a 11       		.uleb128 0x11
 6842 1b4b 01       		.uleb128 0x1
 6843 1b4c 51       		.byte	0x51
 6844 1b4d 01       		.uleb128 0x1
 6845 1b4e 30       		.byte	0x30
 6846 1b4f 00       		.byte	0
 6847 1b50 10       		.uleb128 0x10
 6848 1b51 24000000 		.4byte	.LVL405
 6849 1b55 96010000 		.4byte	0x196
 6850 1b59 6A1B0000 		.4byte	0x1b6a
 6851 1b5d 11       		.uleb128 0x11
 6852 1b5e 01       		.uleb128 0x1
 6853 1b5f 50       		.byte	0x50
 6854 1b60 02       		.uleb128 0x2
 6855 1b61 08       		.byte	0x8
 6856 1b62 24       		.byte	0x24
 6857 1b63 11       		.uleb128 0x11
 6858 1b64 01       		.uleb128 0x1
 6859 1b65 51       		.byte	0x51
 6860 1b66 02       		.uleb128 0x2
 6861 1b67 08       		.byte	0x8
 6862 1b68 26       		.byte	0x26
 6863 1b69 00       		.byte	0
 6864 1b6a 12       		.uleb128 0x12
 6865 1b6b 2C000000 		.4byte	.LVL406
 6866 1b6f 1A0F0000 		.4byte	0xf1a
ARM GAS  C:\Users\nikod\AppData\Local\Temp\cc4NWLo4.s 			page 142


 6867 1b73 11       		.uleb128 0x11
 6868 1b74 01       		.uleb128 0x1
 6869 1b75 50       		.byte	0x50
 6870 1b76 02       		.uleb128 0x2
 6871 1b77 91       		.byte	0x91
 6872 1b78 74       		.sleb128 -12
 6873 1b79 11       		.uleb128 0x11
 6874 1b7a 01       		.uleb128 0x1
 6875 1b7b 51       		.byte	0x51
 6876 1b7c 02       		.uleb128 0x2
 6877 1b7d 74       		.byte	0x74
 6878 1b7e 00       		.sleb128 0
 6879 1b7f 00       		.byte	0
 6880 1b80 00       		.byte	0
 6881 1b81 1E       		.uleb128 0x1e
 6882 1b82 BD010000 		.4byte	.LASF119
 6883 1b86 01       		.byte	0x1
 6884 1b87 E103     		.2byte	0x3e1
 6885 1b89 FF070000 		.4byte	0x7ff
 6886 1b8d 00000000 		.4byte	.LFB102
 6887 1b91 18000000 		.4byte	.LFE102-.LFB102
 6888 1b95 01       		.uleb128 0x1
 6889 1b96 9C       		.byte	0x9c
 6890 1b97 C41B0000 		.4byte	0x1bc4
 6891 1b9b 21       		.uleb128 0x21
 6892 1b9c 7D010000 		.4byte	.LASF45
 6893 1ba0 01       		.byte	0x1
 6894 1ba1 E203     		.2byte	0x3e2
 6895 1ba3 42000000 		.4byte	0x42
 6896 1ba7 4E150000 		.4byte	.LLST122
 6897 1bab 12       		.uleb128 0x12
 6898 1bac 0A000000 		.4byte	.LVL412
 6899 1bb0 CC0F0000 		.4byte	0xfcc
 6900 1bb4 11       		.uleb128 0x11
 6901 1bb5 01       		.uleb128 0x1
 6902 1bb6 50       		.byte	0x50
 6903 1bb7 05       		.uleb128 0x5
 6904 1bb8 03       		.byte	0x3
 6905 1bb9 00000000 		.4byte	uid
 6906 1bbd 11       		.uleb128 0x11
 6907 1bbe 01       		.uleb128 0x1
 6908 1bbf 51       		.byte	0x51
 6909 1bc0 01       		.uleb128 0x1
 6910 1bc1 30       		.byte	0x30
 6911 1bc2 00       		.byte	0
 6912 1bc3 00       		.byte	0
 6913 1bc4 26       		.uleb128 0x26
 6914 1bc5 C0040000 		.4byte	.LASF120
 6915 1bc9 06       		.byte	0x6
 6916 1bca 1207     		.2byte	0x712
 6917 1bcc D01B0000 		.4byte	0x1bd0
 6918 1bd0 27       		.uleb128 0x27
 6919 1bd1 C3000000 		.4byte	0xc3
 6920 1bd5 28       		.uleb128 0x28
 6921 1bd6 75696400 		.ascii	"uid\000"
 6922 1bda 05       		.byte	0x5
 6923 1bdb 40       		.byte	0x40
ARM GAS  C:\Users\nikod\AppData\Local\Temp\cc4NWLo4.s 			page 143


 6924 1bdc 5B010000 		.4byte	0x15b
 6925 1be0 05       		.uleb128 0x5
 6926 1be1 03       		.byte	0x3
 6927 1be2 00000000 		.4byte	uid
 6928 1be6 29       		.uleb128 0x29
 6929 1be7 25030000 		.4byte	.LASF121
 6930 1beb 01       		.byte	0x1
 6931 1bec 0D       		.byte	0xd
 6932 1bed 42000000 		.4byte	0x42
 6933 1bf1 05       		.uleb128 0x5
 6934 1bf2 03       		.byte	0x3
 6935 1bf3 00000000 		.4byte	readData
 6936 1bf7 29       		.uleb128 0x29
 6937 1bf8 DB020000 		.4byte	.LASF122
 6938 1bfc 01       		.byte	0x1
 6939 1bfd 0E       		.byte	0xe
 6940 1bfe 42000000 		.4byte	0x42
 6941 1c02 05       		.uleb128 0x5
 6942 1c03 03       		.byte	0x3
 6943 1c04 00000000 		.4byte	readDummy
 6944 1c08 2A       		.uleb128 0x2a
 6945 1c09 67030000 		.4byte	.LASF123
 6946 1c0d 67030000 		.4byte	.LASF123
 6947 1c11 07       		.byte	0x7
 6948 1c12 5C       		.byte	0x5c
 6949 1c13 2A       		.uleb128 0x2a
 6950 1c14 DC060000 		.4byte	.LASF124
 6951 1c18 DC060000 		.4byte	.LASF124
 6952 1c1c 07       		.byte	0x7
 6953 1c1d 5E       		.byte	0x5e
 6954 1c1e 2A       		.uleb128 0x2a
 6955 1c1f 15010000 		.4byte	.LASF125
 6956 1c23 15010000 		.4byte	.LASF125
 6957 1c27 07       		.byte	0x7
 6958 1c28 60       		.byte	0x60
 6959 1c29 2A       		.uleb128 0x2a
 6960 1c2a 21000000 		.4byte	.LASF126
 6961 1c2e 21000000 		.4byte	.LASF126
 6962 1c32 08       		.byte	0x8
 6963 1c33 76       		.byte	0x76
 6964 1c34 2A       		.uleb128 0x2a
 6965 1c35 84010000 		.4byte	.LASF127
 6966 1c39 84010000 		.4byte	.LASF127
 6967 1c3d 07       		.byte	0x7
 6968 1c3e 4D       		.byte	0x4d
 6969 1c3f 2B       		.uleb128 0x2b
 6970 1c40 81060000 		.4byte	.LASF132
 6971 1c44 81060000 		.4byte	.LASF132
 6972 1c48 00       		.byte	0
 6973              		.section	.debug_abbrev,"",%progbits
 6974              	.Ldebug_abbrev0:
 6975 0000 01       		.uleb128 0x1
 6976 0001 11       		.uleb128 0x11
 6977 0002 01       		.byte	0x1
 6978 0003 25       		.uleb128 0x25
 6979 0004 0E       		.uleb128 0xe
 6980 0005 13       		.uleb128 0x13
ARM GAS  C:\Users\nikod\AppData\Local\Temp\cc4NWLo4.s 			page 144


 6981 0006 0B       		.uleb128 0xb
 6982 0007 03       		.uleb128 0x3
 6983 0008 0E       		.uleb128 0xe
 6984 0009 1B       		.uleb128 0x1b
 6985 000a 0E       		.uleb128 0xe
 6986 000b 55       		.uleb128 0x55
 6987 000c 17       		.uleb128 0x17
 6988 000d 11       		.uleb128 0x11
 6989 000e 01       		.uleb128 0x1
 6990 000f 10       		.uleb128 0x10
 6991 0010 17       		.uleb128 0x17
 6992 0011 00       		.byte	0
 6993 0012 00       		.byte	0
 6994 0013 02       		.uleb128 0x2
 6995 0014 16       		.uleb128 0x16
 6996 0015 00       		.byte	0
 6997 0016 03       		.uleb128 0x3
 6998 0017 0E       		.uleb128 0xe
 6999 0018 3A       		.uleb128 0x3a
 7000 0019 0B       		.uleb128 0xb
 7001 001a 3B       		.uleb128 0x3b
 7002 001b 0B       		.uleb128 0xb
 7003 001c 49       		.uleb128 0x49
 7004 001d 13       		.uleb128 0x13
 7005 001e 00       		.byte	0
 7006 001f 00       		.byte	0
 7007 0020 03       		.uleb128 0x3
 7008 0021 24       		.uleb128 0x24
 7009 0022 00       		.byte	0
 7010 0023 0B       		.uleb128 0xb
 7011 0024 0B       		.uleb128 0xb
 7012 0025 3E       		.uleb128 0x3e
 7013 0026 0B       		.uleb128 0xb
 7014 0027 03       		.uleb128 0x3
 7015 0028 0E       		.uleb128 0xe
 7016 0029 00       		.byte	0
 7017 002a 00       		.byte	0
 7018 002b 04       		.uleb128 0x4
 7019 002c 24       		.uleb128 0x24
 7020 002d 00       		.byte	0
 7021 002e 0B       		.uleb128 0xb
 7022 002f 0B       		.uleb128 0xb
 7023 0030 3E       		.uleb128 0x3e
 7024 0031 0B       		.uleb128 0xb
 7025 0032 03       		.uleb128 0x3
 7026 0033 08       		.uleb128 0x8
 7027 0034 00       		.byte	0
 7028 0035 00       		.byte	0
 7029 0036 05       		.uleb128 0x5
 7030 0037 16       		.uleb128 0x16
 7031 0038 00       		.byte	0
 7032 0039 03       		.uleb128 0x3
 7033 003a 0E       		.uleb128 0xe
 7034 003b 3A       		.uleb128 0x3a
 7035 003c 0B       		.uleb128 0xb
 7036 003d 3B       		.uleb128 0x3b
 7037 003e 05       		.uleb128 0x5
ARM GAS  C:\Users\nikod\AppData\Local\Temp\cc4NWLo4.s 			page 145


 7038 003f 49       		.uleb128 0x49
 7039 0040 13       		.uleb128 0x13
 7040 0041 00       		.byte	0
 7041 0042 00       		.byte	0
 7042 0043 06       		.uleb128 0x6
 7043 0044 01       		.uleb128 0x1
 7044 0045 01       		.byte	0x1
 7045 0046 49       		.uleb128 0x49
 7046 0047 13       		.uleb128 0x13
 7047 0048 01       		.uleb128 0x1
 7048 0049 13       		.uleb128 0x13
 7049 004a 00       		.byte	0
 7050 004b 00       		.byte	0
 7051 004c 07       		.uleb128 0x7
 7052 004d 21       		.uleb128 0x21
 7053 004e 00       		.byte	0
 7054 004f 49       		.uleb128 0x49
 7055 0050 13       		.uleb128 0x13
 7056 0051 2F       		.uleb128 0x2f
 7057 0052 0B       		.uleb128 0xb
 7058 0053 00       		.byte	0
 7059 0054 00       		.byte	0
 7060 0055 08       		.uleb128 0x8
 7061 0056 0F       		.uleb128 0xf
 7062 0057 00       		.byte	0
 7063 0058 0B       		.uleb128 0xb
 7064 0059 0B       		.uleb128 0xb
 7065 005a 49       		.uleb128 0x49
 7066 005b 13       		.uleb128 0x13
 7067 005c 00       		.byte	0
 7068 005d 00       		.byte	0
 7069 005e 09       		.uleb128 0x9
 7070 005f 13       		.uleb128 0x13
 7071 0060 01       		.byte	0x1
 7072 0061 0B       		.uleb128 0xb
 7073 0062 0B       		.uleb128 0xb
 7074 0063 3A       		.uleb128 0x3a
 7075 0064 0B       		.uleb128 0xb
 7076 0065 3B       		.uleb128 0x3b
 7077 0066 0B       		.uleb128 0xb
 7078 0067 01       		.uleb128 0x1
 7079 0068 13       		.uleb128 0x13
 7080 0069 00       		.byte	0
 7081 006a 00       		.byte	0
 7082 006b 0A       		.uleb128 0xa
 7083 006c 0D       		.uleb128 0xd
 7084 006d 00       		.byte	0
 7085 006e 03       		.uleb128 0x3
 7086 006f 0E       		.uleb128 0xe
 7087 0070 3A       		.uleb128 0x3a
 7088 0071 0B       		.uleb128 0xb
 7089 0072 3B       		.uleb128 0x3b
 7090 0073 0B       		.uleb128 0xb
 7091 0074 49       		.uleb128 0x49
 7092 0075 13       		.uleb128 0x13
 7093 0076 38       		.uleb128 0x38
 7094 0077 0B       		.uleb128 0xb
ARM GAS  C:\Users\nikod\AppData\Local\Temp\cc4NWLo4.s 			page 146


 7095 0078 00       		.byte	0
 7096 0079 00       		.byte	0
 7097 007a 0B       		.uleb128 0xb
 7098 007b 0D       		.uleb128 0xd
 7099 007c 00       		.byte	0
 7100 007d 03       		.uleb128 0x3
 7101 007e 08       		.uleb128 0x8
 7102 007f 3A       		.uleb128 0x3a
 7103 0080 0B       		.uleb128 0xb
 7104 0081 3B       		.uleb128 0x3b
 7105 0082 0B       		.uleb128 0xb
 7106 0083 49       		.uleb128 0x49
 7107 0084 13       		.uleb128 0x13
 7108 0085 38       		.uleb128 0x38
 7109 0086 0B       		.uleb128 0xb
 7110 0087 00       		.byte	0
 7111 0088 00       		.byte	0
 7112 0089 0C       		.uleb128 0xc
 7113 008a 16       		.uleb128 0x16
 7114 008b 00       		.byte	0
 7115 008c 03       		.uleb128 0x3
 7116 008d 08       		.uleb128 0x8
 7117 008e 3A       		.uleb128 0x3a
 7118 008f 0B       		.uleb128 0xb
 7119 0090 3B       		.uleb128 0x3b
 7120 0091 0B       		.uleb128 0xb
 7121 0092 49       		.uleb128 0x49
 7122 0093 13       		.uleb128 0x13
 7123 0094 00       		.byte	0
 7124 0095 00       		.byte	0
 7125 0096 0D       		.uleb128 0xd
 7126 0097 2E       		.uleb128 0x2e
 7127 0098 01       		.byte	0x1
 7128 0099 3F       		.uleb128 0x3f
 7129 009a 19       		.uleb128 0x19
 7130 009b 03       		.uleb128 0x3
 7131 009c 0E       		.uleb128 0xe
 7132 009d 3A       		.uleb128 0x3a
 7133 009e 0B       		.uleb128 0xb
 7134 009f 3B       		.uleb128 0x3b
 7135 00a0 0B       		.uleb128 0xb
 7136 00a1 27       		.uleb128 0x27
 7137 00a2 19       		.uleb128 0x19
 7138 00a3 11       		.uleb128 0x11
 7139 00a4 01       		.uleb128 0x1
 7140 00a5 12       		.uleb128 0x12
 7141 00a6 06       		.uleb128 0x6
 7142 00a7 40       		.uleb128 0x40
 7143 00a8 18       		.uleb128 0x18
 7144 00a9 9742     		.uleb128 0x2117
 7145 00ab 19       		.uleb128 0x19
 7146 00ac 01       		.uleb128 0x1
 7147 00ad 13       		.uleb128 0x13
 7148 00ae 00       		.byte	0
 7149 00af 00       		.byte	0
 7150 00b0 0E       		.uleb128 0xe
 7151 00b1 05       		.uleb128 0x5
ARM GAS  C:\Users\nikod\AppData\Local\Temp\cc4NWLo4.s 			page 147


 7152 00b2 00       		.byte	0
 7153 00b3 03       		.uleb128 0x3
 7154 00b4 0E       		.uleb128 0xe
 7155 00b5 3A       		.uleb128 0x3a
 7156 00b6 0B       		.uleb128 0xb
 7157 00b7 3B       		.uleb128 0x3b
 7158 00b8 0B       		.uleb128 0xb
 7159 00b9 49       		.uleb128 0x49
 7160 00ba 13       		.uleb128 0x13
 7161 00bb 02       		.uleb128 0x2
 7162 00bc 17       		.uleb128 0x17
 7163 00bd 00       		.byte	0
 7164 00be 00       		.byte	0
 7165 00bf 0F       		.uleb128 0xf
 7166 00c0 898201   		.uleb128 0x4109
 7167 00c3 00       		.byte	0
 7168 00c4 11       		.uleb128 0x11
 7169 00c5 01       		.uleb128 0x1
 7170 00c6 31       		.uleb128 0x31
 7171 00c7 13       		.uleb128 0x13
 7172 00c8 00       		.byte	0
 7173 00c9 00       		.byte	0
 7174 00ca 10       		.uleb128 0x10
 7175 00cb 898201   		.uleb128 0x4109
 7176 00ce 01       		.byte	0x1
 7177 00cf 11       		.uleb128 0x11
 7178 00d0 01       		.uleb128 0x1
 7179 00d1 31       		.uleb128 0x31
 7180 00d2 13       		.uleb128 0x13
 7181 00d3 01       		.uleb128 0x1
 7182 00d4 13       		.uleb128 0x13
 7183 00d5 00       		.byte	0
 7184 00d6 00       		.byte	0
 7185 00d7 11       		.uleb128 0x11
 7186 00d8 8A8201   		.uleb128 0x410a
 7187 00db 00       		.byte	0
 7188 00dc 02       		.uleb128 0x2
 7189 00dd 18       		.uleb128 0x18
 7190 00de 9142     		.uleb128 0x2111
 7191 00e0 18       		.uleb128 0x18
 7192 00e1 00       		.byte	0
 7193 00e2 00       		.byte	0
 7194 00e3 12       		.uleb128 0x12
 7195 00e4 898201   		.uleb128 0x4109
 7196 00e7 01       		.byte	0x1
 7197 00e8 11       		.uleb128 0x11
 7198 00e9 01       		.uleb128 0x1
 7199 00ea 31       		.uleb128 0x31
 7200 00eb 13       		.uleb128 0x13
 7201 00ec 00       		.byte	0
 7202 00ed 00       		.byte	0
 7203 00ee 13       		.uleb128 0x13
 7204 00ef 0B       		.uleb128 0xb
 7205 00f0 01       		.byte	0x1
 7206 00f1 11       		.uleb128 0x11
 7207 00f2 01       		.uleb128 0x1
 7208 00f3 12       		.uleb128 0x12
ARM GAS  C:\Users\nikod\AppData\Local\Temp\cc4NWLo4.s 			page 148


 7209 00f4 06       		.uleb128 0x6
 7210 00f5 01       		.uleb128 0x1
 7211 00f6 13       		.uleb128 0x13
 7212 00f7 00       		.byte	0
 7213 00f8 00       		.byte	0
 7214 00f9 14       		.uleb128 0x14
 7215 00fa 34       		.uleb128 0x34
 7216 00fb 00       		.byte	0
 7217 00fc 03       		.uleb128 0x3
 7218 00fd 0E       		.uleb128 0xe
 7219 00fe 3A       		.uleb128 0x3a
 7220 00ff 0B       		.uleb128 0xb
 7221 0100 3B       		.uleb128 0x3b
 7222 0101 0B       		.uleb128 0xb
 7223 0102 49       		.uleb128 0x49
 7224 0103 13       		.uleb128 0x13
 7225 0104 02       		.uleb128 0x2
 7226 0105 17       		.uleb128 0x17
 7227 0106 00       		.byte	0
 7228 0107 00       		.byte	0
 7229 0108 15       		.uleb128 0x15
 7230 0109 2E       		.uleb128 0x2e
 7231 010a 01       		.byte	0x1
 7232 010b 3F       		.uleb128 0x3f
 7233 010c 19       		.uleb128 0x19
 7234 010d 03       		.uleb128 0x3
 7235 010e 0E       		.uleb128 0xe
 7236 010f 3A       		.uleb128 0x3a
 7237 0110 0B       		.uleb128 0xb
 7238 0111 3B       		.uleb128 0x3b
 7239 0112 0B       		.uleb128 0xb
 7240 0113 27       		.uleb128 0x27
 7241 0114 19       		.uleb128 0x19
 7242 0115 49       		.uleb128 0x49
 7243 0116 13       		.uleb128 0x13
 7244 0117 11       		.uleb128 0x11
 7245 0118 01       		.uleb128 0x1
 7246 0119 12       		.uleb128 0x12
 7247 011a 06       		.uleb128 0x6
 7248 011b 40       		.uleb128 0x40
 7249 011c 18       		.uleb128 0x18
 7250 011d 9742     		.uleb128 0x2117
 7251 011f 19       		.uleb128 0x19
 7252 0120 01       		.uleb128 0x1
 7253 0121 13       		.uleb128 0x13
 7254 0122 00       		.byte	0
 7255 0123 00       		.byte	0
 7256 0124 16       		.uleb128 0x16
 7257 0125 34       		.uleb128 0x34
 7258 0126 00       		.byte	0
 7259 0127 03       		.uleb128 0x3
 7260 0128 0E       		.uleb128 0xe
 7261 0129 3A       		.uleb128 0x3a
 7262 012a 0B       		.uleb128 0xb
 7263 012b 3B       		.uleb128 0x3b
 7264 012c 0B       		.uleb128 0xb
 7265 012d 49       		.uleb128 0x49
ARM GAS  C:\Users\nikod\AppData\Local\Temp\cc4NWLo4.s 			page 149


 7266 012e 13       		.uleb128 0x13
 7267 012f 02       		.uleb128 0x2
 7268 0130 18       		.uleb128 0x18
 7269 0131 00       		.byte	0
 7270 0132 00       		.byte	0
 7271 0133 17       		.uleb128 0x17
 7272 0134 05       		.uleb128 0x5
 7273 0135 00       		.byte	0
 7274 0136 03       		.uleb128 0x3
 7275 0137 08       		.uleb128 0x8
 7276 0138 3A       		.uleb128 0x3a
 7277 0139 0B       		.uleb128 0xb
 7278 013a 3B       		.uleb128 0x3b
 7279 013b 0B       		.uleb128 0xb
 7280 013c 49       		.uleb128 0x49
 7281 013d 13       		.uleb128 0x13
 7282 013e 02       		.uleb128 0x2
 7283 013f 17       		.uleb128 0x17
 7284 0140 00       		.byte	0
 7285 0141 00       		.byte	0
 7286 0142 18       		.uleb128 0x18
 7287 0143 34       		.uleb128 0x34
 7288 0144 00       		.byte	0
 7289 0145 03       		.uleb128 0x3
 7290 0146 08       		.uleb128 0x8
 7291 0147 3A       		.uleb128 0x3a
 7292 0148 0B       		.uleb128 0xb
 7293 0149 3B       		.uleb128 0x3b
 7294 014a 0B       		.uleb128 0xb
 7295 014b 49       		.uleb128 0x49
 7296 014c 13       		.uleb128 0x13
 7297 014d 02       		.uleb128 0x2
 7298 014e 17       		.uleb128 0x17
 7299 014f 00       		.byte	0
 7300 0150 00       		.byte	0
 7301 0151 19       		.uleb128 0x19
 7302 0152 0B       		.uleb128 0xb
 7303 0153 01       		.byte	0x1
 7304 0154 11       		.uleb128 0x11
 7305 0155 01       		.uleb128 0x1
 7306 0156 12       		.uleb128 0x12
 7307 0157 06       		.uleb128 0x6
 7308 0158 00       		.byte	0
 7309 0159 00       		.byte	0
 7310 015a 1A       		.uleb128 0x1a
 7311 015b 34       		.uleb128 0x34
 7312 015c 00       		.byte	0
 7313 015d 03       		.uleb128 0x3
 7314 015e 0E       		.uleb128 0xe
 7315 015f 3A       		.uleb128 0x3a
 7316 0160 0B       		.uleb128 0xb
 7317 0161 3B       		.uleb128 0x3b
 7318 0162 0B       		.uleb128 0xb
 7319 0163 49       		.uleb128 0x49
 7320 0164 13       		.uleb128 0x13
 7321 0165 00       		.byte	0
 7322 0166 00       		.byte	0
ARM GAS  C:\Users\nikod\AppData\Local\Temp\cc4NWLo4.s 			page 150


 7323 0167 1B       		.uleb128 0x1b
 7324 0168 2E       		.uleb128 0x2e
 7325 0169 01       		.byte	0x1
 7326 016a 3F       		.uleb128 0x3f
 7327 016b 19       		.uleb128 0x19
 7328 016c 03       		.uleb128 0x3
 7329 016d 0E       		.uleb128 0xe
 7330 016e 3A       		.uleb128 0x3a
 7331 016f 0B       		.uleb128 0xb
 7332 0170 3B       		.uleb128 0x3b
 7333 0171 0B       		.uleb128 0xb
 7334 0172 49       		.uleb128 0x49
 7335 0173 13       		.uleb128 0x13
 7336 0174 11       		.uleb128 0x11
 7337 0175 01       		.uleb128 0x1
 7338 0176 12       		.uleb128 0x12
 7339 0177 06       		.uleb128 0x6
 7340 0178 40       		.uleb128 0x40
 7341 0179 18       		.uleb128 0x18
 7342 017a 9742     		.uleb128 0x2117
 7343 017c 19       		.uleb128 0x19
 7344 017d 01       		.uleb128 0x1
 7345 017e 13       		.uleb128 0x13
 7346 017f 00       		.byte	0
 7347 0180 00       		.byte	0
 7348 0181 1C       		.uleb128 0x1c
 7349 0182 2E       		.uleb128 0x2e
 7350 0183 01       		.byte	0x1
 7351 0184 3F       		.uleb128 0x3f
 7352 0185 19       		.uleb128 0x19
 7353 0186 03       		.uleb128 0x3
 7354 0187 0E       		.uleb128 0xe
 7355 0188 3A       		.uleb128 0x3a
 7356 0189 0B       		.uleb128 0xb
 7357 018a 3B       		.uleb128 0x3b
 7358 018b 05       		.uleb128 0x5
 7359 018c 27       		.uleb128 0x27
 7360 018d 19       		.uleb128 0x19
 7361 018e 11       		.uleb128 0x11
 7362 018f 01       		.uleb128 0x1
 7363 0190 12       		.uleb128 0x12
 7364 0191 06       		.uleb128 0x6
 7365 0192 40       		.uleb128 0x40
 7366 0193 18       		.uleb128 0x18
 7367 0194 9742     		.uleb128 0x2117
 7368 0196 19       		.uleb128 0x19
 7369 0197 01       		.uleb128 0x1
 7370 0198 13       		.uleb128 0x13
 7371 0199 00       		.byte	0
 7372 019a 00       		.byte	0
 7373 019b 1D       		.uleb128 0x1d
 7374 019c 34       		.uleb128 0x34
 7375 019d 00       		.byte	0
 7376 019e 03       		.uleb128 0x3
 7377 019f 08       		.uleb128 0x8
 7378 01a0 3A       		.uleb128 0x3a
 7379 01a1 0B       		.uleb128 0xb
ARM GAS  C:\Users\nikod\AppData\Local\Temp\cc4NWLo4.s 			page 151


 7380 01a2 3B       		.uleb128 0x3b
 7381 01a3 05       		.uleb128 0x5
 7382 01a4 49       		.uleb128 0x49
 7383 01a5 13       		.uleb128 0x13
 7384 01a6 02       		.uleb128 0x2
 7385 01a7 17       		.uleb128 0x17
 7386 01a8 00       		.byte	0
 7387 01a9 00       		.byte	0
 7388 01aa 1E       		.uleb128 0x1e
 7389 01ab 2E       		.uleb128 0x2e
 7390 01ac 01       		.byte	0x1
 7391 01ad 3F       		.uleb128 0x3f
 7392 01ae 19       		.uleb128 0x19
 7393 01af 03       		.uleb128 0x3
 7394 01b0 0E       		.uleb128 0xe
 7395 01b1 3A       		.uleb128 0x3a
 7396 01b2 0B       		.uleb128 0xb
 7397 01b3 3B       		.uleb128 0x3b
 7398 01b4 05       		.uleb128 0x5
 7399 01b5 27       		.uleb128 0x27
 7400 01b6 19       		.uleb128 0x19
 7401 01b7 49       		.uleb128 0x49
 7402 01b8 13       		.uleb128 0x13
 7403 01b9 11       		.uleb128 0x11
 7404 01ba 01       		.uleb128 0x1
 7405 01bb 12       		.uleb128 0x12
 7406 01bc 06       		.uleb128 0x6
 7407 01bd 40       		.uleb128 0x40
 7408 01be 18       		.uleb128 0x18
 7409 01bf 9742     		.uleb128 0x2117
 7410 01c1 19       		.uleb128 0x19
 7411 01c2 01       		.uleb128 0x1
 7412 01c3 13       		.uleb128 0x13
 7413 01c4 00       		.byte	0
 7414 01c5 00       		.byte	0
 7415 01c6 1F       		.uleb128 0x1f
 7416 01c7 05       		.uleb128 0x5
 7417 01c8 00       		.byte	0
 7418 01c9 03       		.uleb128 0x3
 7419 01ca 0E       		.uleb128 0xe
 7420 01cb 3A       		.uleb128 0x3a
 7421 01cc 0B       		.uleb128 0xb
 7422 01cd 3B       		.uleb128 0x3b
 7423 01ce 05       		.uleb128 0x5
 7424 01cf 49       		.uleb128 0x49
 7425 01d0 13       		.uleb128 0x13
 7426 01d1 02       		.uleb128 0x2
 7427 01d2 17       		.uleb128 0x17
 7428 01d3 00       		.byte	0
 7429 01d4 00       		.byte	0
 7430 01d5 20       		.uleb128 0x20
 7431 01d6 05       		.uleb128 0x5
 7432 01d7 00       		.byte	0
 7433 01d8 03       		.uleb128 0x3
 7434 01d9 0E       		.uleb128 0xe
 7435 01da 3A       		.uleb128 0x3a
 7436 01db 0B       		.uleb128 0xb
ARM GAS  C:\Users\nikod\AppData\Local\Temp\cc4NWLo4.s 			page 152


 7437 01dc 3B       		.uleb128 0x3b
 7438 01dd 05       		.uleb128 0x5
 7439 01de 49       		.uleb128 0x49
 7440 01df 13       		.uleb128 0x13
 7441 01e0 02       		.uleb128 0x2
 7442 01e1 18       		.uleb128 0x18
 7443 01e2 00       		.byte	0
 7444 01e3 00       		.byte	0
 7445 01e4 21       		.uleb128 0x21
 7446 01e5 34       		.uleb128 0x34
 7447 01e6 00       		.byte	0
 7448 01e7 03       		.uleb128 0x3
 7449 01e8 0E       		.uleb128 0xe
 7450 01e9 3A       		.uleb128 0x3a
 7451 01ea 0B       		.uleb128 0xb
 7452 01eb 3B       		.uleb128 0x3b
 7453 01ec 05       		.uleb128 0x5
 7454 01ed 49       		.uleb128 0x49
 7455 01ee 13       		.uleb128 0x13
 7456 01ef 02       		.uleb128 0x2
 7457 01f0 17       		.uleb128 0x17
 7458 01f1 00       		.byte	0
 7459 01f2 00       		.byte	0
 7460 01f3 22       		.uleb128 0x22
 7461 01f4 0B       		.uleb128 0xb
 7462 01f5 01       		.byte	0x1
 7463 01f6 55       		.uleb128 0x55
 7464 01f7 17       		.uleb128 0x17
 7465 01f8 01       		.uleb128 0x1
 7466 01f9 13       		.uleb128 0x13
 7467 01fa 00       		.byte	0
 7468 01fb 00       		.byte	0
 7469 01fc 23       		.uleb128 0x23
 7470 01fd 34       		.uleb128 0x34
 7471 01fe 00       		.byte	0
 7472 01ff 03       		.uleb128 0x3
 7473 0200 0E       		.uleb128 0xe
 7474 0201 3A       		.uleb128 0x3a
 7475 0202 0B       		.uleb128 0xb
 7476 0203 3B       		.uleb128 0x3b
 7477 0204 05       		.uleb128 0x5
 7478 0205 49       		.uleb128 0x49
 7479 0206 13       		.uleb128 0x13
 7480 0207 02       		.uleb128 0x2
 7481 0208 18       		.uleb128 0x18
 7482 0209 00       		.byte	0
 7483 020a 00       		.byte	0
 7484 020b 24       		.uleb128 0x24
 7485 020c 34       		.uleb128 0x34
 7486 020d 00       		.byte	0
 7487 020e 03       		.uleb128 0x3
 7488 020f 0E       		.uleb128 0xe
 7489 0210 3A       		.uleb128 0x3a
 7490 0211 0B       		.uleb128 0xb
 7491 0212 3B       		.uleb128 0x3b
 7492 0213 05       		.uleb128 0x5
 7493 0214 49       		.uleb128 0x49
ARM GAS  C:\Users\nikod\AppData\Local\Temp\cc4NWLo4.s 			page 153


 7494 0215 13       		.uleb128 0x13
 7495 0216 1C       		.uleb128 0x1c
 7496 0217 0B       		.uleb128 0xb
 7497 0218 00       		.byte	0
 7498 0219 00       		.byte	0
 7499 021a 25       		.uleb128 0x25
 7500 021b 05       		.uleb128 0x5
 7501 021c 00       		.byte	0
 7502 021d 03       		.uleb128 0x3
 7503 021e 08       		.uleb128 0x8
 7504 021f 3A       		.uleb128 0x3a
 7505 0220 0B       		.uleb128 0xb
 7506 0221 3B       		.uleb128 0x3b
 7507 0222 05       		.uleb128 0x5
 7508 0223 49       		.uleb128 0x49
 7509 0224 13       		.uleb128 0x13
 7510 0225 02       		.uleb128 0x2
 7511 0226 17       		.uleb128 0x17
 7512 0227 00       		.byte	0
 7513 0228 00       		.byte	0
 7514 0229 26       		.uleb128 0x26
 7515 022a 34       		.uleb128 0x34
 7516 022b 00       		.byte	0
 7517 022c 03       		.uleb128 0x3
 7518 022d 0E       		.uleb128 0xe
 7519 022e 3A       		.uleb128 0x3a
 7520 022f 0B       		.uleb128 0xb
 7521 0230 3B       		.uleb128 0x3b
 7522 0231 05       		.uleb128 0x5
 7523 0232 49       		.uleb128 0x49
 7524 0233 13       		.uleb128 0x13
 7525 0234 3F       		.uleb128 0x3f
 7526 0235 19       		.uleb128 0x19
 7527 0236 3C       		.uleb128 0x3c
 7528 0237 19       		.uleb128 0x19
 7529 0238 00       		.byte	0
 7530 0239 00       		.byte	0
 7531 023a 27       		.uleb128 0x27
 7532 023b 35       		.uleb128 0x35
 7533 023c 00       		.byte	0
 7534 023d 49       		.uleb128 0x49
 7535 023e 13       		.uleb128 0x13
 7536 023f 00       		.byte	0
 7537 0240 00       		.byte	0
 7538 0241 28       		.uleb128 0x28
 7539 0242 34       		.uleb128 0x34
 7540 0243 00       		.byte	0
 7541 0244 03       		.uleb128 0x3
 7542 0245 08       		.uleb128 0x8
 7543 0246 3A       		.uleb128 0x3a
 7544 0247 0B       		.uleb128 0xb
 7545 0248 3B       		.uleb128 0x3b
 7546 0249 0B       		.uleb128 0xb
 7547 024a 49       		.uleb128 0x49
 7548 024b 13       		.uleb128 0x13
 7549 024c 3F       		.uleb128 0x3f
 7550 024d 19       		.uleb128 0x19
ARM GAS  C:\Users\nikod\AppData\Local\Temp\cc4NWLo4.s 			page 154


 7551 024e 02       		.uleb128 0x2
 7552 024f 18       		.uleb128 0x18
 7553 0250 00       		.byte	0
 7554 0251 00       		.byte	0
 7555 0252 29       		.uleb128 0x29
 7556 0253 34       		.uleb128 0x34
 7557 0254 00       		.byte	0
 7558 0255 03       		.uleb128 0x3
 7559 0256 0E       		.uleb128 0xe
 7560 0257 3A       		.uleb128 0x3a
 7561 0258 0B       		.uleb128 0xb
 7562 0259 3B       		.uleb128 0x3b
 7563 025a 0B       		.uleb128 0xb
 7564 025b 49       		.uleb128 0x49
 7565 025c 13       		.uleb128 0x13
 7566 025d 3F       		.uleb128 0x3f
 7567 025e 19       		.uleb128 0x19
 7568 025f 02       		.uleb128 0x2
 7569 0260 18       		.uleb128 0x18
 7570 0261 00       		.byte	0
 7571 0262 00       		.byte	0
 7572 0263 2A       		.uleb128 0x2a
 7573 0264 2E       		.uleb128 0x2e
 7574 0265 00       		.byte	0
 7575 0266 3F       		.uleb128 0x3f
 7576 0267 19       		.uleb128 0x19
 7577 0268 3C       		.uleb128 0x3c
 7578 0269 19       		.uleb128 0x19
 7579 026a 6E       		.uleb128 0x6e
 7580 026b 0E       		.uleb128 0xe
 7581 026c 03       		.uleb128 0x3
 7582 026d 0E       		.uleb128 0xe
 7583 026e 3A       		.uleb128 0x3a
 7584 026f 0B       		.uleb128 0xb
 7585 0270 3B       		.uleb128 0x3b
 7586 0271 0B       		.uleb128 0xb
 7587 0272 00       		.byte	0
 7588 0273 00       		.byte	0
 7589 0274 2B       		.uleb128 0x2b
 7590 0275 2E       		.uleb128 0x2e
 7591 0276 00       		.byte	0
 7592 0277 3F       		.uleb128 0x3f
 7593 0278 19       		.uleb128 0x19
 7594 0279 3C       		.uleb128 0x3c
 7595 027a 19       		.uleb128 0x19
 7596 027b 6E       		.uleb128 0x6e
 7597 027c 0E       		.uleb128 0xe
 7598 027d 03       		.uleb128 0x3
 7599 027e 0E       		.uleb128 0xe
 7600 027f 00       		.byte	0
 7601 0280 00       		.byte	0
 7602 0281 00       		.byte	0
 7603              		.section	.debug_loc,"",%progbits
 7604              	.Ldebug_loc0:
 7605              	.LLST0:
 7606 0000 00000000 		.4byte	.LVL0
 7607 0004 06000000 		.4byte	.LVL1
ARM GAS  C:\Users\nikod\AppData\Local\Temp\cc4NWLo4.s 			page 155


 7608 0008 0100     		.2byte	0x1
 7609 000a 50       		.byte	0x50
 7610 000b 06000000 		.4byte	.LVL1
 7611 000f 2C000000 		.4byte	.LFE64
 7612 0013 0400     		.2byte	0x4
 7613 0015 F3       		.byte	0xf3
 7614 0016 01       		.uleb128 0x1
 7615 0017 50       		.byte	0x50
 7616 0018 9F       		.byte	0x9f
 7617 0019 00000000 		.4byte	0
 7618 001d 00000000 		.4byte	0
 7619              	.LLST1:
 7620 0021 00000000 		.4byte	.LVL0
 7621 0025 06000000 		.4byte	.LVL1
 7622 0029 0100     		.2byte	0x1
 7623 002b 51       		.byte	0x51
 7624 002c 06000000 		.4byte	.LVL1
 7625 0030 2C000000 		.4byte	.LFE64
 7626 0034 0400     		.2byte	0x4
 7627 0036 F3       		.byte	0xf3
 7628 0037 01       		.uleb128 0x1
 7629 0038 51       		.byte	0x51
 7630 0039 9F       		.byte	0x9f
 7631 003a 00000000 		.4byte	0
 7632 003e 00000000 		.4byte	0
 7633              	.LLST2:
 7634 0042 00000000 		.4byte	.LVL6
 7635 0046 08000000 		.4byte	.LVL7
 7636 004a 0100     		.2byte	0x1
 7637 004c 50       		.byte	0x50
 7638 004d 08000000 		.4byte	.LVL7
 7639 0051 3A000000 		.4byte	.LFE65
 7640 0055 0400     		.2byte	0x4
 7641 0057 F3       		.byte	0xf3
 7642 0058 01       		.uleb128 0x1
 7643 0059 50       		.byte	0x50
 7644 005a 9F       		.byte	0x9f
 7645 005b 00000000 		.4byte	0
 7646 005f 00000000 		.4byte	0
 7647              	.LLST3:
 7648 0063 00000000 		.4byte	.LVL6
 7649 0067 08000000 		.4byte	.LVL7
 7650 006b 0100     		.2byte	0x1
 7651 006d 51       		.byte	0x51
 7652 006e 08000000 		.4byte	.LVL7
 7653 0072 3A000000 		.4byte	.LFE65
 7654 0076 0400     		.2byte	0x4
 7655 0078 F3       		.byte	0xf3
 7656 0079 01       		.uleb128 0x1
 7657 007a 51       		.byte	0x51
 7658 007b 9F       		.byte	0x9f
 7659 007c 00000000 		.4byte	0
 7660 0080 00000000 		.4byte	0
 7661              	.LLST4:
 7662 0084 00000000 		.4byte	.LVL6
 7663 0088 08000000 		.4byte	.LVL7
 7664 008c 0100     		.2byte	0x1
ARM GAS  C:\Users\nikod\AppData\Local\Temp\cc4NWLo4.s 			page 156


 7665 008e 52       		.byte	0x52
 7666 008f 08000000 		.4byte	.LVL7
 7667 0093 3A000000 		.4byte	.LFE65
 7668 0097 0100     		.2byte	0x1
 7669 0099 56       		.byte	0x56
 7670 009a 00000000 		.4byte	0
 7671 009e 00000000 		.4byte	0
 7672              	.LLST5:
 7673 00a2 1C000000 		.4byte	.LVL9
 7674 00a6 20000000 		.4byte	.LVL10
 7675 00aa 0200     		.2byte	0x2
 7676 00ac 30       		.byte	0x30
 7677 00ad 9F       		.byte	0x9f
 7678 00ae 20000000 		.4byte	.LVL10
 7679 00b2 32000000 		.4byte	.LVL13
 7680 00b6 0100     		.2byte	0x1
 7681 00b8 54       		.byte	0x54
 7682 00b9 34000000 		.4byte	.LVL14
 7683 00bd 3A000000 		.4byte	.LFE65
 7684 00c1 0100     		.2byte	0x1
 7685 00c3 54       		.byte	0x54
 7686 00c4 00000000 		.4byte	0
 7687 00c8 00000000 		.4byte	0
 7688              	.LLST6:
 7689 00cc 00000000 		.4byte	.LVL15
 7690 00d0 04000000 		.4byte	.LVL16
 7691 00d4 0100     		.2byte	0x1
 7692 00d6 50       		.byte	0x50
 7693 00d7 04000000 		.4byte	.LVL16
 7694 00db 32000000 		.4byte	.LFE66
 7695 00df 0400     		.2byte	0x4
 7696 00e1 F3       		.byte	0xf3
 7697 00e2 01       		.uleb128 0x1
 7698 00e3 50       		.byte	0x50
 7699 00e4 9F       		.byte	0x9f
 7700 00e5 00000000 		.4byte	0
 7701 00e9 00000000 		.4byte	0
 7702              	.LLST7:
 7703 00ed 00000000 		.4byte	.LVL22
 7704 00f1 12000000 		.4byte	.LVL24
 7705 00f5 0100     		.2byte	0x1
 7706 00f7 50       		.byte	0x50
 7707 00f8 12000000 		.4byte	.LVL24
 7708 00fc 94000000 		.4byte	.LVL43
 7709 0100 0400     		.2byte	0x4
 7710 0102 F3       		.byte	0xf3
 7711 0103 01       		.uleb128 0x1
 7712 0104 50       		.byte	0x50
 7713 0105 9F       		.byte	0x9f
 7714 0106 94000000 		.4byte	.LVL43
 7715 010a 96000000 		.4byte	.LFE67
 7716 010e 0100     		.2byte	0x1
 7717 0110 50       		.byte	0x50
 7718 0111 00000000 		.4byte	0
 7719 0115 00000000 		.4byte	0
 7720              	.LLST8:
 7721 0119 00000000 		.4byte	.LVL22
ARM GAS  C:\Users\nikod\AppData\Local\Temp\cc4NWLo4.s 			page 157


 7722 011d 12000000 		.4byte	.LVL24
 7723 0121 0100     		.2byte	0x1
 7724 0123 51       		.byte	0x51
 7725 0124 12000000 		.4byte	.LVL24
 7726 0128 94000000 		.4byte	.LVL43
 7727 012c 0100     		.2byte	0x1
 7728 012e 57       		.byte	0x57
 7729 012f 94000000 		.4byte	.LVL43
 7730 0133 96000000 		.4byte	.LFE67
 7731 0137 0100     		.2byte	0x1
 7732 0139 51       		.byte	0x51
 7733 013a 00000000 		.4byte	0
 7734 013e 00000000 		.4byte	0
 7735              	.LLST9:
 7736 0142 00000000 		.4byte	.LVL22
 7737 0146 12000000 		.4byte	.LVL24
 7738 014a 0100     		.2byte	0x1
 7739 014c 52       		.byte	0x52
 7740 014d 12000000 		.4byte	.LVL24
 7741 0151 94000000 		.4byte	.LVL43
 7742 0155 0100     		.2byte	0x1
 7743 0157 56       		.byte	0x56
 7744 0158 94000000 		.4byte	.LVL43
 7745 015c 96000000 		.4byte	.LFE67
 7746 0160 0100     		.2byte	0x1
 7747 0162 52       		.byte	0x52
 7748 0163 00000000 		.4byte	0
 7749 0167 00000000 		.4byte	0
 7750              	.LLST10:
 7751 016b 00000000 		.4byte	.LVL22
 7752 016f 12000000 		.4byte	.LVL24
 7753 0173 0100     		.2byte	0x1
 7754 0175 53       		.byte	0x53
 7755 0176 12000000 		.4byte	.LVL24
 7756 017a 94000000 		.4byte	.LVL43
 7757 017e 0400     		.2byte	0x4
 7758 0180 F3       		.byte	0xf3
 7759 0181 01       		.uleb128 0x1
 7760 0182 53       		.byte	0x53
 7761 0183 9F       		.byte	0x9f
 7762 0184 94000000 		.4byte	.LVL43
 7763 0188 96000000 		.4byte	.LFE67
 7764 018c 0100     		.2byte	0x1
 7765 018e 53       		.byte	0x53
 7766 018f 00000000 		.4byte	0
 7767 0193 00000000 		.4byte	0
 7768              	.LLST11:
 7769 0197 0E000000 		.4byte	.LVL23
 7770 019b 5E000000 		.4byte	.LVL32
 7771 019f 0200     		.2byte	0x2
 7772 01a1 30       		.byte	0x30
 7773 01a2 9F       		.byte	0x9f
 7774 01a3 5E000000 		.4byte	.LVL32
 7775 01a7 62000000 		.4byte	.LVL34
 7776 01ab 0200     		.2byte	0x2
 7777 01ad 31       		.byte	0x31
 7778 01ae 9F       		.byte	0x9f
ARM GAS  C:\Users\nikod\AppData\Local\Temp\cc4NWLo4.s 			page 158


 7779 01af 62000000 		.4byte	.LVL34
 7780 01b3 66000000 		.4byte	.LVL35
 7781 01b7 0200     		.2byte	0x2
 7782 01b9 30       		.byte	0x30
 7783 01ba 9F       		.byte	0x9f
 7784 01bb 66000000 		.4byte	.LVL35
 7785 01bf 7E000000 		.4byte	.LVL39
 7786 01c3 0100     		.2byte	0x1
 7787 01c5 54       		.byte	0x54
 7788 01c6 80000000 		.4byte	.LVL40
 7789 01ca 94000000 		.4byte	.LVL43
 7790 01ce 0100     		.2byte	0x1
 7791 01d0 54       		.byte	0x54
 7792 01d1 00000000 		.4byte	0
 7793 01d5 00000000 		.4byte	0
 7794              	.LLST12:
 7795 01d9 3C000000 		.4byte	.LVL27
 7796 01dd 60000000 		.4byte	.LVL33
 7797 01e1 0100     		.2byte	0x1
 7798 01e3 54       		.byte	0x54
 7799 01e4 00000000 		.4byte	0
 7800 01e8 00000000 		.4byte	0
 7801              	.LLST13:
 7802 01ec 50000000 		.4byte	.LVL30
 7803 01f0 58000000 		.4byte	.LVL31
 7804 01f4 0100     		.2byte	0x1
 7805 01f6 50       		.byte	0x50
 7806 01f7 00000000 		.4byte	0
 7807 01fb 00000000 		.4byte	0
 7808              	.LLST14:
 7809 01ff 00000000 		.4byte	.LVL44
 7810 0203 09000000 		.4byte	.LVL45-1
 7811 0207 0100     		.2byte	0x1
 7812 0209 50       		.byte	0x50
 7813 020a 09000000 		.4byte	.LVL45-1
 7814 020e 18000000 		.4byte	.LFE68
 7815 0212 0400     		.2byte	0x4
 7816 0214 F3       		.byte	0xf3
 7817 0215 01       		.uleb128 0x1
 7818 0216 50       		.byte	0x50
 7819 0217 9F       		.byte	0x9f
 7820 0218 00000000 		.4byte	0
 7821 021c 00000000 		.4byte	0
 7822              	.LLST15:
 7823 0220 00000000 		.4byte	.LVL44
 7824 0224 09000000 		.4byte	.LVL45-1
 7825 0228 0100     		.2byte	0x1
 7826 022a 51       		.byte	0x51
 7827 022b 09000000 		.4byte	.LVL45-1
 7828 022f 18000000 		.4byte	.LFE68
 7829 0233 0400     		.2byte	0x4
 7830 0235 F3       		.byte	0xf3
 7831 0236 01       		.uleb128 0x1
 7832 0237 51       		.byte	0x51
 7833 0238 9F       		.byte	0x9f
 7834 0239 00000000 		.4byte	0
 7835 023d 00000000 		.4byte	0
ARM GAS  C:\Users\nikod\AppData\Local\Temp\cc4NWLo4.s 			page 159


 7836              	.LLST16:
 7837 0241 0A000000 		.4byte	.LVL45
 7838 0245 12000000 		.4byte	.LVL46
 7839 0249 0100     		.2byte	0x1
 7840 024b 50       		.byte	0x50
 7841 024c 00000000 		.4byte	0
 7842 0250 00000000 		.4byte	0
 7843              	.LLST17:
 7844 0254 00000000 		.4byte	.LVL48
 7845 0258 09000000 		.4byte	.LVL49-1
 7846 025c 0100     		.2byte	0x1
 7847 025e 50       		.byte	0x50
 7848 025f 09000000 		.4byte	.LVL49-1
 7849 0263 18000000 		.4byte	.LFE69
 7850 0267 0400     		.2byte	0x4
 7851 0269 F3       		.byte	0xf3
 7852 026a 01       		.uleb128 0x1
 7853 026b 50       		.byte	0x50
 7854 026c 9F       		.byte	0x9f
 7855 026d 00000000 		.4byte	0
 7856 0271 00000000 		.4byte	0
 7857              	.LLST18:
 7858 0275 00000000 		.4byte	.LVL48
 7859 0279 09000000 		.4byte	.LVL49-1
 7860 027d 0100     		.2byte	0x1
 7861 027f 51       		.byte	0x51
 7862 0280 09000000 		.4byte	.LVL49-1
 7863 0284 18000000 		.4byte	.LFE69
 7864 0288 0400     		.2byte	0x4
 7865 028a F3       		.byte	0xf3
 7866 028b 01       		.uleb128 0x1
 7867 028c 51       		.byte	0x51
 7868 028d 9F       		.byte	0x9f
 7869 028e 00000000 		.4byte	0
 7870 0292 00000000 		.4byte	0
 7871              	.LLST19:
 7872 0296 0A000000 		.4byte	.LVL49
 7873 029a 12000000 		.4byte	.LVL50
 7874 029e 0100     		.2byte	0x1
 7875 02a0 50       		.byte	0x50
 7876 02a1 00000000 		.4byte	0
 7877 02a5 00000000 		.4byte	0
 7878              	.LLST20:
 7879 02a9 00000000 		.4byte	.LVL52
 7880 02ad 0C000000 		.4byte	.LVL54
 7881 02b1 0100     		.2byte	0x1
 7882 02b3 50       		.byte	0x50
 7883 02b4 0C000000 		.4byte	.LVL54
 7884 02b8 6C000000 		.4byte	.LFE70
 7885 02bc 0100     		.2byte	0x1
 7886 02be 56       		.byte	0x56
 7887 02bf 00000000 		.4byte	0
 7888 02c3 00000000 		.4byte	0
 7889              	.LLST21:
 7890 02c7 00000000 		.4byte	.LVL52
 7891 02cb 0A000000 		.4byte	.LVL53
 7892 02cf 0100     		.2byte	0x1
ARM GAS  C:\Users\nikod\AppData\Local\Temp\cc4NWLo4.s 			page 160


 7893 02d1 51       		.byte	0x51
 7894 02d2 0A000000 		.4byte	.LVL53
 7895 02d6 6C000000 		.4byte	.LFE70
 7896 02da 0400     		.2byte	0x4
 7897 02dc F3       		.byte	0xf3
 7898 02dd 01       		.uleb128 0x1
 7899 02de 51       		.byte	0x51
 7900 02df 9F       		.byte	0x9f
 7901 02e0 00000000 		.4byte	0
 7902 02e4 00000000 		.4byte	0
 7903              	.LLST22:
 7904 02e8 00000000 		.4byte	.LVL52
 7905 02ec 0F000000 		.4byte	.LVL55-1
 7906 02f0 0100     		.2byte	0x1
 7907 02f2 52       		.byte	0x52
 7908 02f3 0F000000 		.4byte	.LVL55-1
 7909 02f7 6C000000 		.4byte	.LFE70
 7910 02fb 0100     		.2byte	0x1
 7911 02fd 55       		.byte	0x55
 7912 02fe 00000000 		.4byte	0
 7913 0302 00000000 		.4byte	0
 7914              	.LLST23:
 7915 0306 32000000 		.4byte	.LVL59
 7916 030a 38000000 		.4byte	.LVL60
 7917 030e 0400     		.2byte	0x4
 7918 0310 0A       		.byte	0xa
 7919 0311 8813     		.2byte	0x1388
 7920 0313 9F       		.byte	0x9f
 7921 0314 38000000 		.4byte	.LVL60
 7922 0318 62000000 		.4byte	.LVL67
 7923 031c 0100     		.2byte	0x1
 7924 031e 54       		.byte	0x54
 7925 031f 64000000 		.4byte	.LVL68
 7926 0323 6C000000 		.4byte	.LFE70
 7927 0327 0100     		.2byte	0x1
 7928 0329 54       		.byte	0x54
 7929 032a 00000000 		.4byte	0
 7930 032e 00000000 		.4byte	0
 7931              	.LLST24:
 7932 0332 3E000000 		.4byte	.LVL61
 7933 0336 48000000 		.4byte	.LVL62
 7934 033a 0100     		.2byte	0x1
 7935 033c 50       		.byte	0x50
 7936 033d 60000000 		.4byte	.LVL66
 7937 0341 64000000 		.4byte	.LVL68
 7938 0345 0100     		.2byte	0x1
 7939 0347 50       		.byte	0x50
 7940 0348 00000000 		.4byte	0
 7941 034c 00000000 		.4byte	0
 7942              	.LLST25:
 7943 0350 0A000000 		.4byte	.LVL69
 7944 0354 0C000000 		.4byte	.LVL70
 7945 0358 0200     		.2byte	0x2
 7946 035a 30       		.byte	0x30
 7947 035b 9F       		.byte	0x9f
 7948 035c 0C000000 		.4byte	.LVL70
 7949 0360 20000000 		.4byte	.LVL73
ARM GAS  C:\Users\nikod\AppData\Local\Temp\cc4NWLo4.s 			page 161


 7950 0364 0100     		.2byte	0x1
 7951 0366 54       		.byte	0x54
 7952 0367 22000000 		.4byte	.LVL74
 7953 036b 28000000 		.4byte	.LFE72
 7954 036f 0100     		.2byte	0x1
 7955 0371 54       		.byte	0x54
 7956 0372 00000000 		.4byte	0
 7957 0376 00000000 		.4byte	0
 7958              	.LLST26:
 7959 037a 08000000 		.4byte	.LVL75
 7960 037e 18000000 		.4byte	.LVL76
 7961 0382 0100     		.2byte	0x1
 7962 0384 50       		.byte	0x50
 7963 0385 00000000 		.4byte	0
 7964 0389 00000000 		.4byte	0
 7965              	.LLST27:
 7966 038d 00000000 		.4byte	.LVL92
 7967 0391 07000000 		.4byte	.LVL93-1
 7968 0395 0100     		.2byte	0x1
 7969 0397 50       		.byte	0x50
 7970 0398 07000000 		.4byte	.LVL93-1
 7971 039c 20000000 		.4byte	.LFE76
 7972 03a0 0400     		.2byte	0x4
 7973 03a2 F3       		.byte	0xf3
 7974 03a3 01       		.uleb128 0x1
 7975 03a4 50       		.byte	0x50
 7976 03a5 9F       		.byte	0x9f
 7977 03a6 00000000 		.4byte	0
 7978 03aa 00000000 		.4byte	0
 7979              	.LLST28:
 7980 03ae 54000000 		.4byte	.LVL104
 7981 03b2 5C000000 		.4byte	.LVL106
 7982 03b6 0100     		.2byte	0x1
 7983 03b8 50       		.byte	0x50
 7984 03b9 00000000 		.4byte	0
 7985 03bd 00000000 		.4byte	0
 7986              	.LLST29:
 7987 03c1 4C000000 		.4byte	.LVL102
 7988 03c5 4E000000 		.4byte	.LVL103
 7989 03c9 0200     		.2byte	0x2
 7990 03cb 30       		.byte	0x30
 7991 03cc 9F       		.byte	0x9f
 7992 03cd 4E000000 		.4byte	.LVL103
 7993 03d1 5A000000 		.4byte	.LVL105
 7994 03d5 0100     		.2byte	0x1
 7995 03d7 54       		.byte	0x54
 7996 03d8 5C000000 		.4byte	.LVL106
 7997 03dc 82000000 		.4byte	.LFE77
 7998 03e0 0100     		.2byte	0x1
 7999 03e2 54       		.byte	0x54
 8000 03e3 00000000 		.4byte	0
 8001 03e7 00000000 		.4byte	0
 8002              	.LLST30:
 8003 03eb 08000000 		.4byte	.LVL110
 8004 03ef 0C000000 		.4byte	.LVL111
 8005 03f3 0100     		.2byte	0x1
 8006 03f5 50       		.byte	0x50
ARM GAS  C:\Users\nikod\AppData\Local\Temp\cc4NWLo4.s 			page 162


 8007 03f6 0C000000 		.4byte	.LVL111
 8008 03fa 13000000 		.4byte	.LVL112-1
 8009 03fe 0100     		.2byte	0x1
 8010 0400 51       		.byte	0x51
 8011 0401 00000000 		.4byte	0
 8012 0405 00000000 		.4byte	0
 8013              	.LLST31:
 8014 0409 08000000 		.4byte	.LVL113
 8015 040d 0E000000 		.4byte	.LVL114
 8016 0411 0600     		.2byte	0x6
 8017 0413 70       		.byte	0x70
 8018 0414 00       		.sleb128 0
 8019 0415 08       		.byte	0x8
 8020 0416 EF       		.byte	0xef
 8021 0417 1A       		.byte	0x1a
 8022 0418 9F       		.byte	0x9f
 8023 0419 1C000000 		.4byte	.LVL117
 8024 041d 28000000 		.4byte	.LVL120
 8025 0421 0100     		.2byte	0x1
 8026 0423 50       		.byte	0x50
 8027 0424 00000000 		.4byte	0
 8028 0428 00000000 		.4byte	0
 8029              	.LLST32:
 8030 042c 12000000 		.4byte	.LVL115
 8031 0430 16000000 		.4byte	.LVL116
 8032 0434 0200     		.2byte	0x2
 8033 0436 30       		.byte	0x30
 8034 0437 9F       		.byte	0x9f
 8035 0438 16000000 		.4byte	.LVL116
 8036 043c 24000000 		.4byte	.LVL118
 8037 0440 0100     		.2byte	0x1
 8038 0442 54       		.byte	0x54
 8039 0443 26000000 		.4byte	.LVL119
 8040 0447 34000000 		.4byte	.LFE79
 8041 044b 0100     		.2byte	0x1
 8042 044d 54       		.byte	0x54
 8043 044e 00000000 		.4byte	0
 8044 0452 00000000 		.4byte	0
 8045              	.LLST33:
 8046 0456 00000000 		.4byte	.LVL122
 8047 045a 28000000 		.4byte	.LVL127
 8048 045e 0100     		.2byte	0x1
 8049 0460 50       		.byte	0x50
 8050 0461 28000000 		.4byte	.LVL127
 8051 0465 5E010000 		.4byte	.LFE81
 8052 0469 0400     		.2byte	0x4
 8053 046b F3       		.byte	0xf3
 8054 046c 01       		.uleb128 0x1
 8055 046d 50       		.byte	0x50
 8056 046e 9F       		.byte	0x9f
 8057 046f 00000000 		.4byte	0
 8058 0473 00000000 		.4byte	0
 8059              	.LLST34:
 8060 0477 00000000 		.4byte	.LVL122
 8061 047b 26000000 		.4byte	.LVL126
 8062 047f 0100     		.2byte	0x1
 8063 0481 51       		.byte	0x51
ARM GAS  C:\Users\nikod\AppData\Local\Temp\cc4NWLo4.s 			page 163


 8064 0482 26000000 		.4byte	.LVL126
 8065 0486 5E010000 		.4byte	.LFE81
 8066 048a 0400     		.2byte	0x4
 8067 048c F3       		.byte	0xf3
 8068 048d 01       		.uleb128 0x1
 8069 048e 51       		.byte	0x51
 8070 048f 9F       		.byte	0x9f
 8071 0490 00000000 		.4byte	0
 8072 0494 00000000 		.4byte	0
 8073              	.LLST35:
 8074 0498 00000000 		.4byte	.LVL122
 8075 049c 2B000000 		.4byte	.LVL128-1
 8076 04a0 0100     		.2byte	0x1
 8077 04a2 52       		.byte	0x52
 8078 04a3 2B000000 		.4byte	.LVL128-1
 8079 04a7 5E010000 		.4byte	.LFE81
 8080 04ab 0100     		.2byte	0x1
 8081 04ad 5A       		.byte	0x5a
 8082 04ae 00000000 		.4byte	0
 8083 04b2 00000000 		.4byte	0
 8084              	.LLST36:
 8085 04b6 00000000 		.4byte	.LVL122
 8086 04ba 2B000000 		.4byte	.LVL128-1
 8087 04be 0100     		.2byte	0x1
 8088 04c0 53       		.byte	0x53
 8089 04c1 2B000000 		.4byte	.LVL128-1
 8090 04c5 5E010000 		.4byte	.LFE81
 8091 04c9 0400     		.2byte	0x4
 8092 04cb F3       		.byte	0xf3
 8093 04cc 01       		.uleb128 0x1
 8094 04cd 53       		.byte	0x53
 8095 04ce 9F       		.byte	0x9f
 8096 04cf 00000000 		.4byte	0
 8097 04d3 00000000 		.4byte	0
 8098              	.LLST37:
 8099 04d7 1E000000 		.4byte	.LVL123
 8100 04db 22000000 		.4byte	.LVL124
 8101 04df 0100     		.2byte	0x1
 8102 04e1 54       		.byte	0x54
 8103 04e2 00000000 		.4byte	0
 8104 04e6 00000000 		.4byte	0
 8105              	.LLST38:
 8106 04ea 24000000 		.4byte	.LVL125
 8107 04ee 68000000 		.4byte	.LVL135
 8108 04f2 0100     		.2byte	0x1
 8109 04f4 54       		.byte	0x54
 8110 04f5 00000000 		.4byte	0
 8111 04f9 00000000 		.4byte	0
 8112              	.LLST39:
 8113 04fd 6A000000 		.4byte	.LVL136
 8114 0501 7C000000 		.4byte	.LVL138
 8115 0505 0100     		.2byte	0x1
 8116 0507 54       		.byte	0x54
 8117 0508 7E000000 		.4byte	.LVL139
 8118 050c 8E000000 		.4byte	.LVL141
 8119 0510 0100     		.2byte	0x1
 8120 0512 54       		.byte	0x54
ARM GAS  C:\Users\nikod\AppData\Local\Temp\cc4NWLo4.s 			page 164


 8121 0513 44010000 		.4byte	.LVL157
 8122 0517 46010000 		.4byte	.LVL158
 8123 051b 0100     		.2byte	0x1
 8124 051d 54       		.byte	0x54
 8125 051e 48010000 		.4byte	.LVL159
 8126 0522 4A010000 		.4byte	.LVL160
 8127 0526 0100     		.2byte	0x1
 8128 0528 54       		.byte	0x54
 8129 0529 00000000 		.4byte	0
 8130 052d 00000000 		.4byte	0
 8131              	.LLST40:
 8132 0531 70000000 		.4byte	.LVL137
 8133 0535 7E000000 		.4byte	.LVL139
 8134 0539 0100     		.2byte	0x1
 8135 053b 50       		.byte	0x50
 8136 053c 44010000 		.4byte	.LVL157
 8137 0540 48010000 		.4byte	.LVL159
 8138 0544 0100     		.2byte	0x1
 8139 0546 50       		.byte	0x50
 8140 0547 00000000 		.4byte	0
 8141 054b 00000000 		.4byte	0
 8142              	.LLST41:
 8143 054f 8E000000 		.4byte	.LVL141
 8144 0553 9E000000 		.4byte	.LVL143
 8145 0557 0100     		.2byte	0x1
 8146 0559 50       		.byte	0x50
 8147 055a CA000000 		.4byte	.LVL149
 8148 055e CC000000 		.4byte	.LVL150
 8149 0562 0100     		.2byte	0x1
 8150 0564 50       		.byte	0x50
 8151 0565 CE000000 		.4byte	.LVL151
 8152 0569 D0000000 		.4byte	.LVL152
 8153 056d 0100     		.2byte	0x1
 8154 056f 50       		.byte	0x50
 8155 0570 4C010000 		.4byte	.LVL161
 8156 0574 50010000 		.4byte	.LVL162
 8157 0578 0100     		.2byte	0x1
 8158 057a 50       		.byte	0x50
 8159 057b 00000000 		.4byte	0
 8160 057f 00000000 		.4byte	0
 8161              	.LLST42:
 8162 0583 94000000 		.4byte	.LVL142
 8163 0587 C4000000 		.4byte	.LVL148
 8164 058b 0200     		.2byte	0x2
 8165 058d 30       		.byte	0x30
 8166 058e 9F       		.byte	0x9f
 8167 058f C4000000 		.4byte	.LVL148
 8168 0593 CA000000 		.4byte	.LVL149
 8169 0597 0100     		.2byte	0x1
 8170 0599 50       		.byte	0x50
 8171 059a CA000000 		.4byte	.LVL149
 8172 059e D0000000 		.4byte	.LVL152
 8173 05a2 0200     		.2byte	0x2
 8174 05a4 30       		.byte	0x30
 8175 05a5 9F       		.byte	0x9f
 8176 05a6 D0000000 		.4byte	.LVL152
 8177 05aa 00010000 		.4byte	.LVL153
ARM GAS  C:\Users\nikod\AppData\Local\Temp\cc4NWLo4.s 			page 165


 8178 05ae 0100     		.2byte	0x1
 8179 05b0 50       		.byte	0x50
 8180 05b1 2C010000 		.4byte	.LVL155
 8181 05b5 38010000 		.4byte	.LVL156
 8182 05b9 0100     		.2byte	0x1
 8183 05bb 50       		.byte	0x50
 8184 05bc 50010000 		.4byte	.LVL162
 8185 05c0 54010000 		.4byte	.LVL163
 8186 05c4 0200     		.2byte	0x2
 8187 05c6 30       		.byte	0x30
 8188 05c7 9F       		.byte	0x9f
 8189 05c8 54010000 		.4byte	.LVL163
 8190 05cc 56010000 		.4byte	.LVL164
 8191 05d0 0100     		.2byte	0x1
 8192 05d2 50       		.byte	0x50
 8193 05d3 00000000 		.4byte	0
 8194 05d7 00000000 		.4byte	0
 8195              	.LLST43:
 8196 05db A2000000 		.4byte	.LVL144
 8197 05df B6000000 		.4byte	.LVL145
 8198 05e3 0100     		.2byte	0x1
 8199 05e5 50       		.byte	0x50
 8200 05e6 B6000000 		.4byte	.LVL145
 8201 05ea B9000000 		.4byte	.LVL146-1
 8202 05ee 0300     		.2byte	0x3
 8203 05f0 91       		.byte	0x91
 8204 05f1 04       		.sleb128 4
 8205 05f2 06       		.byte	0x6
 8206 05f3 50010000 		.4byte	.LVL162
 8207 05f7 54010000 		.4byte	.LVL163
 8208 05fb 0100     		.2byte	0x1
 8209 05fd 50       		.byte	0x50
 8210 05fe 00000000 		.4byte	0
 8211 0602 00000000 		.4byte	0
 8212              	.LLST44:
 8213 0606 04010000 		.4byte	.LVL154
 8214 060a 2C010000 		.4byte	.LVL155
 8215 060e 0100     		.2byte	0x1
 8216 0610 50       		.byte	0x50
 8217 0611 38010000 		.4byte	.LVL156
 8218 0615 44010000 		.4byte	.LVL157
 8219 0619 0100     		.2byte	0x1
 8220 061b 50       		.byte	0x50
 8221 061c 00000000 		.4byte	0
 8222 0620 00000000 		.4byte	0
 8223              	.LLST45:
 8224 0624 00000000 		.4byte	.LVL165
 8225 0628 20000000 		.4byte	.LVL170
 8226 062c 0100     		.2byte	0x1
 8227 062e 50       		.byte	0x50
 8228 062f 20000000 		.4byte	.LVL170
 8229 0633 23000000 		.4byte	.LVL171-1
 8230 0637 0100     		.2byte	0x1
 8231 0639 52       		.byte	0x52
 8232 063a 23000000 		.4byte	.LVL171-1
 8233 063e 28000000 		.4byte	.LFE80
 8234 0642 0400     		.2byte	0x4
ARM GAS  C:\Users\nikod\AppData\Local\Temp\cc4NWLo4.s 			page 166


 8235 0644 F3       		.byte	0xf3
 8236 0645 01       		.uleb128 0x1
 8237 0646 50       		.byte	0x50
 8238 0647 9F       		.byte	0x9f
 8239 0648 00000000 		.4byte	0
 8240 064c 00000000 		.4byte	0
 8241              	.LLST46:
 8242 0650 00000000 		.4byte	.LVL165
 8243 0654 1E000000 		.4byte	.LVL169
 8244 0658 0100     		.2byte	0x1
 8245 065a 51       		.byte	0x51
 8246 065b 1E000000 		.4byte	.LVL169
 8247 065f 28000000 		.4byte	.LFE80
 8248 0663 0400     		.2byte	0x4
 8249 0665 F3       		.byte	0xf3
 8250 0666 01       		.uleb128 0x1
 8251 0667 51       		.byte	0x51
 8252 0668 9F       		.byte	0x9f
 8253 0669 00000000 		.4byte	0
 8254 066d 00000000 		.4byte	0
 8255              	.LLST47:
 8256 0671 00000000 		.4byte	.LVL165
 8257 0675 1C000000 		.4byte	.LVL168
 8258 0679 0100     		.2byte	0x1
 8259 067b 52       		.byte	0x52
 8260 067c 1C000000 		.4byte	.LVL168
 8261 0680 23000000 		.4byte	.LVL171-1
 8262 0684 0200     		.2byte	0x2
 8263 0686 7D       		.byte	0x7d
 8264 0687 00       		.sleb128 0
 8265 0688 23000000 		.4byte	.LVL171-1
 8266 068c 28000000 		.4byte	.LFE80
 8267 0690 0400     		.2byte	0x4
 8268 0692 F3       		.byte	0xf3
 8269 0693 01       		.uleb128 0x1
 8270 0694 52       		.byte	0x52
 8271 0695 9F       		.byte	0x9f
 8272 0696 00000000 		.4byte	0
 8273 069a 00000000 		.4byte	0
 8274              	.LLST48:
 8275 069e 00000000 		.4byte	.LVL165
 8276 06a2 1A000000 		.4byte	.LVL167
 8277 06a6 0100     		.2byte	0x1
 8278 06a8 53       		.byte	0x53
 8279 06a9 1A000000 		.4byte	.LVL167
 8280 06ad 23000000 		.4byte	.LVL171-1
 8281 06b1 0200     		.2byte	0x2
 8282 06b3 91       		.byte	0x91
 8283 06b4 64       		.sleb128 -28
 8284 06b5 23000000 		.4byte	.LVL171-1
 8285 06b9 28000000 		.4byte	.LFE80
 8286 06bd 0400     		.2byte	0x4
 8287 06bf F3       		.byte	0xf3
 8288 06c0 01       		.uleb128 0x1
 8289 06c1 53       		.byte	0x53
 8290 06c2 9F       		.byte	0x9f
 8291 06c3 00000000 		.4byte	0
ARM GAS  C:\Users\nikod\AppData\Local\Temp\cc4NWLo4.s 			page 167


 8292 06c7 00000000 		.4byte	0
 8293              	.LLST49:
 8294 06cb 00000000 		.4byte	.LVL172
 8295 06cf 1A000000 		.4byte	.LVL174
 8296 06d3 0100     		.2byte	0x1
 8297 06d5 50       		.byte	0x50
 8298 06d6 1A000000 		.4byte	.LVL174
 8299 06da 3A000000 		.4byte	.LVL176
 8300 06de 0200     		.2byte	0x2
 8301 06e0 91       		.byte	0x91
 8302 06e1 67       		.sleb128 -25
 8303 06e2 3A000000 		.4byte	.LVL176
 8304 06e6 3D000000 		.4byte	.LVL177-1
 8305 06ea 0200     		.2byte	0x2
 8306 06ec 70       		.byte	0x70
 8307 06ed 00       		.sleb128 0
 8308 06ee 3D000000 		.4byte	.LVL177-1
 8309 06f2 50000000 		.4byte	.LVL179
 8310 06f6 0200     		.2byte	0x2
 8311 06f8 91       		.byte	0x91
 8312 06f9 67       		.sleb128 -25
 8313 06fa 50000000 		.4byte	.LVL179
 8314 06fe 52000000 		.4byte	.LVL180
 8315 0702 0100     		.2byte	0x1
 8316 0704 50       		.byte	0x50
 8317 0705 52000000 		.4byte	.LVL180
 8318 0709 54000000 		.4byte	.LVL181
 8319 070d 0200     		.2byte	0x2
 8320 070f 91       		.byte	0x91
 8321 0710 67       		.sleb128 -25
 8322 0711 54000000 		.4byte	.LVL181
 8323 0715 56000000 		.4byte	.LVL182
 8324 0719 0100     		.2byte	0x1
 8325 071b 50       		.byte	0x50
 8326 071c 56000000 		.4byte	.LVL182
 8327 0720 60000000 		.4byte	.LFE84
 8328 0724 0200     		.2byte	0x2
 8329 0726 91       		.byte	0x91
 8330 0727 67       		.sleb128 -25
 8331 0728 00000000 		.4byte	0
 8332 072c 00000000 		.4byte	0
 8333              	.LLST50:
 8334 0730 00000000 		.4byte	.LVL172
 8335 0734 0E000000 		.4byte	.LVL173
 8336 0738 0100     		.2byte	0x1
 8337 073a 51       		.byte	0x51
 8338 073b 0E000000 		.4byte	.LVL173
 8339 073f 1D000000 		.4byte	.LVL175-1
 8340 0743 0100     		.2byte	0x1
 8341 0745 53       		.byte	0x53
 8342 0746 1D000000 		.4byte	.LVL175-1
 8343 074a 50000000 		.4byte	.LVL179
 8344 074e 0100     		.2byte	0x1
 8345 0750 55       		.byte	0x55
 8346 0751 50000000 		.4byte	.LVL179
 8347 0755 54000000 		.4byte	.LVL181
 8348 0759 0100     		.2byte	0x1
ARM GAS  C:\Users\nikod\AppData\Local\Temp\cc4NWLo4.s 			page 168


 8349 075b 51       		.byte	0x51
 8350 075c 54000000 		.4byte	.LVL181
 8351 0760 58000000 		.4byte	.LVL183
 8352 0764 0100     		.2byte	0x1
 8353 0766 53       		.byte	0x53
 8354 0767 58000000 		.4byte	.LVL183
 8355 076b 5C000000 		.4byte	.LVL184
 8356 076f 0100     		.2byte	0x1
 8357 0771 55       		.byte	0x55
 8358 0772 5C000000 		.4byte	.LVL184
 8359 0776 60000000 		.4byte	.LFE84
 8360 077a 0400     		.2byte	0x4
 8361 077c F3       		.byte	0xf3
 8362 077d 01       		.uleb128 0x1
 8363 077e 51       		.byte	0x51
 8364 077f 9F       		.byte	0x9f
 8365 0780 00000000 		.4byte	0
 8366 0784 00000000 		.4byte	0
 8367              	.LLST51:
 8368 0788 00000000 		.4byte	.LVL172
 8369 078c 1D000000 		.4byte	.LVL175-1
 8370 0790 0100     		.2byte	0x1
 8371 0792 52       		.byte	0x52
 8372 0793 1D000000 		.4byte	.LVL175-1
 8373 0797 50000000 		.4byte	.LVL179
 8374 079b 0100     		.2byte	0x1
 8375 079d 54       		.byte	0x54
 8376 079e 50000000 		.4byte	.LVL179
 8377 07a2 58000000 		.4byte	.LVL183
 8378 07a6 0100     		.2byte	0x1
 8379 07a8 52       		.byte	0x52
 8380 07a9 58000000 		.4byte	.LVL183
 8381 07ad 5C000000 		.4byte	.LVL184
 8382 07b1 0100     		.2byte	0x1
 8383 07b3 54       		.byte	0x54
 8384 07b4 5C000000 		.4byte	.LVL184
 8385 07b8 60000000 		.4byte	.LFE84
 8386 07bc 0400     		.2byte	0x4
 8387 07be F3       		.byte	0xf3
 8388 07bf 01       		.uleb128 0x1
 8389 07c0 52       		.byte	0x52
 8390 07c1 9F       		.byte	0x9f
 8391 07c2 00000000 		.4byte	0
 8392 07c6 00000000 		.4byte	0
 8393              	.LLST52:
 8394 07ca 3E000000 		.4byte	.LVL177
 8395 07ce 4A000000 		.4byte	.LVL178
 8396 07d2 0100     		.2byte	0x1
 8397 07d4 50       		.byte	0x50
 8398 07d5 58000000 		.4byte	.LVL183
 8399 07d9 5C000000 		.4byte	.LVL184
 8400 07dd 0100     		.2byte	0x1
 8401 07df 50       		.byte	0x50
 8402 07e0 00000000 		.4byte	0
 8403 07e4 00000000 		.4byte	0
 8404              	.LLST53:
 8405 07e8 00000000 		.4byte	.LVL185
ARM GAS  C:\Users\nikod\AppData\Local\Temp\cc4NWLo4.s 			page 169


 8406 07ec 08000000 		.4byte	.LVL187
 8407 07f0 0100     		.2byte	0x1
 8408 07f2 50       		.byte	0x50
 8409 07f3 08000000 		.4byte	.LVL187
 8410 07f7 0B000000 		.4byte	.LVL188-1
 8411 07fb 0100     		.2byte	0x1
 8412 07fd 51       		.byte	0x51
 8413 07fe 0B000000 		.4byte	.LVL188-1
 8414 0802 0E000000 		.4byte	.LFE82
 8415 0806 0400     		.2byte	0x4
 8416 0808 F3       		.byte	0xf3
 8417 0809 01       		.uleb128 0x1
 8418 080a 50       		.byte	0x50
 8419 080b 9F       		.byte	0x9f
 8420 080c 00000000 		.4byte	0
 8421 0810 00000000 		.4byte	0
 8422              	.LLST54:
 8423 0814 00000000 		.4byte	.LVL185
 8424 0818 06000000 		.4byte	.LVL186
 8425 081c 0100     		.2byte	0x1
 8426 081e 51       		.byte	0x51
 8427 081f 06000000 		.4byte	.LVL186
 8428 0823 0B000000 		.4byte	.LVL188-1
 8429 0827 0100     		.2byte	0x1
 8430 0829 52       		.byte	0x52
 8431 082a 0B000000 		.4byte	.LVL188-1
 8432 082e 0E000000 		.4byte	.LFE82
 8433 0832 0400     		.2byte	0x4
 8434 0834 F3       		.byte	0xf3
 8435 0835 01       		.uleb128 0x1
 8436 0836 51       		.byte	0x51
 8437 0837 9F       		.byte	0x9f
 8438 0838 00000000 		.4byte	0
 8439 083c 00000000 		.4byte	0
 8440              	.LLST55:
 8441 0840 00000000 		.4byte	.LVL189
 8442 0844 08000000 		.4byte	.LVL191
 8443 0848 0100     		.2byte	0x1
 8444 084a 50       		.byte	0x50
 8445 084b 08000000 		.4byte	.LVL191
 8446 084f 0B000000 		.4byte	.LVL192-1
 8447 0853 0100     		.2byte	0x1
 8448 0855 51       		.byte	0x51
 8449 0856 0B000000 		.4byte	.LVL192-1
 8450 085a 0E000000 		.4byte	.LFE83
 8451 085e 0400     		.2byte	0x4
 8452 0860 F3       		.byte	0xf3
 8453 0861 01       		.uleb128 0x1
 8454 0862 50       		.byte	0x50
 8455 0863 9F       		.byte	0x9f
 8456 0864 00000000 		.4byte	0
 8457 0868 00000000 		.4byte	0
 8458              	.LLST56:
 8459 086c 00000000 		.4byte	.LVL189
 8460 0870 06000000 		.4byte	.LVL190
 8461 0874 0100     		.2byte	0x1
 8462 0876 51       		.byte	0x51
ARM GAS  C:\Users\nikod\AppData\Local\Temp\cc4NWLo4.s 			page 170


 8463 0877 06000000 		.4byte	.LVL190
 8464 087b 0B000000 		.4byte	.LVL192-1
 8465 087f 0100     		.2byte	0x1
 8466 0881 52       		.byte	0x52
 8467 0882 0B000000 		.4byte	.LVL192-1
 8468 0886 0E000000 		.4byte	.LFE83
 8469 088a 0400     		.2byte	0x4
 8470 088c F3       		.byte	0xf3
 8471 088d 01       		.uleb128 0x1
 8472 088e 51       		.byte	0x51
 8473 088f 9F       		.byte	0x9f
 8474 0890 00000000 		.4byte	0
 8475 0894 00000000 		.4byte	0
 8476              	.LLST57:
 8477 0898 00000000 		.4byte	.LVL193
 8478 089c 14000000 		.4byte	.LVL195
 8479 08a0 0100     		.2byte	0x1
 8480 08a2 50       		.byte	0x50
 8481 08a3 14000000 		.4byte	.LVL195
 8482 08a7 CE020000 		.4byte	.LVL271
 8483 08ab 0100     		.2byte	0x1
 8484 08ad 59       		.byte	0x59
 8485 08ae CE020000 		.4byte	.LVL271
 8486 08b2 D0020000 		.4byte	.LVL272
 8487 08b6 0100     		.2byte	0x1
 8488 08b8 50       		.byte	0x50
 8489 08b9 D0020000 		.4byte	.LVL272
 8490 08bd D2020000 		.4byte	.LVL273
 8491 08c1 0400     		.2byte	0x4
 8492 08c3 F3       		.byte	0xf3
 8493 08c4 01       		.uleb128 0x1
 8494 08c5 50       		.byte	0x50
 8495 08c6 9F       		.byte	0x9f
 8496 08c7 D2020000 		.4byte	.LVL273
 8497 08cb F6020000 		.4byte	.LVL284
 8498 08cf 0100     		.2byte	0x1
 8499 08d1 59       		.byte	0x59
 8500 08d2 F6020000 		.4byte	.LVL284
 8501 08d6 FC020000 		.4byte	.LFE85
 8502 08da 0400     		.2byte	0x4
 8503 08dc F3       		.byte	0xf3
 8504 08dd 01       		.uleb128 0x1
 8505 08de 50       		.byte	0x50
 8506 08df 9F       		.byte	0x9f
 8507 08e0 00000000 		.4byte	0
 8508 08e4 00000000 		.4byte	0
 8509              	.LLST58:
 8510 08e8 00000000 		.4byte	.LVL193
 8511 08ec 12000000 		.4byte	.LVL194
 8512 08f0 0100     		.2byte	0x1
 8513 08f2 51       		.byte	0x51
 8514 08f3 12000000 		.4byte	.LVL194
 8515 08f7 CE020000 		.4byte	.LVL271
 8516 08fb 0400     		.2byte	0x4
 8517 08fd F3       		.byte	0xf3
 8518 08fe 01       		.uleb128 0x1
 8519 08ff 51       		.byte	0x51
ARM GAS  C:\Users\nikod\AppData\Local\Temp\cc4NWLo4.s 			page 171


 8520 0900 9F       		.byte	0x9f
 8521 0901 CE020000 		.4byte	.LVL271
 8522 0905 D2020000 		.4byte	.LVL273
 8523 0909 0100     		.2byte	0x1
 8524 090b 51       		.byte	0x51
 8525 090c D2020000 		.4byte	.LVL273
 8526 0910 FC020000 		.4byte	.LFE85
 8527 0914 0400     		.2byte	0x4
 8528 0916 F3       		.byte	0xf3
 8529 0917 01       		.uleb128 0x1
 8530 0918 51       		.byte	0x51
 8531 0919 9F       		.byte	0x9f
 8532 091a 00000000 		.4byte	0
 8533 091e 00000000 		.4byte	0
 8534              	.LLST59:
 8535 0922 18000000 		.4byte	.LVL196
 8536 0926 22000000 		.4byte	.LVL197
 8537 092a 0200     		.2byte	0x2
 8538 092c 30       		.byte	0x30
 8539 092d 9F       		.byte	0x9f
 8540 092e 22000000 		.4byte	.LVL197
 8541 0932 AE020000 		.4byte	.LVL268
 8542 0936 0200     		.2byte	0x2
 8543 0938 91       		.byte	0x91
 8544 0939 44       		.sleb128 -60
 8545 093a AE020000 		.4byte	.LVL268
 8546 093e B6020000 		.4byte	.LVL269
 8547 0942 0200     		.2byte	0x2
 8548 0944 31       		.byte	0x31
 8549 0945 9F       		.byte	0x9f
 8550 0946 B6020000 		.4byte	.LVL269
 8551 094a CE020000 		.4byte	.LVL271
 8552 094e 0200     		.2byte	0x2
 8553 0950 91       		.byte	0x91
 8554 0951 44       		.sleb128 -60
 8555 0952 D2020000 		.4byte	.LVL273
 8556 0956 F6020000 		.4byte	.LVL284
 8557 095a 0200     		.2byte	0x2
 8558 095c 91       		.byte	0x91
 8559 095d 44       		.sleb128 -60
 8560 095e F6020000 		.4byte	.LVL284
 8561 0962 FC020000 		.4byte	.LFE85
 8562 0966 0200     		.2byte	0x2
 8563 0968 7D       		.byte	0x7d
 8564 0969 44       		.sleb128 -60
 8565 096a 00000000 		.4byte	0
 8566 096e 00000000 		.4byte	0
 8567              	.LLST60:
 8568 0972 FE000000 		.4byte	.LVL223
 8569 0976 26020000 		.4byte	.LVL253
 8570 097a 0100     		.2byte	0x1
 8571 097c 58       		.byte	0x58
 8572 097d 28020000 		.4byte	.LVL254
 8573 0981 B6020000 		.4byte	.LVL269
 8574 0985 0100     		.2byte	0x1
 8575 0987 58       		.byte	0x58
 8576 0988 D6020000 		.4byte	.LVL274
ARM GAS  C:\Users\nikod\AppData\Local\Temp\cc4NWLo4.s 			page 172


 8577 098c F0020000 		.4byte	.LVL283
 8578 0990 0100     		.2byte	0x1
 8579 0992 58       		.byte	0x58
 8580 0993 00000000 		.4byte	0
 8581 0997 00000000 		.4byte	0
 8582              	.LLST61:
 8583 099b 52000000 		.4byte	.LVL199
 8584 099f 58000000 		.4byte	.LVL200
 8585 09a3 0100     		.2byte	0x1
 8586 09a5 56       		.byte	0x56
 8587 09a6 74000000 		.4byte	.LVL202
 8588 09aa 7A000000 		.4byte	.LVL203
 8589 09ae 0100     		.2byte	0x1
 8590 09b0 56       		.byte	0x56
 8591 09b1 80000000 		.4byte	.LVL204
 8592 09b5 86000000 		.4byte	.LVL205
 8593 09b9 0200     		.2byte	0x2
 8594 09bb 30       		.byte	0x30
 8595 09bc 9F       		.byte	0x9f
 8596 09bd 86000000 		.4byte	.LVL205
 8597 09c1 FE000000 		.4byte	.LVL223
 8598 09c5 0100     		.2byte	0x1
 8599 09c7 56       		.byte	0x56
 8600 09c8 00000000 		.4byte	0
 8601 09cc 00000000 		.4byte	0
 8602              	.LLST62:
 8603 09d0 00000000 		.4byte	.LVL193
 8604 09d4 22000000 		.4byte	.LVL197
 8605 09d8 0200     		.2byte	0x2
 8606 09da 31       		.byte	0x31
 8607 09db 9F       		.byte	0x9f
 8608 09dc 22000000 		.4byte	.LVL197
 8609 09e0 A8020000 		.4byte	.LVL266
 8610 09e4 0100     		.2byte	0x1
 8611 09e6 5B       		.byte	0x5b
 8612 09e7 AC020000 		.4byte	.LVL267
 8613 09eb C2020000 		.4byte	.LVL270
 8614 09ef 0100     		.2byte	0x1
 8615 09f1 5B       		.byte	0x5b
 8616 09f2 CE020000 		.4byte	.LVL271
 8617 09f6 D2020000 		.4byte	.LVL273
 8618 09fa 0200     		.2byte	0x2
 8619 09fc 31       		.byte	0x31
 8620 09fd 9F       		.byte	0x9f
 8621 09fe D2020000 		.4byte	.LVL273
 8622 0a02 F0020000 		.4byte	.LVL283
 8623 0a06 0100     		.2byte	0x1
 8624 0a08 5B       		.byte	0x5b
 8625 0a09 00000000 		.4byte	0
 8626 0a0d 00000000 		.4byte	0
 8627              	.LLST63:
 8628 0a11 2E010000 		.4byte	.LVL224
 8629 0a15 48010000 		.4byte	.LVL227
 8630 0a19 0100     		.2byte	0x1
 8631 0a1b 50       		.byte	0x50
 8632 0a1c B4010000 		.4byte	.LVL237
 8633 0a20 BA010000 		.4byte	.LVL238
ARM GAS  C:\Users\nikod\AppData\Local\Temp\cc4NWLo4.s 			page 173


 8634 0a24 0100     		.2byte	0x1
 8635 0a26 50       		.byte	0x50
 8636 0a27 1A020000 		.4byte	.LVL252
 8637 0a2b 2A020000 		.4byte	.LVL255
 8638 0a2f 0100     		.2byte	0x1
 8639 0a31 50       		.byte	0x50
 8640 0a32 86020000 		.4byte	.LVL265
 8641 0a36 B6020000 		.4byte	.LVL269
 8642 0a3a 0100     		.2byte	0x1
 8643 0a3c 50       		.byte	0x50
 8644 0a3d D6020000 		.4byte	.LVL274
 8645 0a41 D8020000 		.4byte	.LVL275
 8646 0a45 0100     		.2byte	0x1
 8647 0a47 50       		.byte	0x50
 8648 0a48 E8020000 		.4byte	.LVL280
 8649 0a4c EC020000 		.4byte	.LVL281
 8650 0a50 0100     		.2byte	0x1
 8651 0a52 50       		.byte	0x50
 8652 0a53 EE020000 		.4byte	.LVL282
 8653 0a57 F0020000 		.4byte	.LVL283
 8654 0a5b 0100     		.2byte	0x1
 8655 0a5d 50       		.byte	0x50
 8656 0a5e 00000000 		.4byte	0
 8657 0a62 00000000 		.4byte	0
 8658              	.LLST64:
 8659 0a66 CE000000 		.4byte	.LVL214
 8660 0a6a D2000000 		.4byte	.LVL215
 8661 0a6e 0200     		.2byte	0x2
 8662 0a70 30       		.byte	0x30
 8663 0a71 9F       		.byte	0x9f
 8664 0a72 D2000000 		.4byte	.LVL215
 8665 0a76 E8000000 		.4byte	.LVL217
 8666 0a7a 0100     		.2byte	0x1
 8667 0a7c 53       		.byte	0x53
 8668 0a7d EA000000 		.4byte	.LVL218
 8669 0a81 F0000000 		.4byte	.LVL220
 8670 0a85 0100     		.2byte	0x1
 8671 0a87 53       		.byte	0x53
 8672 0a88 68010000 		.4byte	.LVL228
 8673 0a8c 6A010000 		.4byte	.LVL229
 8674 0a90 0100     		.2byte	0x1
 8675 0a92 53       		.byte	0x53
 8676 0a93 6A010000 		.4byte	.LVL229
 8677 0a97 6C010000 		.4byte	.LVL230
 8678 0a9b 0300     		.2byte	0x3
 8679 0a9d 73       		.byte	0x73
 8680 0a9e 7E       		.sleb128 -2
 8681 0a9f 9F       		.byte	0x9f
 8682 0aa0 DC010000 		.4byte	.LVL244
 8683 0aa4 F2010000 		.4byte	.LVL246
 8684 0aa8 0100     		.2byte	0x1
 8685 0aaa 53       		.byte	0x53
 8686 0aab F2010000 		.4byte	.LVL246
 8687 0aaf F8010000 		.4byte	.LVL247
 8688 0ab3 0500     		.2byte	0x5
 8689 0ab5 75       		.byte	0x75
 8690 0ab6 00       		.sleb128 0
ARM GAS  C:\Users\nikod\AppData\Local\Temp\cc4NWLo4.s 			page 174


 8691 0ab7 37       		.byte	0x37
 8692 0ab8 1A       		.byte	0x1a
 8693 0ab9 9F       		.byte	0x9f
 8694 0aba F8010000 		.4byte	.LVL247
 8695 0abe FA010000 		.4byte	.LVL248
 8696 0ac2 0500     		.2byte	0x5
 8697 0ac4 71       		.byte	0x71
 8698 0ac5 00       		.sleb128 0
 8699 0ac6 37       		.byte	0x37
 8700 0ac7 1A       		.byte	0x1a
 8701 0ac8 9F       		.byte	0x9f
 8702 0ac9 FA010000 		.4byte	.LVL248
 8703 0acd 1A020000 		.4byte	.LVL252
 8704 0ad1 0500     		.2byte	0x5
 8705 0ad3 75       		.byte	0x75
 8706 0ad4 00       		.sleb128 0
 8707 0ad5 37       		.byte	0x37
 8708 0ad6 1A       		.byte	0x1a
 8709 0ad7 9F       		.byte	0x9f
 8710 0ad8 4A020000 		.4byte	.LVL257
 8711 0adc 4E020000 		.4byte	.LVL258
 8712 0ae0 0200     		.2byte	0x2
 8713 0ae2 30       		.byte	0x30
 8714 0ae3 9F       		.byte	0x9f
 8715 0ae4 4E020000 		.4byte	.LVL258
 8716 0ae8 64020000 		.4byte	.LVL260
 8717 0aec 0100     		.2byte	0x1
 8718 0aee 53       		.byte	0x53
 8719 0aef 66020000 		.4byte	.LVL261
 8720 0af3 70020000 		.4byte	.LVL263
 8721 0af7 0100     		.2byte	0x1
 8722 0af9 53       		.byte	0x53
 8723 0afa 00000000 		.4byte	0
 8724 0afe 00000000 		.4byte	0
 8725              	.LLST65:
 8726 0b02 EC010000 		.4byte	.LVL245
 8727 0b06 04020000 		.4byte	.LVL250
 8728 0b0a 0100     		.2byte	0x1
 8729 0b0c 52       		.byte	0x52
 8730 0b0d 00000000 		.4byte	0
 8731 0b11 00000000 		.4byte	0
 8732              	.LLST66:
 8733 0b15 94000000 		.4byte	.LVL207
 8734 0b19 96000000 		.4byte	.LVL208
 8735 0b1d 0200     		.2byte	0x2
 8736 0b1f 32       		.byte	0x32
 8737 0b20 9F       		.byte	0x9f
 8738 0b21 96000000 		.4byte	.LVL208
 8739 0b25 A0000000 		.4byte	.LVL209
 8740 0b29 0200     		.2byte	0x2
 8741 0b2b 33       		.byte	0x33
 8742 0b2c 9F       		.byte	0x9f
 8743 0b2d A0000000 		.4byte	.LVL209
 8744 0b31 A2000000 		.4byte	.LVL210
 8745 0b35 0200     		.2byte	0x2
 8746 0b37 32       		.byte	0x32
 8747 0b38 9F       		.byte	0x9f
ARM GAS  C:\Users\nikod\AppData\Local\Temp\cc4NWLo4.s 			page 175


 8748 0b39 A2000000 		.4byte	.LVL210
 8749 0b3d D4000000 		.4byte	.LVL216
 8750 0b41 0100     		.2byte	0x1
 8751 0b43 52       		.byte	0x52
 8752 0b44 D4000000 		.4byte	.LVL216
 8753 0b48 EC000000 		.4byte	.LVL219
 8754 0b4c 0100     		.2byte	0x1
 8755 0b4e 50       		.byte	0x50
 8756 0b4f EC000000 		.4byte	.LVL219
 8757 0b53 FE000000 		.4byte	.LVL223
 8758 0b57 0100     		.2byte	0x1
 8759 0b59 52       		.byte	0x52
 8760 0b5a 6C010000 		.4byte	.LVL230
 8761 0b5e 86010000 		.4byte	.LVL233
 8762 0b62 0100     		.2byte	0x1
 8763 0b64 53       		.byte	0x53
 8764 0b65 02020000 		.4byte	.LVL249
 8765 0b69 0E020000 		.4byte	.LVL251
 8766 0b6d 0100     		.2byte	0x1
 8767 0b6f 53       		.byte	0x53
 8768 0b70 40020000 		.4byte	.LVL256
 8769 0b74 54020000 		.4byte	.LVL259
 8770 0b78 0100     		.2byte	0x1
 8771 0b7a 52       		.byte	0x52
 8772 0b7b 54020000 		.4byte	.LVL259
 8773 0b7f 68020000 		.4byte	.LVL262
 8774 0b83 0100     		.2byte	0x1
 8775 0b85 50       		.byte	0x50
 8776 0b86 68020000 		.4byte	.LVL262
 8777 0b8a 7E020000 		.4byte	.LVL264
 8778 0b8e 0100     		.2byte	0x1
 8779 0b90 52       		.byte	0x52
 8780 0b91 E0020000 		.4byte	.LVL279
 8781 0b95 E8020000 		.4byte	.LVL280
 8782 0b99 0100     		.2byte	0x1
 8783 0b9b 52       		.byte	0x52
 8784 0b9c 00000000 		.4byte	0
 8785 0ba0 00000000 		.4byte	0
 8786              	.LLST67:
 8787 0ba4 3C000000 		.4byte	.LVL198
 8788 0ba8 58000000 		.4byte	.LVL200
 8789 0bac 0200     		.2byte	0x2
 8790 0bae 30       		.byte	0x30
 8791 0baf 9F       		.byte	0x9f
 8792 0bb0 5E000000 		.4byte	.LVL201
 8793 0bb4 7A000000 		.4byte	.LVL203
 8794 0bb8 0200     		.2byte	0x2
 8795 0bba 33       		.byte	0x33
 8796 0bbb 9F       		.byte	0x9f
 8797 0bbc 80000000 		.4byte	.LVL204
 8798 0bc0 86000000 		.4byte	.LVL205
 8799 0bc4 0200     		.2byte	0x2
 8800 0bc6 36       		.byte	0x36
 8801 0bc7 9F       		.byte	0x9f
 8802 0bc8 86000000 		.4byte	.LVL205
 8803 0bcc B6020000 		.4byte	.LVL269
 8804 0bd0 0100     		.2byte	0x1
ARM GAS  C:\Users\nikod\AppData\Local\Temp\cc4NWLo4.s 			page 176


 8805 0bd2 5A       		.byte	0x5a
 8806 0bd3 D6020000 		.4byte	.LVL274
 8807 0bd7 F0020000 		.4byte	.LVL283
 8808 0bdb 0100     		.2byte	0x1
 8809 0bdd 5A       		.byte	0x5a
 8810 0bde 00000000 		.4byte	0
 8811 0be2 00000000 		.4byte	0
 8812              	.LLST68:
 8813 0be6 8E000000 		.4byte	.LVL206
 8814 0bea F6000000 		.4byte	.LVL221
 8815 0bee 0100     		.2byte	0x1
 8816 0bf0 55       		.byte	0x55
 8817 0bf1 F6000000 		.4byte	.LVL221
 8818 0bf5 F8000000 		.4byte	.LVL222
 8819 0bf9 0100     		.2byte	0x1
 8820 0bfb 5E       		.byte	0x5e
 8821 0bfc F8000000 		.4byte	.LVL222
 8822 0c00 4E020000 		.4byte	.LVL258
 8823 0c04 0100     		.2byte	0x1
 8824 0c06 55       		.byte	0x55
 8825 0c07 D6020000 		.4byte	.LVL274
 8826 0c0b E0020000 		.4byte	.LVL279
 8827 0c0f 0100     		.2byte	0x1
 8828 0c11 55       		.byte	0x55
 8829 0c12 00000000 		.4byte	0
 8830 0c16 00000000 		.4byte	0
 8831              	.LLST69:
 8832 0c1a 3A010000 		.4byte	.LVL225
 8833 0c1e 48010000 		.4byte	.LVL227
 8834 0c22 0200     		.2byte	0x2
 8835 0c24 39       		.byte	0x39
 8836 0c25 9F       		.byte	0x9f
 8837 0c26 7E010000 		.4byte	.LVL231
 8838 0c2a 2A020000 		.4byte	.LVL255
 8839 0c2e 0100     		.2byte	0x1
 8840 0c30 54       		.byte	0x54
 8841 0c31 D8020000 		.4byte	.LVL275
 8842 0c35 E0020000 		.4byte	.LVL279
 8843 0c39 0100     		.2byte	0x1
 8844 0c3b 54       		.byte	0x54
 8845 0c3c 00000000 		.4byte	0
 8846 0c40 00000000 		.4byte	0
 8847              	.LLST70:
 8848 0c44 8E010000 		.4byte	.LVL235
 8849 0c48 2A020000 		.4byte	.LVL255
 8850 0c4c 0100     		.2byte	0x1
 8851 0c4e 56       		.byte	0x56
 8852 0c4f D8020000 		.4byte	.LVL275
 8853 0c53 E0020000 		.4byte	.LVL279
 8854 0c57 0100     		.2byte	0x1
 8855 0c59 56       		.byte	0x56
 8856 0c5a 00000000 		.4byte	0
 8857 0c5e 00000000 		.4byte	0
 8858              	.LLST71:
 8859 0c62 22000000 		.4byte	.LVL197
 8860 0c66 3A010000 		.4byte	.LVL225
 8861 0c6a 0100     		.2byte	0x1
ARM GAS  C:\Users\nikod\AppData\Local\Temp\cc4NWLo4.s 			page 177


 8862 0c6c 57       		.byte	0x57
 8863 0c6d 3A010000 		.4byte	.LVL225
 8864 0c71 44010000 		.4byte	.LVL226
 8865 0c75 0300     		.2byte	0x3
 8866 0c77 91       		.byte	0x91
 8867 0c78 52       		.sleb128 -46
 8868 0c79 9F       		.byte	0x9f
 8869 0c7a 44010000 		.4byte	.LVL226
 8870 0c7e CE020000 		.4byte	.LVL271
 8871 0c82 0100     		.2byte	0x1
 8872 0c84 57       		.byte	0x57
 8873 0c85 D2020000 		.4byte	.LVL273
 8874 0c89 F6020000 		.4byte	.LVL284
 8875 0c8d 0100     		.2byte	0x1
 8876 0c8f 57       		.byte	0x57
 8877 0c90 00000000 		.4byte	0
 8878 0c94 00000000 		.4byte	0
 8879              	.LLST72:
 8880 0c98 BA000000 		.4byte	.LVL211
 8881 0c9c BE000000 		.4byte	.LVL212
 8882 0ca0 0100     		.2byte	0x1
 8883 0ca2 53       		.byte	0x53
 8884 0ca3 BE000000 		.4byte	.LVL212
 8885 0ca7 CE000000 		.4byte	.LVL214
 8886 0cab 1600     		.2byte	0x16
 8887 0cad 71       		.byte	0x71
 8888 0cae 00       		.sleb128 0
 8889 0caf 33       		.byte	0x33
 8890 0cb0 26       		.byte	0x26
 8891 0cb1 31       		.byte	0x31
 8892 0cb2 7E       		.byte	0x7e
 8893 0cb3 00       		.sleb128 0
 8894 0cb4 37       		.byte	0x37
 8895 0cb5 1A       		.byte	0x1a
 8896 0cb6 7E       		.byte	0x7e
 8897 0cb7 00       		.sleb128 0
 8898 0cb8 37       		.byte	0x37
 8899 0cb9 1A       		.byte	0x1a
 8900 0cba 30       		.byte	0x30
 8901 0cbb 2E       		.byte	0x2e
 8902 0cbc 28       		.byte	0x28
 8903 0cbd 0100     		.2byte	0x1
 8904 0cbf 16       		.byte	0x16
 8905 0cc0 13       		.byte	0x13
 8906 0cc1 22       		.byte	0x22
 8907 0cc2 9F       		.byte	0x9f
 8908 0cc3 CE000000 		.4byte	.LVL214
 8909 0cc7 F0000000 		.4byte	.LVL220
 8910 0ccb 0100     		.2byte	0x1
 8911 0ccd 54       		.byte	0x54
 8912 0cce 4A020000 		.4byte	.LVL257
 8913 0cd2 B6020000 		.4byte	.LVL269
 8914 0cd6 0100     		.2byte	0x1
 8915 0cd8 54       		.byte	0x54
 8916 0cd9 E0020000 		.4byte	.LVL279
 8917 0cdd F0020000 		.4byte	.LVL283
 8918 0ce1 0100     		.2byte	0x1
ARM GAS  C:\Users\nikod\AppData\Local\Temp\cc4NWLo4.s 			page 178


 8919 0ce3 54       		.byte	0x54
 8920 0ce4 00000000 		.4byte	0
 8921 0ce8 00000000 		.4byte	0
 8922              	.LLST73:
 8923 0cec C8000000 		.4byte	.LVL213
 8924 0cf0 CE000000 		.4byte	.LVL214
 8925 0cf4 0100     		.2byte	0x1
 8926 0cf6 54       		.byte	0x54
 8927 0cf7 00000000 		.4byte	0
 8928 0cfb 00000000 		.4byte	0
 8929              	.LLST74:
 8930 0cff BE010000 		.4byte	.LVL239
 8931 0d03 CA010000 		.4byte	.LVL241
 8932 0d07 0100     		.2byte	0x1
 8933 0d09 50       		.byte	0x50
 8934 0d0a D8020000 		.4byte	.LVL275
 8935 0d0e DA020000 		.4byte	.LVL276
 8936 0d12 0100     		.2byte	0x1
 8937 0d14 50       		.byte	0x50
 8938 0d15 00000000 		.4byte	0
 8939 0d19 00000000 		.4byte	0
 8940              	.LLST75:
 8941 0d1d C6010000 		.4byte	.LVL240
 8942 0d21 CA010000 		.4byte	.LVL241
 8943 0d25 0500     		.2byte	0x5
 8944 0d27 70       		.byte	0x70
 8945 0d28 00       		.sleb128 0
 8946 0d29 4F       		.byte	0x4f
 8947 0d2a 1A       		.byte	0x1a
 8948 0d2b 9F       		.byte	0x9f
 8949 0d2c CE010000 		.4byte	.LVL242
 8950 0d30 1A020000 		.4byte	.LVL252
 8951 0d34 0100     		.2byte	0x1
 8952 0d36 50       		.byte	0x50
 8953 0d37 DC020000 		.4byte	.LVL277
 8954 0d3b DE020000 		.4byte	.LVL278
 8955 0d3f 0100     		.2byte	0x1
 8956 0d41 50       		.byte	0x50
 8957 0d42 00000000 		.4byte	0
 8958 0d46 00000000 		.4byte	0
 8959              	.LLST76:
 8960 0d4a 1C000000 		.4byte	.LVL285
 8961 0d4e 2C000000 		.4byte	.LVL286
 8962 0d52 0100     		.2byte	0x1
 8963 0d54 50       		.byte	0x50
 8964 0d55 30000000 		.4byte	.LVL287
 8965 0d59 38000000 		.4byte	.LVL288
 8966 0d5d 0100     		.2byte	0x1
 8967 0d5f 50       		.byte	0x50
 8968 0d60 3A000000 		.4byte	.LVL289
 8969 0d64 3E000000 		.4byte	.LVL290
 8970 0d68 0100     		.2byte	0x1
 8971 0d6a 50       		.byte	0x50
 8972 0d6b 00000000 		.4byte	0
 8973 0d6f 00000000 		.4byte	0
 8974              	.LLST77:
 8975 0d73 00000000 		.4byte	.LVL291
ARM GAS  C:\Users\nikod\AppData\Local\Temp\cc4NWLo4.s 			page 179


 8976 0d77 10000000 		.4byte	.LVL295
 8977 0d7b 0100     		.2byte	0x1
 8978 0d7d 50       		.byte	0x50
 8979 0d7e 10000000 		.4byte	.LVL295
 8980 0d82 64000000 		.4byte	.LFE87
 8981 0d86 0400     		.2byte	0x4
 8982 0d88 F3       		.byte	0xf3
 8983 0d89 01       		.uleb128 0x1
 8984 0d8a 50       		.byte	0x50
 8985 0d8b 9F       		.byte	0x9f
 8986 0d8c 00000000 		.4byte	0
 8987 0d90 00000000 		.4byte	0
 8988              	.LLST78:
 8989 0d94 00000000 		.4byte	.LVL291
 8990 0d98 0E000000 		.4byte	.LVL294
 8991 0d9c 0100     		.2byte	0x1
 8992 0d9e 51       		.byte	0x51
 8993 0d9f 0E000000 		.4byte	.LVL294
 8994 0da3 10000000 		.4byte	.LVL295
 8995 0da7 0200     		.2byte	0x2
 8996 0da9 91       		.byte	0x91
 8997 0daa 6D       		.sleb128 -19
 8998 0dab 10000000 		.4byte	.LVL295
 8999 0daf 64000000 		.4byte	.LFE87
 9000 0db3 0400     		.2byte	0x4
 9001 0db5 F3       		.byte	0xf3
 9002 0db6 01       		.uleb128 0x1
 9003 0db7 51       		.byte	0x51
 9004 0db8 9F       		.byte	0x9f
 9005 0db9 00000000 		.4byte	0
 9006 0dbd 00000000 		.4byte	0
 9007              	.LLST79:
 9008 0dc1 00000000 		.4byte	.LVL291
 9009 0dc5 2A000000 		.4byte	.LVL299
 9010 0dc9 0100     		.2byte	0x1
 9011 0dcb 52       		.byte	0x52
 9012 0dcc 2A000000 		.4byte	.LVL299
 9013 0dd0 64000000 		.4byte	.LFE87
 9014 0dd4 0400     		.2byte	0x4
 9015 0dd6 F3       		.byte	0xf3
 9016 0dd7 01       		.uleb128 0x1
 9017 0dd8 52       		.byte	0x52
 9018 0dd9 9F       		.byte	0x9f
 9019 0dda 00000000 		.4byte	0
 9020 0dde 00000000 		.4byte	0
 9021              	.LLST80:
 9022 0de2 00000000 		.4byte	.LVL291
 9023 0de6 4A000000 		.4byte	.LVL302
 9024 0dea 0100     		.2byte	0x1
 9025 0dec 53       		.byte	0x53
 9026 0ded 4A000000 		.4byte	.LVL302
 9027 0df1 64000000 		.4byte	.LFE87
 9028 0df5 0400     		.2byte	0x4
 9029 0df7 F3       		.byte	0xf3
 9030 0df8 01       		.uleb128 0x1
 9031 0df9 53       		.byte	0x53
 9032 0dfa 9F       		.byte	0x9f
ARM GAS  C:\Users\nikod\AppData\Local\Temp\cc4NWLo4.s 			page 180


 9033 0dfb 00000000 		.4byte	0
 9034 0dff 00000000 		.4byte	0
 9035              	.LLST81:
 9036 0e03 0C000000 		.4byte	.LVL293
 9037 0e07 10000000 		.4byte	.LVL295
 9038 0e0b 0200     		.2byte	0x2
 9039 0e0d 30       		.byte	0x30
 9040 0e0e 9F       		.byte	0x9f
 9041 0e0f 10000000 		.4byte	.LVL295
 9042 0e13 20000000 		.4byte	.LVL296
 9043 0e17 0100     		.2byte	0x1
 9044 0e19 51       		.byte	0x51
 9045 0e1a 22000000 		.4byte	.LVL297
 9046 0e1e 28000000 		.4byte	.LVL298
 9047 0e22 0100     		.2byte	0x1
 9048 0e24 51       		.byte	0x51
 9049 0e25 00000000 		.4byte	0
 9050 0e29 00000000 		.4byte	0
 9051              	.LLST82:
 9052 0e2d 2A000000 		.4byte	.LVL299
 9053 0e31 42000000 		.4byte	.LVL300
 9054 0e35 0100     		.2byte	0x1
 9055 0e37 51       		.byte	0x51
 9056 0e38 44000000 		.4byte	.LVL301
 9057 0e3c 5A000000 		.4byte	.LVL303
 9058 0e40 0100     		.2byte	0x1
 9059 0e42 51       		.byte	0x51
 9060 0e43 00000000 		.4byte	0
 9061 0e47 00000000 		.4byte	0
 9062              	.LLST83:
 9063 0e4b 00000000 		.4byte	.LVL306
 9064 0e4f 1C000000 		.4byte	.LVL309
 9065 0e53 0100     		.2byte	0x1
 9066 0e55 50       		.byte	0x50
 9067 0e56 1C000000 		.4byte	.LVL309
 9068 0e5a 1F000000 		.4byte	.LVL310-1
 9069 0e5e 0200     		.2byte	0x2
 9070 0e60 75       		.byte	0x75
 9071 0e61 01       		.sleb128 1
 9072 0e62 1F000000 		.4byte	.LVL310-1
 9073 0e66 3A000000 		.4byte	.LVL313
 9074 0e6a 0400     		.2byte	0x4
 9075 0e6c F3       		.byte	0xf3
 9076 0e6d 01       		.uleb128 0x1
 9077 0e6e 50       		.byte	0x50
 9078 0e6f 9F       		.byte	0x9f
 9079 0e70 3A000000 		.4byte	.LVL313
 9080 0e74 3C000000 		.4byte	.LVL314
 9081 0e78 0100     		.2byte	0x1
 9082 0e7a 50       		.byte	0x50
 9083 0e7b 3C000000 		.4byte	.LVL314
 9084 0e7f 3E000000 		.4byte	.LVL315
 9085 0e83 0400     		.2byte	0x4
 9086 0e85 F3       		.byte	0xf3
 9087 0e86 01       		.uleb128 0x1
 9088 0e87 50       		.byte	0x50
 9089 0e88 9F       		.byte	0x9f
ARM GAS  C:\Users\nikod\AppData\Local\Temp\cc4NWLo4.s 			page 181


 9090 0e89 3E000000 		.4byte	.LVL315
 9091 0e8d 40000000 		.4byte	.LVL316
 9092 0e91 0100     		.2byte	0x1
 9093 0e93 50       		.byte	0x50
 9094 0e94 40000000 		.4byte	.LVL316
 9095 0e98 46000000 		.4byte	.LFE89
 9096 0e9c 0400     		.2byte	0x4
 9097 0e9e F3       		.byte	0xf3
 9098 0e9f 01       		.uleb128 0x1
 9099 0ea0 50       		.byte	0x50
 9100 0ea1 9F       		.byte	0x9f
 9101 0ea2 00000000 		.4byte	0
 9102 0ea6 00000000 		.4byte	0
 9103              	.LLST84:
 9104 0eaa 00000000 		.4byte	.LVL306
 9105 0eae 1A000000 		.4byte	.LVL308
 9106 0eb2 0100     		.2byte	0x1
 9107 0eb4 51       		.byte	0x51
 9108 0eb5 1A000000 		.4byte	.LVL308
 9109 0eb9 3A000000 		.4byte	.LVL313
 9110 0ebd 0100     		.2byte	0x1
 9111 0ebf 55       		.byte	0x55
 9112 0ec0 3A000000 		.4byte	.LVL313
 9113 0ec4 42000000 		.4byte	.LVL317
 9114 0ec8 0100     		.2byte	0x1
 9115 0eca 51       		.byte	0x51
 9116 0ecb 42000000 		.4byte	.LVL317
 9117 0ecf 46000000 		.4byte	.LFE89
 9118 0ed3 0400     		.2byte	0x4
 9119 0ed5 F3       		.byte	0xf3
 9120 0ed6 01       		.uleb128 0x1
 9121 0ed7 51       		.byte	0x51
 9122 0ed8 9F       		.byte	0x9f
 9123 0ed9 00000000 		.4byte	0
 9124 0edd 00000000 		.4byte	0
 9125              	.LLST85:
 9126 0ee1 00000000 		.4byte	.LVL306
 9127 0ee5 18000000 		.4byte	.LVL307
 9128 0ee9 0100     		.2byte	0x1
 9129 0eeb 52       		.byte	0x52
 9130 0eec 18000000 		.4byte	.LVL307
 9131 0ef0 3A000000 		.4byte	.LVL313
 9132 0ef4 0100     		.2byte	0x1
 9133 0ef6 54       		.byte	0x54
 9134 0ef7 3A000000 		.4byte	.LVL313
 9135 0efb 42000000 		.4byte	.LVL317
 9136 0eff 0100     		.2byte	0x1
 9137 0f01 52       		.byte	0x52
 9138 0f02 42000000 		.4byte	.LVL317
 9139 0f06 46000000 		.4byte	.LFE89
 9140 0f0a 0400     		.2byte	0x4
 9141 0f0c F3       		.byte	0xf3
 9142 0f0d 01       		.uleb128 0x1
 9143 0f0e 52       		.byte	0x52
 9144 0f0f 9F       		.byte	0x9f
 9145 0f10 00000000 		.4byte	0
 9146 0f14 00000000 		.4byte	0
ARM GAS  C:\Users\nikod\AppData\Local\Temp\cc4NWLo4.s 			page 182


 9147              	.LLST86:
 9148 0f18 20000000 		.4byte	.LVL310
 9149 0f1c 34000000 		.4byte	.LVL311
 9150 0f20 0100     		.2byte	0x1
 9151 0f22 50       		.byte	0x50
 9152 0f23 00000000 		.4byte	0
 9153 0f27 00000000 		.4byte	0
 9154              	.LLST87:
 9155 0f2b 00000000 		.4byte	.LVL318
 9156 0f2f 13000000 		.4byte	.LVL320-1
 9157 0f33 0100     		.2byte	0x1
 9158 0f35 50       		.byte	0x50
 9159 0f36 13000000 		.4byte	.LVL320-1
 9160 0f3a 3C000000 		.4byte	.LFE97
 9161 0f3e 0400     		.2byte	0x4
 9162 0f40 F3       		.byte	0xf3
 9163 0f41 01       		.uleb128 0x1
 9164 0f42 50       		.byte	0x50
 9165 0f43 9F       		.byte	0x9f
 9166 0f44 00000000 		.4byte	0
 9167 0f48 00000000 		.4byte	0
 9168              	.LLST88:
 9169 0f4c 00000000 		.4byte	.LVL318
 9170 0f50 10000000 		.4byte	.LVL319
 9171 0f54 0100     		.2byte	0x1
 9172 0f56 51       		.byte	0x51
 9173 0f57 10000000 		.4byte	.LVL319
 9174 0f5b 3C000000 		.4byte	.LFE97
 9175 0f5f 0100     		.2byte	0x1
 9176 0f61 54       		.byte	0x54
 9177 0f62 00000000 		.4byte	0
 9178 0f66 00000000 		.4byte	0
 9179              	.LLST89:
 9180 0f6a 14000000 		.4byte	.LVL320
 9181 0f6e 38000000 		.4byte	.LVL325
 9182 0f72 0100     		.2byte	0x1
 9183 0f74 50       		.byte	0x50
 9184 0f75 00000000 		.4byte	0
 9185 0f79 00000000 		.4byte	0
 9186              	.LLST90:
 9187 0f7d 1C000000 		.4byte	.LVL321
 9188 0f81 36000000 		.4byte	.LVL324
 9189 0f85 0500     		.2byte	0x5
 9190 0f87 72       		.byte	0x72
 9191 0f88 00       		.sleb128 0
 9192 0f89 38       		.byte	0x38
 9193 0f8a 24       		.byte	0x24
 9194 0f8b 9F       		.byte	0x9f
 9195 0f8c 00000000 		.4byte	0
 9196 0f90 00000000 		.4byte	0
 9197              	.LLST91:
 9198 0f94 00000000 		.4byte	.LVL326
 9199 0f98 2A000000 		.4byte	.LVL331
 9200 0f9c 0100     		.2byte	0x1
 9201 0f9e 50       		.byte	0x50
 9202 0f9f 2A000000 		.4byte	.LVL331
 9203 0fa3 70000000 		.4byte	.LFE99
ARM GAS  C:\Users\nikod\AppData\Local\Temp\cc4NWLo4.s 			page 183


 9204 0fa7 0400     		.2byte	0x4
 9205 0fa9 F3       		.byte	0xf3
 9206 0faa 01       		.uleb128 0x1
 9207 0fab 50       		.byte	0x50
 9208 0fac 9F       		.byte	0x9f
 9209 0fad 00000000 		.4byte	0
 9210 0fb1 00000000 		.4byte	0
 9211              	.LLST92:
 9212 0fb5 00000000 		.4byte	.LVL326
 9213 0fb9 10000000 		.4byte	.LVL328
 9214 0fbd 0100     		.2byte	0x1
 9215 0fbf 51       		.byte	0x51
 9216 0fc0 10000000 		.4byte	.LVL328
 9217 0fc4 70000000 		.4byte	.LFE99
 9218 0fc8 0100     		.2byte	0x1
 9219 0fca 54       		.byte	0x54
 9220 0fcb 00000000 		.4byte	0
 9221 0fcf 00000000 		.4byte	0
 9222              	.LLST93:
 9223 0fd3 2E000000 		.4byte	.LVL332
 9224 0fd7 56000000 		.4byte	.LVL334
 9225 0fdb 0100     		.2byte	0x1
 9226 0fdd 50       		.byte	0x50
 9227 0fde 5A000000 		.4byte	.LVL335
 9228 0fe2 70000000 		.4byte	.LFE99
 9229 0fe6 0100     		.2byte	0x1
 9230 0fe8 50       		.byte	0x50
 9231 0fe9 00000000 		.4byte	0
 9232 0fed 00000000 		.4byte	0
 9233              	.LLST94:
 9234 0ff1 30000000 		.4byte	.LVL333
 9235 0ff5 6A000000 		.4byte	.LVL336
 9236 0ff9 0300     		.2byte	0x3
 9237 0ffb 08       		.byte	0x8
 9238 0ffc 30       		.byte	0x30
 9239 0ffd 9F       		.byte	0x9f
 9240 0ffe 00000000 		.4byte	0
 9241 1002 00000000 		.4byte	0
 9242              	.LLST95:
 9243 1006 0C000000 		.4byte	.LVL327
 9244 100a 10000000 		.4byte	.LVL328
 9245 100e 0200     		.2byte	0x2
 9246 1010 30       		.byte	0x30
 9247 1011 9F       		.byte	0x9f
 9248 1012 10000000 		.4byte	.LVL328
 9249 1016 16000000 		.4byte	.LVL329
 9250 101a 0100     		.2byte	0x1
 9251 101c 53       		.byte	0x53
 9252 101d 1E000000 		.4byte	.LVL330
 9253 1021 2D000000 		.4byte	.LVL332-1
 9254 1025 0100     		.2byte	0x1
 9255 1027 53       		.byte	0x53
 9256 1028 00000000 		.4byte	0
 9257 102c 00000000 		.4byte	0
 9258              	.LLST96:
 9259 1030 00000000 		.4byte	.LVL338
 9260 1034 16000000 		.4byte	.LVL341
ARM GAS  C:\Users\nikod\AppData\Local\Temp\cc4NWLo4.s 			page 184


 9261 1038 0100     		.2byte	0x1
 9262 103a 50       		.byte	0x50
 9263 103b 16000000 		.4byte	.LVL341
 9264 103f 19000000 		.4byte	.LVL342-1
 9265 1043 0100     		.2byte	0x1
 9266 1045 51       		.byte	0x51
 9267 1046 19000000 		.4byte	.LVL342-1
 9268 104a 78000000 		.4byte	.LVL349
 9269 104e 0400     		.2byte	0x4
 9270 1050 F3       		.byte	0xf3
 9271 1051 01       		.uleb128 0x1
 9272 1052 50       		.byte	0x50
 9273 1053 9F       		.byte	0x9f
 9274 1054 78000000 		.4byte	.LVL349
 9275 1058 7A000000 		.4byte	.LVL350
 9276 105c 0100     		.2byte	0x1
 9277 105e 50       		.byte	0x50
 9278 105f 7A000000 		.4byte	.LVL350
 9279 1063 7C000000 		.4byte	.LVL351
 9280 1067 0400     		.2byte	0x4
 9281 1069 F3       		.byte	0xf3
 9282 106a 01       		.uleb128 0x1
 9283 106b 50       		.byte	0x50
 9284 106c 9F       		.byte	0x9f
 9285 106d 7C000000 		.4byte	.LVL351
 9286 1071 7E000000 		.4byte	.LVL352
 9287 1075 0100     		.2byte	0x1
 9288 1077 50       		.byte	0x50
 9289 1078 7E000000 		.4byte	.LVL352
 9290 107c 90000000 		.4byte	.LFE100
 9291 1080 0400     		.2byte	0x4
 9292 1082 F3       		.byte	0xf3
 9293 1083 01       		.uleb128 0x1
 9294 1084 50       		.byte	0x50
 9295 1085 9F       		.byte	0x9f
 9296 1086 00000000 		.4byte	0
 9297 108a 00000000 		.4byte	0
 9298              	.LLST97:
 9299 108e 00000000 		.4byte	.LVL338
 9300 1092 14000000 		.4byte	.LVL340
 9301 1096 0100     		.2byte	0x1
 9302 1098 51       		.byte	0x51
 9303 1099 14000000 		.4byte	.LVL340
 9304 109d 2A000000 		.4byte	.LVL344
 9305 10a1 0400     		.2byte	0x4
 9306 10a3 F3       		.byte	0xf3
 9307 10a4 01       		.uleb128 0x1
 9308 10a5 51       		.byte	0x51
 9309 10a6 9F       		.byte	0x9f
 9310 10a7 2A000000 		.4byte	.LVL344
 9311 10ab 4E000000 		.4byte	.LVL345
 9312 10af 0100     		.2byte	0x1
 9313 10b1 51       		.byte	0x51
 9314 10b2 4E000000 		.4byte	.LVL345
 9315 10b6 53000000 		.4byte	.LVL347-1
 9316 10ba 0100     		.2byte	0x1
 9317 10bc 53       		.byte	0x53
ARM GAS  C:\Users\nikod\AppData\Local\Temp\cc4NWLo4.s 			page 185


 9318 10bd 53000000 		.4byte	.LVL347-1
 9319 10c1 78000000 		.4byte	.LVL349
 9320 10c5 0300     		.2byte	0x3
 9321 10c7 74       		.byte	0x74
 9322 10c8 02       		.sleb128 2
 9323 10c9 9F       		.byte	0x9f
 9324 10ca 78000000 		.4byte	.LVL349
 9325 10ce 80000000 		.4byte	.LVL353
 9326 10d2 0100     		.2byte	0x1
 9327 10d4 51       		.byte	0x51
 9328 10d5 80000000 		.4byte	.LVL353
 9329 10d9 82000000 		.4byte	.LVL354
 9330 10dd 0400     		.2byte	0x4
 9331 10df F3       		.byte	0xf3
 9332 10e0 01       		.uleb128 0x1
 9333 10e1 51       		.byte	0x51
 9334 10e2 9F       		.byte	0x9f
 9335 10e3 82000000 		.4byte	.LVL354
 9336 10e7 8C000000 		.4byte	.LVL356
 9337 10eb 0300     		.2byte	0x3
 9338 10ed 74       		.byte	0x74
 9339 10ee 02       		.sleb128 2
 9340 10ef 9F       		.byte	0x9f
 9341 10f0 00000000 		.4byte	0
 9342 10f4 00000000 		.4byte	0
 9343              	.LLST98:
 9344 10f8 00000000 		.4byte	.LVL338
 9345 10fc 12000000 		.4byte	.LVL339
 9346 1100 0100     		.2byte	0x1
 9347 1102 52       		.byte	0x52
 9348 1103 12000000 		.4byte	.LVL339
 9349 1107 78000000 		.4byte	.LVL349
 9350 110b 0400     		.2byte	0x4
 9351 110d F3       		.byte	0xf3
 9352 110e 01       		.uleb128 0x1
 9353 110f 52       		.byte	0x52
 9354 1110 9F       		.byte	0x9f
 9355 1111 78000000 		.4byte	.LVL349
 9356 1115 80000000 		.4byte	.LVL353
 9357 1119 0100     		.2byte	0x1
 9358 111b 52       		.byte	0x52
 9359 111c 80000000 		.4byte	.LVL353
 9360 1120 90000000 		.4byte	.LFE100
 9361 1124 0400     		.2byte	0x4
 9362 1126 F3       		.byte	0xf3
 9363 1127 01       		.uleb128 0x1
 9364 1128 52       		.byte	0x52
 9365 1129 9F       		.byte	0x9f
 9366 112a 00000000 		.4byte	0
 9367 112e 00000000 		.4byte	0
 9368              	.LLST99:
 9369 1132 26000000 		.4byte	.LVL343
 9370 1136 50000000 		.4byte	.LVL346
 9371 113a 0100     		.2byte	0x1
 9372 113c 50       		.byte	0x50
 9373 113d 54000000 		.4byte	.LVL347
 9374 1141 60000000 		.4byte	.LVL348
ARM GAS  C:\Users\nikod\AppData\Local\Temp\cc4NWLo4.s 			page 186


 9375 1145 0100     		.2byte	0x1
 9376 1147 50       		.byte	0x50
 9377 1148 80000000 		.4byte	.LVL353
 9378 114c 84000000 		.4byte	.LVL355
 9379 1150 0100     		.2byte	0x1
 9380 1152 50       		.byte	0x50
 9381 1153 00000000 		.4byte	0
 9382 1157 00000000 		.4byte	0
 9383              	.LLST100:
 9384 115b 2A000000 		.4byte	.LVL344
 9385 115f 78000000 		.4byte	.LVL349
 9386 1163 0300     		.2byte	0x3
 9387 1165 08       		.byte	0x8
 9388 1166 30       		.byte	0x30
 9389 1167 9F       		.byte	0x9f
 9390 1168 82000000 		.4byte	.LVL354
 9391 116c 8C000000 		.4byte	.LVL356
 9392 1170 0300     		.2byte	0x3
 9393 1172 08       		.byte	0x8
 9394 1173 30       		.byte	0x30
 9395 1174 9F       		.byte	0x9f
 9396 1175 00000000 		.4byte	0
 9397 1179 00000000 		.4byte	0
 9398              	.LLST101:
 9399 117d 00000000 		.4byte	.LVL357
 9400 1181 1E000000 		.4byte	.LVL360
 9401 1185 0100     		.2byte	0x1
 9402 1187 50       		.byte	0x50
 9403 1188 1E000000 		.4byte	.LVL360
 9404 118c 21000000 		.4byte	.LVL361-1
 9405 1190 0200     		.2byte	0x2
 9406 1192 91       		.byte	0x91
 9407 1193 6D       		.sleb128 -19
 9408 1194 21000000 		.4byte	.LVL361-1
 9409 1198 32000000 		.4byte	.LVL364
 9410 119c 0400     		.2byte	0x4
 9411 119e F3       		.byte	0xf3
 9412 119f 01       		.uleb128 0x1
 9413 11a0 50       		.byte	0x50
 9414 11a1 9F       		.byte	0x9f
 9415 11a2 32000000 		.4byte	.LVL364
 9416 11a6 34000000 		.4byte	.LVL365
 9417 11aa 0100     		.2byte	0x1
 9418 11ac 50       		.byte	0x50
 9419 11ad 34000000 		.4byte	.LVL365
 9420 11b1 36000000 		.4byte	.LVL366
 9421 11b5 0400     		.2byte	0x4
 9422 11b7 F3       		.byte	0xf3
 9423 11b8 01       		.uleb128 0x1
 9424 11b9 50       		.byte	0x50
 9425 11ba 9F       		.byte	0x9f
 9426 11bb 36000000 		.4byte	.LVL366
 9427 11bf 38000000 		.4byte	.LVL367
 9428 11c3 0100     		.2byte	0x1
 9429 11c5 50       		.byte	0x50
 9430 11c6 38000000 		.4byte	.LVL367
 9431 11ca 40000000 		.4byte	.LFE90
ARM GAS  C:\Users\nikod\AppData\Local\Temp\cc4NWLo4.s 			page 187


 9432 11ce 0400     		.2byte	0x4
 9433 11d0 F3       		.byte	0xf3
 9434 11d1 01       		.uleb128 0x1
 9435 11d2 50       		.byte	0x50
 9436 11d3 9F       		.byte	0x9f
 9437 11d4 00000000 		.4byte	0
 9438 11d8 00000000 		.4byte	0
 9439              	.LLST102:
 9440 11dc 00000000 		.4byte	.LVL357
 9441 11e0 1C000000 		.4byte	.LVL359
 9442 11e4 0100     		.2byte	0x1
 9443 11e6 51       		.byte	0x51
 9444 11e7 1C000000 		.4byte	.LVL359
 9445 11eb 32000000 		.4byte	.LVL364
 9446 11ef 0100     		.2byte	0x1
 9447 11f1 55       		.byte	0x55
 9448 11f2 32000000 		.4byte	.LVL364
 9449 11f6 3A000000 		.4byte	.LVL368
 9450 11fa 0100     		.2byte	0x1
 9451 11fc 51       		.byte	0x51
 9452 11fd 3A000000 		.4byte	.LVL368
 9453 1201 40000000 		.4byte	.LFE90
 9454 1205 0100     		.2byte	0x1
 9455 1207 55       		.byte	0x55
 9456 1208 00000000 		.4byte	0
 9457 120c 00000000 		.4byte	0
 9458              	.LLST103:
 9459 1210 00000000 		.4byte	.LVL357
 9460 1214 1A000000 		.4byte	.LVL358
 9461 1218 0100     		.2byte	0x1
 9462 121a 52       		.byte	0x52
 9463 121b 1A000000 		.4byte	.LVL358
 9464 121f 32000000 		.4byte	.LVL364
 9465 1223 0400     		.2byte	0x4
 9466 1225 F3       		.byte	0xf3
 9467 1226 01       		.uleb128 0x1
 9468 1227 52       		.byte	0x52
 9469 1228 9F       		.byte	0x9f
 9470 1229 32000000 		.4byte	.LVL364
 9471 122d 3A000000 		.4byte	.LVL368
 9472 1231 0100     		.2byte	0x1
 9473 1233 52       		.byte	0x52
 9474 1234 3A000000 		.4byte	.LVL368
 9475 1238 40000000 		.4byte	.LFE90
 9476 123c 0400     		.2byte	0x4
 9477 123e F3       		.byte	0xf3
 9478 123f 01       		.uleb128 0x1
 9479 1240 52       		.byte	0x52
 9480 1241 9F       		.byte	0x9f
 9481 1242 00000000 		.4byte	0
 9482 1246 00000000 		.4byte	0
 9483              	.LLST104:
 9484 124a 22000000 		.4byte	.LVL361
 9485 124e 2A000000 		.4byte	.LVL362
 9486 1252 0100     		.2byte	0x1
 9487 1254 50       		.byte	0x50
 9488 1255 2E000000 		.4byte	.LVL363
ARM GAS  C:\Users\nikod\AppData\Local\Temp\cc4NWLo4.s 			page 188


 9489 1259 32000000 		.4byte	.LVL364
 9490 125d 0100     		.2byte	0x1
 9491 125f 50       		.byte	0x50
 9492 1260 3A000000 		.4byte	.LVL368
 9493 1264 40000000 		.4byte	.LFE90
 9494 1268 0100     		.2byte	0x1
 9495 126a 50       		.byte	0x50
 9496 126b 00000000 		.4byte	0
 9497 126f 00000000 		.4byte	0
 9498              	.LLST105:
 9499 1273 00000000 		.4byte	.LVL369
 9500 1277 63000000 		.4byte	.LVL371-1
 9501 127b 0100     		.2byte	0x1
 9502 127d 50       		.byte	0x50
 9503 127e 63000000 		.4byte	.LVL371-1
 9504 1282 68000000 		.4byte	.LFE98
 9505 1286 0400     		.2byte	0x4
 9506 1288 F3       		.byte	0xf3
 9507 1289 01       		.uleb128 0x1
 9508 128a 50       		.byte	0x50
 9509 128b 9F       		.byte	0x9f
 9510 128c 00000000 		.4byte	0
 9511 1290 00000000 		.4byte	0
 9512              	.LLST106:
 9513 1294 00000000 		.4byte	.LVL369
 9514 1298 28000000 		.4byte	.LVL370
 9515 129c 0100     		.2byte	0x1
 9516 129e 51       		.byte	0x51
 9517 129f 28000000 		.4byte	.LVL370
 9518 12a3 68000000 		.4byte	.LFE98
 9519 12a7 0400     		.2byte	0x4
 9520 12a9 F3       		.byte	0xf3
 9521 12aa 01       		.uleb128 0x1
 9522 12ab 51       		.byte	0x51
 9523 12ac 9F       		.byte	0x9f
 9524 12ad 00000000 		.4byte	0
 9525 12b1 00000000 		.4byte	0
 9526              	.LLST107:
 9527 12b5 00000000 		.4byte	.LVL372
 9528 12b9 20000000 		.4byte	.LVL375
 9529 12bd 0100     		.2byte	0x1
 9530 12bf 50       		.byte	0x50
 9531 12c0 20000000 		.4byte	.LVL375
 9532 12c4 23000000 		.4byte	.LVL376-1
 9533 12c8 0200     		.2byte	0x2
 9534 12ca 91       		.byte	0x91
 9535 12cb 71       		.sleb128 -15
 9536 12cc 23000000 		.4byte	.LVL376-1
 9537 12d0 28000000 		.4byte	.LVL377
 9538 12d4 0400     		.2byte	0x4
 9539 12d6 F3       		.byte	0xf3
 9540 12d7 01       		.uleb128 0x1
 9541 12d8 50       		.byte	0x50
 9542 12d9 9F       		.byte	0x9f
 9543 12da 28000000 		.4byte	.LVL377
 9544 12de 2A000000 		.4byte	.LVL378
 9545 12e2 0100     		.2byte	0x1
ARM GAS  C:\Users\nikod\AppData\Local\Temp\cc4NWLo4.s 			page 189


 9546 12e4 50       		.byte	0x50
 9547 12e5 2A000000 		.4byte	.LVL378
 9548 12e9 2C000000 		.4byte	.LVL379
 9549 12ed 0400     		.2byte	0x4
 9550 12ef F3       		.byte	0xf3
 9551 12f0 01       		.uleb128 0x1
 9552 12f1 50       		.byte	0x50
 9553 12f2 9F       		.byte	0x9f
 9554 12f3 2C000000 		.4byte	.LVL379
 9555 12f7 2E000000 		.4byte	.LVL380
 9556 12fb 0100     		.2byte	0x1
 9557 12fd 50       		.byte	0x50
 9558 12fe 2E000000 		.4byte	.LVL380
 9559 1302 36000000 		.4byte	.LFE91
 9560 1306 0400     		.2byte	0x4
 9561 1308 F3       		.byte	0xf3
 9562 1309 01       		.uleb128 0x1
 9563 130a 50       		.byte	0x50
 9564 130b 9F       		.byte	0x9f
 9565 130c 00000000 		.4byte	0
 9566 1310 00000000 		.4byte	0
 9567              	.LLST108:
 9568 1314 00000000 		.4byte	.LVL372
 9569 1318 1E000000 		.4byte	.LVL374
 9570 131c 0100     		.2byte	0x1
 9571 131e 51       		.byte	0x51
 9572 131f 1E000000 		.4byte	.LVL374
 9573 1323 28000000 		.4byte	.LVL377
 9574 1327 0400     		.2byte	0x4
 9575 1329 F3       		.byte	0xf3
 9576 132a 01       		.uleb128 0x1
 9577 132b 51       		.byte	0x51
 9578 132c 9F       		.byte	0x9f
 9579 132d 28000000 		.4byte	.LVL377
 9580 1331 30000000 		.4byte	.LVL381
 9581 1335 0100     		.2byte	0x1
 9582 1337 51       		.byte	0x51
 9583 1338 30000000 		.4byte	.LVL381
 9584 133c 36000000 		.4byte	.LFE91
 9585 1340 0400     		.2byte	0x4
 9586 1342 F3       		.byte	0xf3
 9587 1343 01       		.uleb128 0x1
 9588 1344 51       		.byte	0x51
 9589 1345 9F       		.byte	0x9f
 9590 1346 00000000 		.4byte	0
 9591 134a 00000000 		.4byte	0
 9592              	.LLST109:
 9593 134e 00000000 		.4byte	.LVL372
 9594 1352 0C000000 		.4byte	.LVL373
 9595 1356 0100     		.2byte	0x1
 9596 1358 52       		.byte	0x52
 9597 1359 0C000000 		.4byte	.LVL373
 9598 135d 28000000 		.4byte	.LVL377
 9599 1361 0400     		.2byte	0x4
 9600 1363 F3       		.byte	0xf3
 9601 1364 01       		.uleb128 0x1
 9602 1365 52       		.byte	0x52
ARM GAS  C:\Users\nikod\AppData\Local\Temp\cc4NWLo4.s 			page 190


 9603 1366 9F       		.byte	0x9f
 9604 1367 28000000 		.4byte	.LVL377
 9605 136b 30000000 		.4byte	.LVL381
 9606 136f 0100     		.2byte	0x1
 9607 1371 52       		.byte	0x52
 9608 1372 30000000 		.4byte	.LVL381
 9609 1376 36000000 		.4byte	.LFE91
 9610 137a 0400     		.2byte	0x4
 9611 137c F3       		.byte	0xf3
 9612 137d 01       		.uleb128 0x1
 9613 137e 52       		.byte	0x52
 9614 137f 9F       		.byte	0x9f
 9615 1380 00000000 		.4byte	0
 9616 1384 00000000 		.4byte	0
 9617              	.LLST110:
 9618 1388 24000000 		.4byte	.LVL376
 9619 138c 28000000 		.4byte	.LVL377
 9620 1390 0100     		.2byte	0x1
 9621 1392 50       		.byte	0x50
 9622 1393 30000000 		.4byte	.LVL381
 9623 1397 36000000 		.4byte	.LFE91
 9624 139b 0100     		.2byte	0x1
 9625 139d 50       		.byte	0x50
 9626 139e 00000000 		.4byte	0
 9627 13a2 00000000 		.4byte	0
 9628              	.LLST111:
 9629 13a6 00000000 		.4byte	.LVL382
 9630 13aa 14000000 		.4byte	.LVL385
 9631 13ae 0100     		.2byte	0x1
 9632 13b0 50       		.byte	0x50
 9633 13b1 14000000 		.4byte	.LVL385
 9634 13b5 17000000 		.4byte	.LVL386-1
 9635 13b9 0200     		.2byte	0x2
 9636 13bb 70       		.byte	0x70
 9637 13bc 00       		.sleb128 0
 9638 13bd 17000000 		.4byte	.LVL386-1
 9639 13c1 32000000 		.4byte	.LFE95
 9640 13c5 0400     		.2byte	0x4
 9641 13c7 F3       		.byte	0xf3
 9642 13c8 01       		.uleb128 0x1
 9643 13c9 50       		.byte	0x50
 9644 13ca 9F       		.byte	0x9f
 9645 13cb 00000000 		.4byte	0
 9646 13cf 00000000 		.4byte	0
 9647              	.LLST112:
 9648 13d3 00000000 		.4byte	.LVL382
 9649 13d7 12000000 		.4byte	.LVL384
 9650 13db 0100     		.2byte	0x1
 9651 13dd 51       		.byte	0x51
 9652 13de 12000000 		.4byte	.LVL384
 9653 13e2 17000000 		.4byte	.LVL386-1
 9654 13e6 0200     		.2byte	0x2
 9655 13e8 91       		.byte	0x91
 9656 13e9 75       		.sleb128 -11
 9657 13ea 17000000 		.4byte	.LVL386-1
 9658 13ee 32000000 		.4byte	.LFE95
 9659 13f2 0400     		.2byte	0x4
ARM GAS  C:\Users\nikod\AppData\Local\Temp\cc4NWLo4.s 			page 191


 9660 13f4 F3       		.byte	0xf3
 9661 13f5 01       		.uleb128 0x1
 9662 13f6 51       		.byte	0x51
 9663 13f7 9F       		.byte	0x9f
 9664 13f8 00000000 		.4byte	0
 9665 13fc 00000000 		.4byte	0
 9666              	.LLST113:
 9667 1400 00000000 		.4byte	.LVL382
 9668 1404 10000000 		.4byte	.LVL383
 9669 1408 0100     		.2byte	0x1
 9670 140a 52       		.byte	0x52
 9671 140b 10000000 		.4byte	.LVL383
 9672 140f 32000000 		.4byte	.LFE95
 9673 1413 0200     		.2byte	0x2
 9674 1415 91       		.byte	0x91
 9675 1416 6C       		.sleb128 -20
 9676 1417 00000000 		.4byte	0
 9677 141b 00000000 		.4byte	0
 9678              	.LLST114:
 9679 141f 18000000 		.4byte	.LVL386
 9680 1423 22000000 		.4byte	.LVL387
 9681 1427 0100     		.2byte	0x1
 9682 1429 50       		.byte	0x50
 9683 142a 26000000 		.4byte	.LVL388
 9684 142e 32000000 		.4byte	.LFE95
 9685 1432 0100     		.2byte	0x1
 9686 1434 50       		.byte	0x50
 9687 1435 00000000 		.4byte	0
 9688 1439 00000000 		.4byte	0
 9689              	.LLST115:
 9690 143d 00000000 		.4byte	.LVL389
 9691 1441 08000000 		.4byte	.LVL391
 9692 1445 0100     		.2byte	0x1
 9693 1447 50       		.byte	0x50
 9694 1448 08000000 		.4byte	.LVL391
 9695 144c 0E000000 		.4byte	.LFE92
 9696 1450 0400     		.2byte	0x4
 9697 1452 F3       		.byte	0xf3
 9698 1453 01       		.uleb128 0x1
 9699 1454 50       		.byte	0x50
 9700 1455 9F       		.byte	0x9f
 9701 1456 00000000 		.4byte	0
 9702 145a 00000000 		.4byte	0
 9703              	.LLST116:
 9704 145e 00000000 		.4byte	.LVL389
 9705 1462 06000000 		.4byte	.LVL390
 9706 1466 0100     		.2byte	0x1
 9707 1468 51       		.byte	0x51
 9708 1469 06000000 		.4byte	.LVL390
 9709 146d 0B000000 		.4byte	.LVL392-1
 9710 1471 0100     		.2byte	0x1
 9711 1473 52       		.byte	0x52
 9712 1474 0B000000 		.4byte	.LVL392-1
 9713 1478 0E000000 		.4byte	.LFE92
 9714 147c 0400     		.2byte	0x4
 9715 147e F3       		.byte	0xf3
 9716 147f 01       		.uleb128 0x1
ARM GAS  C:\Users\nikod\AppData\Local\Temp\cc4NWLo4.s 			page 192


 9717 1480 51       		.byte	0x51
 9718 1481 9F       		.byte	0x9f
 9719 1482 00000000 		.4byte	0
 9720 1486 00000000 		.4byte	0
 9721              	.LLST117:
 9722 148a 00000000 		.4byte	.LVL393
 9723 148e 08000000 		.4byte	.LVL395
 9724 1492 0100     		.2byte	0x1
 9725 1494 50       		.byte	0x50
 9726 1495 08000000 		.4byte	.LVL395
 9727 1499 0E000000 		.4byte	.LFE93
 9728 149d 0400     		.2byte	0x4
 9729 149f F3       		.byte	0xf3
 9730 14a0 01       		.uleb128 0x1
 9731 14a1 50       		.byte	0x50
 9732 14a2 9F       		.byte	0x9f
 9733 14a3 00000000 		.4byte	0
 9734 14a7 00000000 		.4byte	0
 9735              	.LLST118:
 9736 14ab 00000000 		.4byte	.LVL393
 9737 14af 06000000 		.4byte	.LVL394
 9738 14b3 0100     		.2byte	0x1
 9739 14b5 51       		.byte	0x51
 9740 14b6 06000000 		.4byte	.LVL394
 9741 14ba 0B000000 		.4byte	.LVL396-1
 9742 14be 0100     		.2byte	0x1
 9743 14c0 52       		.byte	0x52
 9744 14c1 0B000000 		.4byte	.LVL396-1
 9745 14c5 0E000000 		.4byte	.LFE93
 9746 14c9 0400     		.2byte	0x4
 9747 14cb F3       		.byte	0xf3
 9748 14cc 01       		.uleb128 0x1
 9749 14cd 51       		.byte	0x51
 9750 14ce 9F       		.byte	0x9f
 9751 14cf 00000000 		.4byte	0
 9752 14d3 00000000 		.4byte	0
 9753              	.LLST119:
 9754 14d7 00000000 		.4byte	.LVL397
 9755 14db 08000000 		.4byte	.LVL398
 9756 14df 0100     		.2byte	0x1
 9757 14e1 50       		.byte	0x50
 9758 14e2 08000000 		.4byte	.LVL398
 9759 14e6 0E000000 		.4byte	.LFE94
 9760 14ea 0400     		.2byte	0x4
 9761 14ec F3       		.byte	0xf3
 9762 14ed 01       		.uleb128 0x1
 9763 14ee 50       		.byte	0x50
 9764 14ef 9F       		.byte	0x9f
 9765 14f0 00000000 		.4byte	0
 9766 14f4 00000000 		.4byte	0
 9767              	.LLST120:
 9768 14f8 00000000 		.4byte	.LVL400
 9769 14fc 14000000 		.4byte	.LVL401
 9770 1500 0100     		.2byte	0x1
 9771 1502 50       		.byte	0x50
 9772 1503 14000000 		.4byte	.LVL401
 9773 1507 17000000 		.4byte	.LVL402-1
ARM GAS  C:\Users\nikod\AppData\Local\Temp\cc4NWLo4.s 			page 193


 9774 150b 0200     		.2byte	0x2
 9775 150d 91       		.byte	0x91
 9776 150e 75       		.sleb128 -11
 9777 150f 17000000 		.4byte	.LVL402-1
 9778 1513 22000000 		.4byte	.LFE96
 9779 1517 0400     		.2byte	0x4
 9780 1519 F3       		.byte	0xf3
 9781 151a 01       		.uleb128 0x1
 9782 151b 50       		.byte	0x50
 9783 151c 9F       		.byte	0x9f
 9784 151d 00000000 		.4byte	0
 9785 1521 00000000 		.4byte	0
 9786              	.LLST121:
 9787 1525 2C000000 		.4byte	.LVL406
 9788 1529 34000000 		.4byte	.LVL407
 9789 152d 0100     		.2byte	0x1
 9790 152f 50       		.byte	0x50
 9791 1530 36000000 		.4byte	.LVL408
 9792 1534 38000000 		.4byte	.LVL409
 9793 1538 0100     		.2byte	0x1
 9794 153a 50       		.byte	0x50
 9795 153b 3A000000 		.4byte	.LVL410
 9796 153f 3C000000 		.4byte	.LVL411
 9797 1543 0100     		.2byte	0x1
 9798 1545 50       		.byte	0x50
 9799 1546 00000000 		.4byte	0
 9800 154a 00000000 		.4byte	0
 9801              	.LLST122:
 9802 154e 0A000000 		.4byte	.LVL412
 9803 1552 0E000000 		.4byte	.LVL413
 9804 1556 0100     		.2byte	0x1
 9805 1558 50       		.byte	0x50
 9806 1559 00000000 		.4byte	0
 9807 155d 00000000 		.4byte	0
 9808              		.section	.debug_aranges,"",%progbits
 9809 0000 4C010000 		.4byte	0x14c
 9810 0004 0200     		.2byte	0x2
 9811 0006 00000000 		.4byte	.Ldebug_info0
 9812 000a 04       		.byte	0x4
 9813 000b 00       		.byte	0
 9814 000c 0000     		.2byte	0
 9815 000e 0000     		.2byte	0
 9816 0010 00000000 		.4byte	.LFB64
 9817 0014 2C000000 		.4byte	.LFE64-.LFB64
 9818 0018 00000000 		.4byte	.LFB65
 9819 001c 3A000000 		.4byte	.LFE65-.LFB65
 9820 0020 00000000 		.4byte	.LFB66
 9821 0024 32000000 		.4byte	.LFE66-.LFB66
 9822 0028 00000000 		.4byte	.LFB67
 9823 002c 96000000 		.4byte	.LFE67-.LFB67
 9824 0030 00000000 		.4byte	.LFB68
 9825 0034 18000000 		.4byte	.LFE68-.LFB68
 9826 0038 00000000 		.4byte	.LFB69
 9827 003c 18000000 		.4byte	.LFE69-.LFB69
 9828 0040 00000000 		.4byte	.LFB70
 9829 0044 6C000000 		.4byte	.LFE70-.LFB70
 9830 0048 00000000 		.4byte	.LFB72
ARM GAS  C:\Users\nikod\AppData\Local\Temp\cc4NWLo4.s 			page 194


 9831 004c 28000000 		.4byte	.LFE72-.LFB72
 9832 0050 00000000 		.4byte	.LFB73
 9833 0054 1E000000 		.4byte	.LFE73-.LFB73
 9834 0058 00000000 		.4byte	.LFB71
 9835 005c 58000000 		.4byte	.LFE71-.LFB71
 9836 0060 00000000 		.4byte	.LFB74
 9837 0064 0C000000 		.4byte	.LFE74-.LFB74
 9838 0068 00000000 		.4byte	.LFB75
 9839 006c 0E000000 		.4byte	.LFE75-.LFB75
 9840 0070 00000000 		.4byte	.LFB76
 9841 0074 20000000 		.4byte	.LFE76-.LFB76
 9842 0078 00000000 		.4byte	.LFB77
 9843 007c 82000000 		.4byte	.LFE77-.LFB77
 9844 0080 00000000 		.4byte	.LFB78
 9845 0084 16000000 		.4byte	.LFE78-.LFB78
 9846 0088 00000000 		.4byte	.LFB79
 9847 008c 34000000 		.4byte	.LFE79-.LFB79
 9848 0090 00000000 		.4byte	.LFB81
 9849 0094 5E010000 		.4byte	.LFE81-.LFB81
 9850 0098 00000000 		.4byte	.LFB80
 9851 009c 28000000 		.4byte	.LFE80-.LFB80
 9852 00a0 00000000 		.4byte	.LFB84
 9853 00a4 60000000 		.4byte	.LFE84-.LFB84
 9854 00a8 00000000 		.4byte	.LFB82
 9855 00ac 0E000000 		.4byte	.LFE82-.LFB82
 9856 00b0 00000000 		.4byte	.LFB83
 9857 00b4 0E000000 		.4byte	.LFE83-.LFB83
 9858 00b8 00000000 		.4byte	.LFB85
 9859 00bc FC020000 		.4byte	.LFE85-.LFB85
 9860 00c0 00000000 		.4byte	.LFB86
 9861 00c4 44000000 		.4byte	.LFE86-.LFB86
 9862 00c8 00000000 		.4byte	.LFB87
 9863 00cc 64000000 		.4byte	.LFE87-.LFB87
 9864 00d0 00000000 		.4byte	.LFB88
 9865 00d4 0C000000 		.4byte	.LFE88-.LFB88
 9866 00d8 00000000 		.4byte	.LFB89
 9867 00dc 46000000 		.4byte	.LFE89-.LFB89
 9868 00e0 00000000 		.4byte	.LFB97
 9869 00e4 3C000000 		.4byte	.LFE97-.LFB97
 9870 00e8 00000000 		.4byte	.LFB99
 9871 00ec 70000000 		.4byte	.LFE99-.LFB99
 9872 00f0 00000000 		.4byte	.LFB100
 9873 00f4 90000000 		.4byte	.LFE100-.LFB100
 9874 00f8 00000000 		.4byte	.LFB90
 9875 00fc 40000000 		.4byte	.LFE90-.LFB90
 9876 0100 00000000 		.4byte	.LFB98
 9877 0104 68000000 		.4byte	.LFE98-.LFB98
 9878 0108 00000000 		.4byte	.LFB91
 9879 010c 36000000 		.4byte	.LFE91-.LFB91
 9880 0110 00000000 		.4byte	.LFB95
 9881 0114 32000000 		.4byte	.LFE95-.LFB95
 9882 0118 00000000 		.4byte	.LFB92
 9883 011c 0E000000 		.4byte	.LFE92-.LFB92
 9884 0120 00000000 		.4byte	.LFB93
 9885 0124 0E000000 		.4byte	.LFE93-.LFB93
 9886 0128 00000000 		.4byte	.LFB94
 9887 012c 0E000000 		.4byte	.LFE94-.LFB94
ARM GAS  C:\Users\nikod\AppData\Local\Temp\cc4NWLo4.s 			page 195


 9888 0130 00000000 		.4byte	.LFB96
 9889 0134 22000000 		.4byte	.LFE96-.LFB96
 9890 0138 00000000 		.4byte	.LFB101
 9891 013c 40000000 		.4byte	.LFE101-.LFB101
 9892 0140 00000000 		.4byte	.LFB102
 9893 0144 18000000 		.4byte	.LFE102-.LFB102
 9894 0148 00000000 		.4byte	0
 9895 014c 00000000 		.4byte	0
 9896              		.section	.debug_ranges,"",%progbits
 9897              	.Ldebug_ranges0:
 9898 0000 9C000000 		.4byte	.LBB7
 9899 0004 CA000000 		.4byte	.LBE7
 9900 0008 50010000 		.4byte	.LBB9
 9901 000c 54010000 		.4byte	.LBE9
 9902 0010 00000000 		.4byte	0
 9903 0014 00000000 		.4byte	0
 9904 0018 22000000 		.4byte	.LBB10
 9905 001c B6020000 		.4byte	.LBE10
 9906 0020 D2020000 		.4byte	.LBB15
 9907 0024 F0020000 		.4byte	.LBE15
 9908 0028 00000000 		.4byte	0
 9909 002c 00000000 		.4byte	0
 9910 0030 C0000000 		.4byte	.LBB11
 9911 0034 CC000000 		.4byte	.LBE11
 9912 0038 CE000000 		.4byte	.LBB12
 9913 003c F0000000 		.4byte	.LBE12
 9914 0040 00000000 		.4byte	0
 9915 0044 00000000 		.4byte	0
 9916 0048 B8010000 		.4byte	.LBB13
 9917 004c 18020000 		.4byte	.LBE13
 9918 0050 D8020000 		.4byte	.LBB14
 9919 0054 E0020000 		.4byte	.LBE14
 9920 0058 00000000 		.4byte	0
 9921 005c 00000000 		.4byte	0
 9922 0060 00000000 		.4byte	.LFB64
 9923 0064 2C000000 		.4byte	.LFE64
 9924 0068 00000000 		.4byte	.LFB65
 9925 006c 3A000000 		.4byte	.LFE65
 9926 0070 00000000 		.4byte	.LFB66
 9927 0074 32000000 		.4byte	.LFE66
 9928 0078 00000000 		.4byte	.LFB67
 9929 007c 96000000 		.4byte	.LFE67
 9930 0080 00000000 		.4byte	.LFB68
 9931 0084 18000000 		.4byte	.LFE68
 9932 0088 00000000 		.4byte	.LFB69
 9933 008c 18000000 		.4byte	.LFE69
 9934 0090 00000000 		.4byte	.LFB70
 9935 0094 6C000000 		.4byte	.LFE70
 9936 0098 00000000 		.4byte	.LFB72
 9937 009c 28000000 		.4byte	.LFE72
 9938 00a0 00000000 		.4byte	.LFB73
 9939 00a4 1E000000 		.4byte	.LFE73
 9940 00a8 00000000 		.4byte	.LFB71
 9941 00ac 58000000 		.4byte	.LFE71
 9942 00b0 00000000 		.4byte	.LFB74
 9943 00b4 0C000000 		.4byte	.LFE74
 9944 00b8 00000000 		.4byte	.LFB75
ARM GAS  C:\Users\nikod\AppData\Local\Temp\cc4NWLo4.s 			page 196


 9945 00bc 0E000000 		.4byte	.LFE75
 9946 00c0 00000000 		.4byte	.LFB76
 9947 00c4 20000000 		.4byte	.LFE76
 9948 00c8 00000000 		.4byte	.LFB77
 9949 00cc 82000000 		.4byte	.LFE77
 9950 00d0 00000000 		.4byte	.LFB78
 9951 00d4 16000000 		.4byte	.LFE78
 9952 00d8 00000000 		.4byte	.LFB79
 9953 00dc 34000000 		.4byte	.LFE79
 9954 00e0 00000000 		.4byte	.LFB81
 9955 00e4 5E010000 		.4byte	.LFE81
 9956 00e8 00000000 		.4byte	.LFB80
 9957 00ec 28000000 		.4byte	.LFE80
 9958 00f0 00000000 		.4byte	.LFB84
 9959 00f4 60000000 		.4byte	.LFE84
 9960 00f8 00000000 		.4byte	.LFB82
 9961 00fc 0E000000 		.4byte	.LFE82
 9962 0100 00000000 		.4byte	.LFB83
 9963 0104 0E000000 		.4byte	.LFE83
 9964 0108 00000000 		.4byte	.LFB85
 9965 010c FC020000 		.4byte	.LFE85
 9966 0110 00000000 		.4byte	.LFB86
 9967 0114 44000000 		.4byte	.LFE86
 9968 0118 00000000 		.4byte	.LFB87
 9969 011c 64000000 		.4byte	.LFE87
 9970 0120 00000000 		.4byte	.LFB88
 9971 0124 0C000000 		.4byte	.LFE88
 9972 0128 00000000 		.4byte	.LFB89
 9973 012c 46000000 		.4byte	.LFE89
 9974 0130 00000000 		.4byte	.LFB97
 9975 0134 3C000000 		.4byte	.LFE97
 9976 0138 00000000 		.4byte	.LFB99
 9977 013c 70000000 		.4byte	.LFE99
 9978 0140 00000000 		.4byte	.LFB100
 9979 0144 90000000 		.4byte	.LFE100
 9980 0148 00000000 		.4byte	.LFB90
 9981 014c 40000000 		.4byte	.LFE90
 9982 0150 00000000 		.4byte	.LFB98
 9983 0154 68000000 		.4byte	.LFE98
 9984 0158 00000000 		.4byte	.LFB91
 9985 015c 36000000 		.4byte	.LFE91
 9986 0160 00000000 		.4byte	.LFB95
 9987 0164 32000000 		.4byte	.LFE95
 9988 0168 00000000 		.4byte	.LFB92
 9989 016c 0E000000 		.4byte	.LFE92
 9990 0170 00000000 		.4byte	.LFB93
 9991 0174 0E000000 		.4byte	.LFE93
 9992 0178 00000000 		.4byte	.LFB94
 9993 017c 0E000000 		.4byte	.LFE94
 9994 0180 00000000 		.4byte	.LFB96
 9995 0184 22000000 		.4byte	.LFE96
 9996 0188 00000000 		.4byte	.LFB101
 9997 018c 40000000 		.4byte	.LFE101
 9998 0190 00000000 		.4byte	.LFB102
 9999 0194 18000000 		.4byte	.LFE102
 10000 0198 00000000 		.4byte	0
 10001 019c 00000000 		.4byte	0
ARM GAS  C:\Users\nikod\AppData\Local\Temp\cc4NWLo4.s 			page 197


 10002              		.section	.debug_line,"",%progbits
 10003              	.Ldebug_line0:
 10004 0000 72070000 		.section	.debug_str,"MS",%progbits,1
 10004      02006C01 
 10004      00000201 
 10004      FB0E0D00 
 10004      01010101 
 10005              	.LASF60:
 10006 0000 73656E64 		.ascii	"sendData\000"
 10006      44617461 
 10006      00
 10007              	.LASF83:
 10008 0009 63686563 		.ascii	"checkBit\000"
 10008      6B426974 
 10008      00
 10009              	.LASF92:
 10010 0012 76616C75 		.ascii	"valueOfCollReg\000"
 10010      654F6643 
 10010      6F6C6C52 
 10010      656700
 10011              	.LASF126:
 10012 0021 43794465 		.ascii	"CyDelay\000"
 10012      6C617900 
 10013              	.LASF63:
 10014 0029 6261636B 		.ascii	"backLen\000"
 10014      4C656E00 
 10015              	.LASF118:
 10016 0031 50494343 		.ascii	"PICC_IsNewCardPresent\000"
 10016      5F49734E 
 10016      65774361 
 10016      72645072 
 10016      6573656E 
 10017              	.LASF104:
 10018 0047 72786C65 		.ascii	"rxlength\000"
 10018      6E677468 
 10018      00
 10019              	.LASF89:
 10020 0050 72657370 		.ascii	"responseLength\000"
 10020      6F6E7365 
 10020      4C656E67 
 10020      746800
 10021              	.LASF75:
 10022 005f 62756666 		.ascii	"bufferSize\000"
 10022      65725369 
 10022      7A6500
 10023              	.LASF28:
 10024 006a 4D494641 		.ascii	"MIFARE_Key\000"
 10024      52455F4B 
 10024      657900
 10025              	.LASF103:
 10026 0075 636D6442 		.ascii	"cmdBuffer\000"
 10026      75666665 
 10026      7200
 10027              	.LASF31:
 10028 007f 5043445F 		.ascii	"PCD_WriteRegister\000"
 10028      57726974 
 10028      65526567 
ARM GAS  C:\Users\nikod\AppData\Local\Temp\cc4NWLo4.s 			page 198


 10028      69737465 
 10028      7200
 10029              	.LASF80:
 10030 0091 73656C65 		.ascii	"selectDone\000"
 10030      6374446F 
 10030      6E6500
 10031              	.LASF51:
 10032 009c 5043445F 		.ascii	"PCD_GetAntennaGain\000"
 10032      47657441 
 10032      6E74656E 
 10032      6E614761 
 10032      696E00
 10033              	.LASF86:
 10034 00af 62756666 		.ascii	"buffer\000"
 10034      657200
 10035              	.LASF84:
 10036 00b6 75696449 		.ascii	"uidIndex\000"
 10036      6E646578 
 10036      00
 10037              	.LASF13:
 10038 00bf 756E7369 		.ascii	"unsigned int\000"
 10038      676E6564 
 10038      20696E74 
 10038      00
 10039              	.LASF7:
 10040 00cc 5F5F696E 		.ascii	"__int32_t\000"
 10040      7433325F 
 10040      7400
 10041              	.LASF112:
 10042 00d6 4D494641 		.ascii	"MIFARE_TwoStepHelper\000"
 10042      52455F54 
 10042      776F5374 
 10042      65704865 
 10042      6C706572 
 10043              	.LASF129:
 10044 00eb 52433532 		.ascii	"RC522.c\000"
 10044      322E6300 
 10045              	.LASF53:
 10046 00f3 5043445F 		.ascii	"PCD_PerformSelfTest\000"
 10046      50657266 
 10046      6F726D53 
 10046      656C6654 
 10046      65737400 
 10047              	.LASF70:
 10048 0107 636F6E74 		.ascii	"controlBuffer\000"
 10048      726F6C42 
 10048      75666665 
 10048      7200
 10049              	.LASF125:
 10050 0115 5350495F 		.ascii	"SPI_ReadRxData\000"
 10050      52656164 
 10050      52784461 
 10050      746100
 10051              	.LASF18:
 10052 0124 75696E74 		.ascii	"uint32_t\000"
 10052      33325F74 
 10052      00
ARM GAS  C:\Users\nikod\AppData\Local\Temp\cc4NWLo4.s 			page 199


 10053              	.LASF14:
 10054 012d 696E7438 		.ascii	"int8_t\000"
 10054      5F7400
 10055              	.LASF65:
 10056 0134 63686563 		.ascii	"checkCRC\000"
 10056      6B435243 
 10056      00
 10057              	.LASF100:
 10058 013d 5043445F 		.ascii	"PCD_NTAG216_AUTH\000"
 10058      4E544147 
 10058      3231365F 
 10058      41555448 
 10058      00
 10059              	.LASF82:
 10060 014e 63617363 		.ascii	"cascadeLevel\000"
 10060      6164654C 
 10060      6576656C 
 10060      00
 10061              	.LASF54:
 10062 015b 5A45524F 		.ascii	"ZEROES\000"
 10062      455300
 10063              	.LASF20:
 10064 0162 666C6F61 		.ascii	"float\000"
 10064      7400
 10065              	.LASF62:
 10066 0168 6261636B 		.ascii	"backData\000"
 10066      44617461 
 10066      00
 10067              	.LASF33:
 10068 0171 636F756E 		.ascii	"count\000"
 10068      7400
 10069              	.LASF35:
 10070 0177 696E6465 		.ascii	"index\000"
 10070      7800
 10071              	.LASF45:
 10072 017d 72657375 		.ascii	"result\000"
 10072      6C7400
 10073              	.LASF127:
 10074 0184 5350495F 		.ascii	"SPI_Start\000"
 10074      53746172 
 10074      7400
 10075              	.LASF26:
 10076 018e 75696442 		.ascii	"uidByte\000"
 10076      79746500 
 10077              	.LASF12:
 10078 0196 6C6F6E67 		.ascii	"long long unsigned int\000"
 10078      206C6F6E 
 10078      6720756E 
 10078      7369676E 
 10078      65642069 
 10079              	.LASF109:
 10080 01ad 4D494641 		.ascii	"MIFARE_SetValue\000"
 10080      52455F53 
 10080      65745661 
 10080      6C756500 
 10081              	.LASF119:
 10082 01bd 50494343 		.ascii	"PICC_ReadCardSerial\000"
ARM GAS  C:\Users\nikod\AppData\Local\Temp\cc4NWLo4.s 			page 200


 10082      5F526561 
 10082      64436172 
 10082      64536572 
 10082      69616C00 
 10083              	.LASF115:
 10084 01d1 4D494641 		.ascii	"MIFARE_Increment\000"
 10084      52455F49 
 10084      6E637265 
 10084      6D656E74 
 10084      00
 10085              	.LASF5:
 10086 01e2 5F5F7569 		.ascii	"__uint16_t\000"
 10086      6E743136 
 10086      5F7400
 10087              	.LASF50:
 10088 01ed 5043445F 		.ascii	"PCD_AntennaOff\000"
 10088      416E7465 
 10088      6E6E614F 
 10088      666600
 10089              	.LASF69:
 10090 01fc 5F76616C 		.ascii	"_validBits\000"
 10090      69644269 
 10090      747300
 10091              	.LASF30:
 10092 0207 76616C75 		.ascii	"value\000"
 10092      6500
 10093              	.LASF77:
 10094 020d 50494343 		.ascii	"PICC_WakeupA\000"
 10094      5F57616B 
 10094      65757041 
 10094      00
 10095              	.LASF128:
 10096 021a 474E5520 		.ascii	"GNU C11 5.4.1 20160609 (release) [ARM/embedded-5-br"
 10096      43313120 
 10096      352E342E 
 10096      31203230 
 10096      31363036 
 10097 024d 616E6368 		.ascii	"anch revision 237715] -mcpu=cortex-m3 -mthumb -g -O"
 10097      20726576 
 10097      6973696F 
 10097      6E203233 
 10097      37373135 
 10098 0280 67202D66 		.ascii	"g -ffunction-sections -ffat-lto-objects\000"
 10098      66756E63 
 10098      74696F6E 
 10098      2D736563 
 10098      74696F6E 
 10099              	.LASF131:
 10100 02a8 68617264 		.ascii	"hardReset\000"
 10100      52657365 
 10100      7400
 10101              	.LASF59:
 10102 02b2 77616974 		.ascii	"waitIRq\000"
 10102      49527100 
 10103              	.LASF73:
 10104 02ba 50494343 		.ascii	"PICC_REQA_or_WUPA\000"
 10104      5F524551 
ARM GAS  C:\Users\nikod\AppData\Local\Temp\cc4NWLo4.s 			page 201


 10104      415F6F72 
 10104      5F575550 
 10104      4100
 10105              	.LASF49:
 10106 02cc 5F426F6F 		.ascii	"_Bool\000"
 10106      6C00
 10107              	.LASF91:
 10108 02d2 6D617842 		.ascii	"maxBytes\000"
 10108      79746573 
 10108      00
 10109              	.LASF122:
 10110 02db 72656164 		.ascii	"readDummy\000"
 10110      44756D6D 
 10110      7900
 10111              	.LASF79:
 10112 02e5 75696443 		.ascii	"uidComplete\000"
 10112      6F6D706C 
 10112      65746500 
 10113              	.LASF36:
 10114 02f1 5043445F 		.ascii	"PCD_ReadRegisters\000"
 10114      52656164 
 10114      52656769 
 10114      73746572 
 10114      7300
 10115              	.LASF107:
 10116 0303 636D6442 		.ascii	"cmdBufferSize\000"
 10116      75666665 
 10116      7253697A 
 10116      6500
 10117              	.LASF88:
 10118 0311 72657370 		.ascii	"responseBuffer\000"
 10118      6F6E7365 
 10118      42756666 
 10118      657200
 10119              	.LASF22:
 10120 0320 63686172 		.ascii	"char\000"
 10120      00
 10121              	.LASF121:
 10122 0325 72656164 		.ascii	"readData\000"
 10122      44617461 
 10122      00
 10123              	.LASF102:
 10124 032e 7041434B 		.ascii	"pACK\000"
 10124      00
 10125              	.LASF108:
 10126 0333 4D494641 		.ascii	"MIFARE_Write\000"
 10126      52455F57 
 10126      72697465 
 10126      00
 10127              	.LASF43:
 10128 0340 64617461 		.ascii	"data\000"
 10128      00
 10129              	.LASF32:
 10130 0345 5043445F 		.ascii	"PCD_WriteRegisters\000"
 10130      57726974 
 10130      65526567 
 10130      69737465 
ARM GAS  C:\Users\nikod\AppData\Local\Temp\cc4NWLo4.s 			page 202


 10130      727300
 10131              	.LASF15:
 10132 0358 75696E74 		.ascii	"uint8_t\000"
 10132      385F7400 
 10133              	.LASF71:
 10134 0360 73746174 		.ascii	"status\000"
 10134      757300
 10135              	.LASF123:
 10136 0367 5350495F 		.ascii	"SPI_ReadTxStatus\000"
 10136      52656164 
 10136      54785374 
 10136      61747573 
 10136      00
 10137              	.LASF76:
 10138 0378 50494343 		.ascii	"PICC_RequestA\000"
 10138      5F526571 
 10138      75657374 
 10138      4100
 10139              	.LASF95:
 10140 0386 5043445F 		.ascii	"PCD_Authenticate\000"
 10140      41757468 
 10140      656E7469 
 10140      63617465 
 10140      00
 10141              	.LASF64:
 10142 0397 76616C69 		.ascii	"validBits\000"
 10142      64426974 
 10142      7300
 10143              	.LASF116:
 10144 03a1 4D494641 		.ascii	"MIFARE_Restore\000"
 10144      52455F52 
 10144      6573746F 
 10144      726500
 10145              	.LASF11:
 10146 03b0 6C6F6E67 		.ascii	"long long int\000"
 10146      206C6F6E 
 10146      6720696E 
 10146      7400
 10147              	.LASF47:
 10148 03be 5043445F 		.ascii	"PCD_AntennaOn\000"
 10148      416E7465 
 10148      6E6E614F 
 10148      6E00
 10149              	.LASF41:
 10150 03cc 5043445F 		.ascii	"PCD_ReadRegister\000"
 10150      52656164 
 10150      52656769 
 10150      73746572 
 10150      00
 10151              	.LASF111:
 10152 03dd 70616765 		.ascii	"page\000"
 10152      00
 10153              	.LASF101:
 10154 03e2 70617373 		.ascii	"passWord\000"
 10154      576F7264 
 10154      00
 10155              	.LASF105:
ARM GAS  C:\Users\nikod\AppData\Local\Temp\cc4NWLo4.s 			page 203


 10156 03eb 5043445F 		.ascii	"PCD_MIFARE_Transceive\000"
 10156      4D494641 
 10156      52455F54 
 10156      72616E73 
 10156      63656976 
 10157              	.LASF113:
 10158 0401 4D494641 		.ascii	"MIFARE_Decrement\000"
 10158      52455F44 
 10158      65637265 
 10158      6D656E74 
 10158      00
 10159              	.LASF25:
 10160 0412 73697A65 		.ascii	"size\000"
 10160      00
 10161              	.LASF66:
 10162 0417 74784C61 		.ascii	"txLastBits\000"
 10162      73744269 
 10162      747300
 10163              	.LASF58:
 10164 0422 636F6D6D 		.ascii	"command\000"
 10164      616E6400 
 10165              	.LASF38:
 10166 042a 6D61736B 		.ascii	"mask\000"
 10166      00
 10167              	.LASF34:
 10168 042f 76616C75 		.ascii	"values\000"
 10168      657300
 10169              	.LASF74:
 10170 0436 62756666 		.ascii	"bufferATQA\000"
 10170      65724154 
 10170      514100
 10171              	.LASF68:
 10172 0441 6572726F 		.ascii	"errorRegValue\000"
 10172      72526567 
 10172      56616C75 
 10172      6500
 10173              	.LASF0:
 10174 044f 5F5F696E 		.ascii	"__int8_t\000"
 10174      74385F74 
 10174      00
 10175              	.LASF23:
 10176 0458 6C6F6E67 		.ascii	"long double\000"
 10176      20646F75 
 10176      626C6500 
 10177              	.LASF16:
 10178 0464 75696E74 		.ascii	"uint16_t\000"
 10178      31365F74 
 10178      00
 10179              	.LASF81:
 10180 046d 75736543 		.ascii	"useCascadeTag\000"
 10180      61736361 
 10180      64655461 
 10180      6700
 10181              	.LASF106:
 10182 047b 61636365 		.ascii	"acceptTimeout\000"
 10182      70745469 
 10182      6D656F75 
ARM GAS  C:\Users\nikod\AppData\Local\Temp\cc4NWLo4.s 			page 204


 10182      7400
 10183              	.LASF42:
 10184 0489 5043445F 		.ascii	"PCD_CalculateCRC\000"
 10184      43616C63 
 10184      756C6174 
 10184      65435243 
 10184      00
 10185              	.LASF72:
 10186 049a 5043445F 		.ascii	"PCD_TransceiveData\000"
 10186      5472616E 
 10186      73636569 
 10186      76654461 
 10186      746100
 10187              	.LASF4:
 10188 04ad 73686F72 		.ascii	"short int\000"
 10188      7420696E 
 10188      7400
 10189              	.LASF8:
 10190 04b7 6C6F6E67 		.ascii	"long int\000"
 10190      20696E74 
 10190      00
 10191              	.LASF120:
 10192 04c0 49544D5F 		.ascii	"ITM_RxBuffer\000"
 10192      52784275 
 10192      66666572 
 10192      00
 10193              	.LASF44:
 10194 04cd 6C656E67 		.ascii	"length\000"
 10194      746800
 10195              	.LASF97:
 10196 04d4 5043445F 		.ascii	"PCD_StopCrypto1\000"
 10196      53746F70 
 10196      43727970 
 10196      746F3100 
 10197              	.LASF55:
 10198 04e4 5043445F 		.ascii	"PCD_SoftPowerDown\000"
 10198      536F6674 
 10198      506F7765 
 10198      72446F77 
 10198      6E00
 10199              	.LASF56:
 10200 04f6 5043445F 		.ascii	"PCD_SoftPowerUp\000"
 10200      536F6674 
 10200      506F7765 
 10200      72557000 
 10201              	.LASF39:
 10202 0506 5043445F 		.ascii	"PCD_SetRegisterBitMask\000"
 10202      53657452 
 10202      65676973 
 10202      74657242 
 10202      69744D61 
 10203              	.LASF1:
 10204 051d 5F5F7569 		.ascii	"__uint8_t\000"
 10204      6E74385F 
 10204      7400
 10205              	.LASF48:
 10206 0527 5043445F 		.ascii	"PCD_Init\000"
ARM GAS  C:\Users\nikod\AppData\Local\Temp\cc4NWLo4.s 			page 205


 10206      496E6974 
 10206      00
 10207              	.LASF87:
 10208 0530 62756666 		.ascii	"bufferUsed\000"
 10208      65725573 
 10208      656400
 10209              	.LASF96:
 10210 053b 626C6F63 		.ascii	"blockAddr\000"
 10210      6B416464 
 10210      7200
 10211              	.LASF24:
 10212 0545 73697A65 		.ascii	"sizetype\000"
 10212      74797065 
 10212      00
 10213              	.LASF10:
 10214 054e 6C6F6E67 		.ascii	"long unsigned int\000"
 10214      20756E73 
 10214      69676E65 
 10214      6420696E 
 10214      7400
 10215              	.LASF67:
 10216 0560 62697446 		.ascii	"bitFraming\000"
 10216      72616D69 
 10216      6E6700
 10217              	.LASF98:
 10218 056b 4D494641 		.ascii	"MIFARE_Read\000"
 10218      52455F52 
 10218      65616400 
 10219              	.LASF17:
 10220 0577 696E7433 		.ascii	"int32_t\000"
 10220      325F7400 
 10221              	.LASF57:
 10222 057f 5043445F 		.ascii	"PCD_CommunicateWithPICC\000"
 10222      436F6D6D 
 10222      756E6963 
 10222      61746557 
 10222      69746850 
 10223              	.LASF52:
 10224 0597 5043445F 		.ascii	"PCD_SetAntennaGain\000"
 10224      53657441 
 10224      6E74656E 
 10224      6E614761 
 10224      696E00
 10225              	.LASF94:
 10226 05aa 50494343 		.ascii	"PICC_HaltA\000"
 10226      5F48616C 
 10226      744100
 10227              	.LASF110:
 10228 05b5 4D494641 		.ascii	"MIFARE_Ultralight_Write\000"
 10228      52455F55 
 10228      6C747261 
 10228      6C696768 
 10228      745F5772 
 10229              	.LASF3:
 10230 05cd 756E7369 		.ascii	"unsigned char\000"
 10230      676E6564 
 10230      20636861 
ARM GAS  C:\Users\nikod\AppData\Local\Temp\cc4NWLo4.s 			page 206


 10230      7200
 10231              	.LASF9:
 10232 05db 5F5F7569 		.ascii	"__uint32_t\000"
 10232      6E743332 
 10232      5F7400
 10233              	.LASF37:
 10234 05e6 7278416C 		.ascii	"rxAlign\000"
 10234      69676E00 
 10235              	.LASF99:
 10236 05ee 4D494641 		.ascii	"MIFARE_GetValue\000"
 10236      52455F47 
 10236      65745661 
 10236      6C756500 
 10237              	.LASF78:
 10238 05fe 50494343 		.ascii	"PICC_Select\000"
 10238      5F53656C 
 10238      65637400 
 10239              	.LASF29:
 10240 060a 61646472 		.ascii	"addr\000"
 10240      00
 10241              	.LASF46:
 10242 060f 5043445F 		.ascii	"PCD_Reset\000"
 10242      52657365 
 10242      7400
 10243              	.LASF130:
 10244 0619 433A5C55 		.ascii	"C:\\Users\\nikod\\Documents\\PSoC Creator\\RC522\\R"
 10244      73657273 
 10244      5C6E696B 
 10244      6F645C44 
 10244      6F63756D 
 10245 0646 4649442E 		.ascii	"FID.cydsn\000"
 10245      63796473 
 10245      6E00
 10246              	.LASF90:
 10247 0650 62797465 		.ascii	"bytesToCopy\000"
 10247      73546F43 
 10247      6F707900 
 10248              	.LASF2:
 10249 065c 7369676E 		.ascii	"signed char\000"
 10249      65642063 
 10249      68617200 
 10250              	.LASF114:
 10251 0668 64656C74 		.ascii	"delta\000"
 10251      6100
 10252              	.LASF6:
 10253 066e 73686F72 		.ascii	"short unsigned int\000"
 10253      7420756E 
 10253      7369676E 
 10253      65642069 
 10253      6E7400
 10254              	.LASF132:
 10255 0681 6D656D63 		.ascii	"memcpy\000"
 10255      707900
 10256              	.LASF85:
 10257 0688 63757272 		.ascii	"currentLevelKnownBits\000"
 10257      656E744C 
 10257      6576656C 
ARM GAS  C:\Users\nikod\AppData\Local\Temp\cc4NWLo4.s 			page 207


 10257      4B6E6F77 
 10257      6E426974 
 10258              	.LASF27:
 10259 069e 6B657942 		.ascii	"keyByte\000"
 10259      79746500 
 10260              	.LASF19:
 10261 06a6 75696E74 		.ascii	"uint8\000"
 10261      3800
 10262              	.LASF21:
 10263 06ac 646F7562 		.ascii	"double\000"
 10263      6C6500
 10264              	.LASF117:
 10265 06b3 4D494641 		.ascii	"MIFARE_Transfer\000"
 10265      52455F54 
 10265      72616E73 
 10265      66657200 
 10266              	.LASF40:
 10267 06c3 5043445F 		.ascii	"PCD_ClearRegisterBitMask\000"
 10267      436C6561 
 10267      72526567 
 10267      69737465 
 10267      72426974 
 10268              	.LASF124:
 10269 06dc 5350495F 		.ascii	"SPI_WriteTxData\000"
 10269      57726974 
 10269      65547844 
 10269      61746100 
 10270              	.LASF61:
 10271 06ec 73656E64 		.ascii	"sendLen\000"
 10271      4C656E00 
 10272              	.LASF93:
 10273 06f4 636F6C6C 		.ascii	"collisionPos\000"
 10273      6973696F 
 10273      6E506F73 
 10273      00
 10274              		.ident	"GCC: (GNU Tools for ARM Embedded Processors) 5.4.1 20160609 (release) [ARM/embedded-5-bran
